

Microchip MPLAB XC8 Assembler V2.32 build 20210201212658 
                                                                                               Sat Jan  8 21:35:37 2022

Microchip MPLAB XC8 C Compiler v2.32 (Free license) build 20210201212658 Og1 
     1                           	processor	16F877A
     2                           	pagewidth 120
     3                           	opt	flic
     4                           	psect	idataCOMMON,global,class=CODE,delta=2,noexec
     5                           	psect	idataBANK1,global,class=CODE,delta=2,noexec
     6                           	psect	idataBANK3,global,class=CODE,delta=2,noexec
     7                           	psect	strings,global,class=STRING,delta=2,noexec
     8                           	psect	stringtext,global,reloc=256,class=STRCODE,delta=2,noexec
     9                           	psect	cinit,global,class=CODE,merge=1,delta=2
    10                           	psect	bssCOMMON,global,class=COMMON,space=1,delta=1,noexec
    11                           	psect	dataCOMMON,global,class=COMMON,space=1,delta=1,noexec
    12                           	psect	bssBANK0,global,class=BANK0,space=1,delta=1,noexec
    13                           	psect	bssBANK1,global,class=BANK1,space=1,delta=1,noexec
    14                           	psect	dataBANK1,global,class=BANK1,space=1,delta=1,noexec
    15                           	psect	dataBANK3,global,class=BANK3,space=1,delta=1,noexec
    16                           	psect	inittext,global,class=CODE,delta=2
    17                           	psect	clrtext,global,class=CODE,delta=2
    18                           	psect	cstackBANK3,global,class=BANK3,space=1,delta=1,noexec
    19                           	psect	cstackCOMMON,global,class=COMMON,space=1,delta=1,noexec
    20                           	psect	cstackBANK0,global,class=BANK0,space=1,delta=1,noexec
    21                           	psect	maintext,global,class=CODE,split=1,delta=2
    22                           	psect	text1,local,class=CODE,merge=1,delta=2
    23                           	psect	text2,local,class=CODE,merge=1,delta=2,group=2
    24                           	psect	text3,local,class=CODE,merge=1,delta=2
    25                           	psect	text4,local,class=CODE,merge=1,delta=2
    26                           	psect	text5,local,class=CODE,merge=1,delta=2
    27                           	psect	text6,local,class=CODE,merge=1,delta=2
    28                           	psect	text7,local,class=CODE,merge=1,delta=2
    29                           	psect	text8,local,class=CODE,merge=1,delta=2
    30                           	psect	text9,local,class=CODE,merge=1,delta=2,group=2
    31                           	psect	text10,local,class=CODE,merge=1,delta=2
    32                           	psect	text11,local,class=CODE,merge=1,delta=2,group=1
    33                           	psect	text12,local,class=CODE,merge=1,delta=2
    34                           	psect	text13,local,class=CODE,merge=1,delta=2
    35                           	psect	text14,local,class=CODE,merge=1,delta=2,group=1
    36                           	psect	text15,local,class=CODE,merge=1,delta=2
    37                           	psect	text16,local,class=CODE,merge=1,delta=2
    38                           	psect	text17,local,class=CODE,merge=1,delta=2
    39                           	psect	text18,local,class=CODE,merge=1,delta=2
    40                           	psect	text19,local,class=CODE,merge=1,delta=2
    41                           	psect	text20,local,class=CODE,merge=1,delta=2
    42                           	psect	text21,local,class=CODE,merge=1,delta=2
    43                           	psect	text22,local,class=CODE,merge=1,delta=2
    44                           	psect	text23,local,class=CODE,merge=1,delta=2
    45                           	psect	text24,local,class=CODE,merge=1,delta=2
    46                           	psect	text25,local,class=CODE,merge=1,delta=2
    47                           	psect	text26,local,class=CODE,merge=1,delta=2,group=1
    48                           	psect	text27,local,class=CODE,merge=1,delta=2
    49                           	psect	text28,local,class=CODE,merge=1,delta=2
    50                           	psect	text29,local,class=CODE,merge=1,delta=2
    51                           	psect	text30,local,class=CODE,merge=1,delta=2
    52                           	psect	text31,local,class=CODE,merge=1,delta=2,group=1
    53                           	psect	text32,local,class=CODE,merge=1,delta=2,group=1
    54                           	psect	text33,local,class=CODE,merge=1,delta=2
    55                           	psect	text34,local,class=CODE,merge=1,delta=2
    56                           	psect	text35,local,class=CODE,merge=1,delta=2
    57                           	psect	text36,local,class=CODE,merge=1,delta=2
    58                           	psect	text37,local,class=CODE,merge=1,delta=2
    59                           	psect	text38,local,class=CODE,merge=1,delta=2
    60                           	psect	text39,local,class=CODE,merge=1,delta=2
    61                           	psect	text40,local,class=CODE,merge=1,delta=2,group=2
    62                           	psect	text41,local,class=CODE,merge=1,delta=2
    63                           	psect	text42,local,class=CODE,merge=1,delta=2
    64                           	psect	text43,local,class=CODE,merge=1,delta=2
    65                           	psect	text44,local,class=CODE,merge=1,delta=2
    66                           	psect	text45,local,class=CODE,merge=1,delta=2
    67                           	psect	text46,local,class=CODE,merge=1,delta=2
    68                           	psect	text47,local,class=CODE,merge=1,delta=2
    69                           	psect	text48,local,class=CODE,merge=1,delta=2
    70                           	psect	text49,local,class=CODE,merge=1,delta=2
    71                           	psect	text50,local,class=CODE,merge=1,delta=2
    72                           	psect	text51,local,class=CODE,merge=1,delta=2,group=1
    73                           	psect	text52,local,class=CODE,merge=1,delta=2,group=1
    74                           	psect	text53,local,class=CODE,merge=1,delta=2,group=1
    75                           	psect	text54,local,class=CODE,merge=1,delta=2,group=1
    76                           	psect	text55,local,class=CODE,merge=1,delta=2,group=1
    77                           	psect	text56,local,class=CODE,merge=1,delta=2,group=1
    78                           	psect	text57,local,class=CODE,merge=1,delta=2
    79                           	psect	intentry,global,class=CODE,delta=2
    80                           	psect	config,global,abs,ovrld,class=CONFIG,space=4,delta=2,noexec
    81                           	dabs	1,0x7E,2
    82  0000                     
    83                           ; Version 2.20
    84                           ; Generated 12/02/2020 GMT
    85                           ; 
    86                           ; Copyright © 2020, Microchip Technology Inc. and its subsidiaries ("Microchip")
    87                           ; All rights reserved.
    88                           ; 
    89                           ; This software is developed by Microchip Technology Inc. and its subsidiaries ("Microch
      +                          ip").
    90                           ; 
    91                           ; Redistribution and use in source and binary forms, with or without modification, are
    92                           ; permitted provided that the following conditions are met:
    93                           ; 
    94                           ;     1. Redistributions of source code must retain the above copyright notice, this lis
      +                          t of
    95                           ;        conditions and the following disclaimer.
    96                           ; 
    97                           ;     2. Redistributions in binary form must reproduce the above copyright notice, this 
      +                          list
    98                           ;        of conditions and the following disclaimer in the documentation and/or other
    99                           ;        materials provided with the distribution.
   100                           ; 
   101                           ;     3. Microchip's name may not be used to endorse or promote products derived from th
      +                          is
   102                           ;        software without specific prior written permission.
   103                           ; 
   104                           ; THIS SOFTWARE IS PROVIDED BY MICROCHIP "AS IS" AND ANY EXPRESS OR IMPLIED WARRANTIES,
   105                           ; INCLUDING, BUT NOT LIMITED TO, THE IMPLIED WARRANTIES OF MERCHANTABILITY AND FITNESS F
      +                          OR
   106                           ; PURPOSE ARE DISCLAIMED.  IN NO EVENT SHALL MICROCHIP BE LIABLE FOR ANY DIRECT, INDIREC
      +                          T,
   107                           ; INCIDENTAL, SPECIAL, EXEMPLARY, OR CONSEQUENTIAL DAMAGES (INCLUDING BUT NOT LIMITED TO
   108                           ; PROCUREMENT OF SUBSTITUTE GOODS OR SERVICES; LOSS OF USE, DATA OR PROFITS; OR BUSINESS
   109                           ; INTERRUPTION) HOWSOEVER CAUSED AND ON ANY THEORY OF LIABILITY, WHETHER IN CONTRACT, ST
      +                          RICT
   110                           ; LIABILITY, OR TORT (INCLUDING NEGLIGENCE OR OTHERWISE) ARISING IN ANY WAY OUT OF THE U
      +                          SE OF
   111                           ; THIS SOFTWARE, EVEN IF ADVISED OF THE POSSIBILITY OF SUCH DAMAGE.
   112                           ; 
   113                           ; 
   114                           ; Code-generator required, PIC16F877A Definitions
   115                           ; 
   116                           ; SFR Addresses
   117  0000                     	;# 
   118  0001                     	;# 
   119  0002                     	;# 
   120  0003                     	;# 
   121  0004                     	;# 
   122  0005                     	;# 
   123  0006                     	;# 
   124  0007                     	;# 
   125  0008                     	;# 
   126  0009                     	;# 
   127  000A                     	;# 
   128  000B                     	;# 
   129  000C                     	;# 
   130  000D                     	;# 
   131  000E                     	;# 
   132  000E                     	;# 
   133  000F                     	;# 
   134  0010                     	;# 
   135  0011                     	;# 
   136  0012                     	;# 
   137  0013                     	;# 
   138  0014                     	;# 
   139  0015                     	;# 
   140  0015                     	;# 
   141  0016                     	;# 
   142  0017                     	;# 
   143  0018                     	;# 
   144  0019                     	;# 
   145  001A                     	;# 
   146  001B                     	;# 
   147  001B                     	;# 
   148  001C                     	;# 
   149  001D                     	;# 
   150  001E                     	;# 
   151  001F                     	;# 
   152  0081                     	;# 
   153  0085                     	;# 
   154  0086                     	;# 
   155  0087                     	;# 
   156  0088                     	;# 
   157  0089                     	;# 
   158  008C                     	;# 
   159  008D                     	;# 
   160  008E                     	;# 
   161  0091                     	;# 
   162  0092                     	;# 
   163  0093                     	;# 
   164  0094                     	;# 
   165  0098                     	;# 
   166  0099                     	;# 
   167  009C                     	;# 
   168  009D                     	;# 
   169  009E                     	;# 
   170  009F                     	;# 
   171  010C                     	;# 
   172  010D                     	;# 
   173  010E                     	;# 
   174  010F                     	;# 
   175  018C                     	;# 
   176  018D                     	;# 
   177  0000                     	;# 
   178  0001                     	;# 
   179  0002                     	;# 
   180  0003                     	;# 
   181  0004                     	;# 
   182  0005                     	;# 
   183  0006                     	;# 
   184  0007                     	;# 
   185  0008                     	;# 
   186  0009                     	;# 
   187  000A                     	;# 
   188  000B                     	;# 
   189  000C                     	;# 
   190  000D                     	;# 
   191  000E                     	;# 
   192  000E                     	;# 
   193  000F                     	;# 
   194  0010                     	;# 
   195  0011                     	;# 
   196  0012                     	;# 
   197  0013                     	;# 
   198  0014                     	;# 
   199  0015                     	;# 
   200  0015                     	;# 
   201  0016                     	;# 
   202  0017                     	;# 
   203  0018                     	;# 
   204  0019                     	;# 
   205  001A                     	;# 
   206  001B                     	;# 
   207  001B                     	;# 
   208  001C                     	;# 
   209  001D                     	;# 
   210  001E                     	;# 
   211  001F                     	;# 
   212  0081                     	;# 
   213  0085                     	;# 
   214  0086                     	;# 
   215  0087                     	;# 
   216  0088                     	;# 
   217  0089                     	;# 
   218  008C                     	;# 
   219  008D                     	;# 
   220  008E                     	;# 
   221  0091                     	;# 
   222  0092                     	;# 
   223  0093                     	;# 
   224  0094                     	;# 
   225  0098                     	;# 
   226  0099                     	;# 
   227  009C                     	;# 
   228  009D                     	;# 
   229  009E                     	;# 
   230  009F                     	;# 
   231  010C                     	;# 
   232  010D                     	;# 
   233  010E                     	;# 
   234  010F                     	;# 
   235  018C                     	;# 
   236  018D                     	;# 
   237  0000                     	;# 
   238  0001                     	;# 
   239  0002                     	;# 
   240  0003                     	;# 
   241  0004                     	;# 
   242  0005                     	;# 
   243  0006                     	;# 
   244  0007                     	;# 
   245  0008                     	;# 
   246  0009                     	;# 
   247  000A                     	;# 
   248  000B                     	;# 
   249  000C                     	;# 
   250  000D                     	;# 
   251  000E                     	;# 
   252  000E                     	;# 
   253  000F                     	;# 
   254  0010                     	;# 
   255  0011                     	;# 
   256  0012                     	;# 
   257  0013                     	;# 
   258  0014                     	;# 
   259  0015                     	;# 
   260  0015                     	;# 
   261  0016                     	;# 
   262  0017                     	;# 
   263  0018                     	;# 
   264  0019                     	;# 
   265  001A                     	;# 
   266  001B                     	;# 
   267  001B                     	;# 
   268  001C                     	;# 
   269  001D                     	;# 
   270  001E                     	;# 
   271  001F                     	;# 
   272  0081                     	;# 
   273  0085                     	;# 
   274  0086                     	;# 
   275  0087                     	;# 
   276  0088                     	;# 
   277  0089                     	;# 
   278  008C                     	;# 
   279  008D                     	;# 
   280  008E                     	;# 
   281  0091                     	;# 
   282  0092                     	;# 
   283  0093                     	;# 
   284  0094                     	;# 
   285  0098                     	;# 
   286  0099                     	;# 
   287  009C                     	;# 
   288  009D                     	;# 
   289  009E                     	;# 
   290  009F                     	;# 
   291  010C                     	;# 
   292  010D                     	;# 
   293  010E                     	;# 
   294  010F                     	;# 
   295  018C                     	;# 
   296  018D                     	;# 
   297  0000                     	;# 
   298  0001                     	;# 
   299  0002                     	;# 
   300  0003                     	;# 
   301  0004                     	;# 
   302  0005                     	;# 
   303  0006                     	;# 
   304  0007                     	;# 
   305  0008                     	;# 
   306  0009                     	;# 
   307  000A                     	;# 
   308  000B                     	;# 
   309  000C                     	;# 
   310  000D                     	;# 
   311  000E                     	;# 
   312  000E                     	;# 
   313  000F                     	;# 
   314  0010                     	;# 
   315  0011                     	;# 
   316  0012                     	;# 
   317  0013                     	;# 
   318  0014                     	;# 
   319  0015                     	;# 
   320  0015                     	;# 
   321  0016                     	;# 
   322  0017                     	;# 
   323  0018                     	;# 
   324  0019                     	;# 
   325  001A                     	;# 
   326  001B                     	;# 
   327  001B                     	;# 
   328  001C                     	;# 
   329  001D                     	;# 
   330  001E                     	;# 
   331  001F                     	;# 
   332  0081                     	;# 
   333  0085                     	;# 
   334  0086                     	;# 
   335  0087                     	;# 
   336  0088                     	;# 
   337  0089                     	;# 
   338  008C                     	;# 
   339  008D                     	;# 
   340  008E                     	;# 
   341  0091                     	;# 
   342  0092                     	;# 
   343  0093                     	;# 
   344  0094                     	;# 
   345  0098                     	;# 
   346  0099                     	;# 
   347  009C                     	;# 
   348  009D                     	;# 
   349  009E                     	;# 
   350  009F                     	;# 
   351  010C                     	;# 
   352  010D                     	;# 
   353  010E                     	;# 
   354  010F                     	;# 
   355  018C                     	;# 
   356  018D                     	;# 
   357  0000                     	;# 
   358  0001                     	;# 
   359  0002                     	;# 
   360  0003                     	;# 
   361  0004                     	;# 
   362  0005                     	;# 
   363  0006                     	;# 
   364  0007                     	;# 
   365  0008                     	;# 
   366  0009                     	;# 
   367  000A                     	;# 
   368  000B                     	;# 
   369  000C                     	;# 
   370  000D                     	;# 
   371  000E                     	;# 
   372  000E                     	;# 
   373  000F                     	;# 
   374  0010                     	;# 
   375  0011                     	;# 
   376  0012                     	;# 
   377  0013                     	;# 
   378  0014                     	;# 
   379  0015                     	;# 
   380  0015                     	;# 
   381  0016                     	;# 
   382  0017                     	;# 
   383  0018                     	;# 
   384  0019                     	;# 
   385  001A                     	;# 
   386  001B                     	;# 
   387  001B                     	;# 
   388  001C                     	;# 
   389  001D                     	;# 
   390  001E                     	;# 
   391  001F                     	;# 
   392  0081                     	;# 
   393  0085                     	;# 
   394  0086                     	;# 
   395  0087                     	;# 
   396  0088                     	;# 
   397  0089                     	;# 
   398  008C                     	;# 
   399  008D                     	;# 
   400  008E                     	;# 
   401  0091                     	;# 
   402  0092                     	;# 
   403  0093                     	;# 
   404  0094                     	;# 
   405  0098                     	;# 
   406  0099                     	;# 
   407  009C                     	;# 
   408  009D                     	;# 
   409  009E                     	;# 
   410  009F                     	;# 
   411  010C                     	;# 
   412  010D                     	;# 
   413  010E                     	;# 
   414  010F                     	;# 
   415  018C                     	;# 
   416  018D                     	;# 
   417  0000                     	;# 
   418  0001                     	;# 
   419  0002                     	;# 
   420  0003                     	;# 
   421  0004                     	;# 
   422  0005                     	;# 
   423  0006                     	;# 
   424  0007                     	;# 
   425  0008                     	;# 
   426  0009                     	;# 
   427  000A                     	;# 
   428  000B                     	;# 
   429  000C                     	;# 
   430  000D                     	;# 
   431  000E                     	;# 
   432  000E                     	;# 
   433  000F                     	;# 
   434  0010                     	;# 
   435  0011                     	;# 
   436  0012                     	;# 
   437  0013                     	;# 
   438  0014                     	;# 
   439  0015                     	;# 
   440  0015                     	;# 
   441  0016                     	;# 
   442  0017                     	;# 
   443  0018                     	;# 
   444  0019                     	;# 
   445  001A                     	;# 
   446  001B                     	;# 
   447  001B                     	;# 
   448  001C                     	;# 
   449  001D                     	;# 
   450  001E                     	;# 
   451  001F                     	;# 
   452  0081                     	;# 
   453  0085                     	;# 
   454  0086                     	;# 
   455  0087                     	;# 
   456  0088                     	;# 
   457  0089                     	;# 
   458  008C                     	;# 
   459  008D                     	;# 
   460  008E                     	;# 
   461  0091                     	;# 
   462  0092                     	;# 
   463  0093                     	;# 
   464  0094                     	;# 
   465  0098                     	;# 
   466  0099                     	;# 
   467  009C                     	;# 
   468  009D                     	;# 
   469  009E                     	;# 
   470  009F                     	;# 
   471  010C                     	;# 
   472  010D                     	;# 
   473  010E                     	;# 
   474  010F                     	;# 
   475  018C                     	;# 
   476  018D                     	;# 
   477  0000                     	;# 
   478  0001                     	;# 
   479  0002                     	;# 
   480  0003                     	;# 
   481  0004                     	;# 
   482  0005                     	;# 
   483  0006                     	;# 
   484  0007                     	;# 
   485  0008                     	;# 
   486  0009                     	;# 
   487  000A                     	;# 
   488  000B                     	;# 
   489  000C                     	;# 
   490  000D                     	;# 
   491  000E                     	;# 
   492  000E                     	;# 
   493  000F                     	;# 
   494  0010                     	;# 
   495  0011                     	;# 
   496  0012                     	;# 
   497  0013                     	;# 
   498  0014                     	;# 
   499  0015                     	;# 
   500  0015                     	;# 
   501  0016                     	;# 
   502  0017                     	;# 
   503  0018                     	;# 
   504  0019                     	;# 
   505  001A                     	;# 
   506  001B                     	;# 
   507  001B                     	;# 
   508  001C                     	;# 
   509  001D                     	;# 
   510  001E                     	;# 
   511  001F                     	;# 
   512  0081                     	;# 
   513  0085                     	;# 
   514  0086                     	;# 
   515  0087                     	;# 
   516  0088                     	;# 
   517  0089                     	;# 
   518  008C                     	;# 
   519  008D                     	;# 
   520  008E                     	;# 
   521  0091                     	;# 
   522  0092                     	;# 
   523  0093                     	;# 
   524  0094                     	;# 
   525  0098                     	;# 
   526  0099                     	;# 
   527  009C                     	;# 
   528  009D                     	;# 
   529  009E                     	;# 
   530  009F                     	;# 
   531  010C                     	;# 
   532  010D                     	;# 
   533  010E                     	;# 
   534  010F                     	;# 
   535  018C                     	;# 
   536  018D                     	;# 
   537  0000                     	;# 
   538  0001                     	;# 
   539  0002                     	;# 
   540  0003                     	;# 
   541  0004                     	;# 
   542  0005                     	;# 
   543  0006                     	;# 
   544  0007                     	;# 
   545  0008                     	;# 
   546  0009                     	;# 
   547  000A                     	;# 
   548  000B                     	;# 
   549  000C                     	;# 
   550  000D                     	;# 
   551  000E                     	;# 
   552  000E                     	;# 
   553  000F                     	;# 
   554  0010                     	;# 
   555  0011                     	;# 
   556  0012                     	;# 
   557  0013                     	;# 
   558  0014                     	;# 
   559  0015                     	;# 
   560  0015                     	;# 
   561  0016                     	;# 
   562  0017                     	;# 
   563  0018                     	;# 
   564  0019                     	;# 
   565  001A                     	;# 
   566  001B                     	;# 
   567  001B                     	;# 
   568  001C                     	;# 
   569  001D                     	;# 
   570  001E                     	;# 
   571  001F                     	;# 
   572  0081                     	;# 
   573  0085                     	;# 
   574  0086                     	;# 
   575  0087                     	;# 
   576  0088                     	;# 
   577  0089                     	;# 
   578  008C                     	;# 
   579  008D                     	;# 
   580  008E                     	;# 
   581  0091                     	;# 
   582  0092                     	;# 
   583  0093                     	;# 
   584  0094                     	;# 
   585  0098                     	;# 
   586  0099                     	;# 
   587  009C                     	;# 
   588  009D                     	;# 
   589  009E                     	;# 
   590  009F                     	;# 
   591  010C                     	;# 
   592  010D                     	;# 
   593  010E                     	;# 
   594  010F                     	;# 
   595  018C                     	;# 
   596  018D                     	;# 
   597  0000                     	;# 
   598  0001                     	;# 
   599  0002                     	;# 
   600  0003                     	;# 
   601  0004                     	;# 
   602  0005                     	;# 
   603  0006                     	;# 
   604  0007                     	;# 
   605  0008                     	;# 
   606  0009                     	;# 
   607  000A                     	;# 
   608  000B                     	;# 
   609  000C                     	;# 
   610  000D                     	;# 
   611  000E                     	;# 
   612  000E                     	;# 
   613  000F                     	;# 
   614  0010                     	;# 
   615  0011                     	;# 
   616  0012                     	;# 
   617  0013                     	;# 
   618  0014                     	;# 
   619  0015                     	;# 
   620  0015                     	;# 
   621  0016                     	;# 
   622  0017                     	;# 
   623  0018                     	;# 
   624  0019                     	;# 
   625  001A                     	;# 
   626  001B                     	;# 
   627  001B                     	;# 
   628  001C                     	;# 
   629  001D                     	;# 
   630  001E                     	;# 
   631  001F                     	;# 
   632  0081                     	;# 
   633  0085                     	;# 
   634  0086                     	;# 
   635  0087                     	;# 
   636  0088                     	;# 
   637  0089                     	;# 
   638  008C                     	;# 
   639  008D                     	;# 
   640  008E                     	;# 
   641  0091                     	;# 
   642  0092                     	;# 
   643  0093                     	;# 
   644  0094                     	;# 
   645  0098                     	;# 
   646  0099                     	;# 
   647  009C                     	;# 
   648  009D                     	;# 
   649  009E                     	;# 
   650  009F                     	;# 
   651  010C                     	;# 
   652  010D                     	;# 
   653  010E                     	;# 
   654  010F                     	;# 
   655  018C                     	;# 
   656  018D                     	;# 
   657  0000                     	;# 
   658  0001                     	;# 
   659  0002                     	;# 
   660  0003                     	;# 
   661  0004                     	;# 
   662  0005                     	;# 
   663  0006                     	;# 
   664  0007                     	;# 
   665  0008                     	;# 
   666  0009                     	;# 
   667  000A                     	;# 
   668  000B                     	;# 
   669  000C                     	;# 
   670  000D                     	;# 
   671  000E                     	;# 
   672  000E                     	;# 
   673  000F                     	;# 
   674  0010                     	;# 
   675  0011                     	;# 
   676  0012                     	;# 
   677  0013                     	;# 
   678  0014                     	;# 
   679  0015                     	;# 
   680  0015                     	;# 
   681  0016                     	;# 
   682  0017                     	;# 
   683  0018                     	;# 
   684  0019                     	;# 
   685  001A                     	;# 
   686  001B                     	;# 
   687  001B                     	;# 
   688  001C                     	;# 
   689  001D                     	;# 
   690  001E                     	;# 
   691  001F                     	;# 
   692  0081                     	;# 
   693  0085                     	;# 
   694  0086                     	;# 
   695  0087                     	;# 
   696  0088                     	;# 
   697  0089                     	;# 
   698  008C                     	;# 
   699  008D                     	;# 
   700  008E                     	;# 
   701  0091                     	;# 
   702  0092                     	;# 
   703  0093                     	;# 
   704  0094                     	;# 
   705  0098                     	;# 
   706  0099                     	;# 
   707  009C                     	;# 
   708  009D                     	;# 
   709  009E                     	;# 
   710  009F                     	;# 
   711  010C                     	;# 
   712  010D                     	;# 
   713  010E                     	;# 
   714  010F                     	;# 
   715  018C                     	;# 
   716  018D                     	;# 
   717  0000                     	;# 
   718  0001                     	;# 
   719  0002                     	;# 
   720  0003                     	;# 
   721  0004                     	;# 
   722  0005                     	;# 
   723  0006                     	;# 
   724  0007                     	;# 
   725  0008                     	;# 
   726  0009                     	;# 
   727  000A                     	;# 
   728  000B                     	;# 
   729  000C                     	;# 
   730  000D                     	;# 
   731  000E                     	;# 
   732  000E                     	;# 
   733  000F                     	;# 
   734  0010                     	;# 
   735  0011                     	;# 
   736  0012                     	;# 
   737  0013                     	;# 
   738  0014                     	;# 
   739  0015                     	;# 
   740  0015                     	;# 
   741  0016                     	;# 
   742  0017                     	;# 
   743  0018                     	;# 
   744  0019                     	;# 
   745  001A                     	;# 
   746  001B                     	;# 
   747  001B                     	;# 
   748  001C                     	;# 
   749  001D                     	;# 
   750  001E                     	;# 
   751  001F                     	;# 
   752  0081                     	;# 
   753  0085                     	;# 
   754  0086                     	;# 
   755  0087                     	;# 
   756  0088                     	;# 
   757  0089                     	;# 
   758  008C                     	;# 
   759  008D                     	;# 
   760  008E                     	;# 
   761  0091                     	;# 
   762  0092                     	;# 
   763  0093                     	;# 
   764  0094                     	;# 
   765  0098                     	;# 
   766  0099                     	;# 
   767  009C                     	;# 
   768  009D                     	;# 
   769  009E                     	;# 
   770  009F                     	;# 
   771  010C                     	;# 
   772  010D                     	;# 
   773  010E                     	;# 
   774  010F                     	;# 
   775  018C                     	;# 
   776  018D                     	;# 
   777  0000                     	;# 
   778  0001                     	;# 
   779  0002                     	;# 
   780  0003                     	;# 
   781  0004                     	;# 
   782  0005                     	;# 
   783  0006                     	;# 
   784  0007                     	;# 
   785  0008                     	;# 
   786  0009                     	;# 
   787  000A                     	;# 
   788  000B                     	;# 
   789  000C                     	;# 
   790  000D                     	;# 
   791  000E                     	;# 
   792  000E                     	;# 
   793  000F                     	;# 
   794  0010                     	;# 
   795  0011                     	;# 
   796  0012                     	;# 
   797  0013                     	;# 
   798  0014                     	;# 
   799  0015                     	;# 
   800  0015                     	;# 
   801  0016                     	;# 
   802  0017                     	;# 
   803  0018                     	;# 
   804  0019                     	;# 
   805  001A                     	;# 
   806  001B                     	;# 
   807  001B                     	;# 
   808  001C                     	;# 
   809  001D                     	;# 
   810  001E                     	;# 
   811  001F                     	;# 
   812  0081                     	;# 
   813  0085                     	;# 
   814  0086                     	;# 
   815  0087                     	;# 
   816  0088                     	;# 
   817  0089                     	;# 
   818  008C                     	;# 
   819  008D                     	;# 
   820  008E                     	;# 
   821  0091                     	;# 
   822  0092                     	;# 
   823  0093                     	;# 
   824  0094                     	;# 
   825  0098                     	;# 
   826  0099                     	;# 
   827  009C                     	;# 
   828  009D                     	;# 
   829  009E                     	;# 
   830  009F                     	;# 
   831  010C                     	;# 
   832  010D                     	;# 
   833  010E                     	;# 
   834  010F                     	;# 
   835  018C                     	;# 
   836  018D                     	;# 
   837                           
   838                           	psect	idataCOMMON
   839  0003                     __pidataCOMMON:
   840                           
   841                           ;initializer for read_digital_keypad@once
   842  0003  3401               	retlw	1
   843                           
   844                           	psect	idataBANK1
   845  1B2E                     __pidataBANK1:
   846                           
   847                           ;initializer for _menu
   848  1B2E  3459               	retlw	low (STR_1| (0+32768))
   849  1B2F  3491               	retlw	high (STR_1| (0+32768))
   850  1B30  343D               	retlw	low (STR_2| (0+32768))
   851  1B31  3491               	retlw	high (STR_2| (0+32768))
   852  1B32  3401               	retlw	low (STR_3| (0+32768))
   853  1B33  3491               	retlw	high (STR_3| (0+32768))
   854  1B34  3450               	retlw	low (STR_4| (0+32768))
   855  1B35  3491               	retlw	high (STR_4| (0+32768))
   856  1B36  34E7               	retlw	low (STR_5| (0+32768))
   857  1B37  3490               	retlw	high (STR_5| (0+32768))
   858                           
   859                           ;initializer for main@F1021
   860  1B38  344F               	retlw	79
   861  1B39  344E               	retlw	78
   862  1B3A  3400               	retlw	0
   863                           
   864                           ;initializer for login_menu@select_pos
   865  1B3B  3401               	retlw	1
   866  1B3C  3400               	retlw	0
   867                           
   868                           ;initializer for _access
   869  1B3D  34FF               	retlw	255
   870  1B3E  34FF               	retlw	255
   871                           
   872                           ;initializer for _pos
   873  1B3F  34FF               	retlw	255
   874  1B40  34FF               	retlw	255
   875                           
   876                           	psect	idataBANK3
   877  1AF0                     __pidataBANK3:
   878                           
   879                           ;initializer for _gear
   880  1AF0  3474               	retlw	low (STR_26| (0+32768))
   881  1AF1  3491               	retlw	high (STR_26| (0+32768))
   882  1AF2  3477               	retlw	low (STR_27| (0+32768))
   883  1AF3  3491               	retlw	high (STR_27| (0+32768))
   884  1AF4  3462               	retlw	low (STR_28| (0+32768))
   885  1AF5  3491               	retlw	high (STR_28| (0+32768))
   886  1AF6  3465               	retlw	low (STR_29| (0+32768))
   887  1AF7  3491               	retlw	high (STR_29| (0+32768))
   888  1AF8  3468               	retlw	low (STR_30| (0+32768))
   889  1AF9  3491               	retlw	high (STR_30| (0+32768))
   890  1AFA  346B               	retlw	low (STR_31| (0+32768))
   891  1AFB  3491               	retlw	high (STR_31| (0+32768))
   892  001A                     _RCREG	set	26
   893  0019                     _TXREG	set	25
   894  0013                     _SSPBUF	set	19
   895  0014                     _SSPCON	set	20
   896  0006                     _PORTB	set	6
   897  0008                     _PORTD	set	8
   898  001E                     _ADRESH	set	30
   899  0065                     _RCIF	set	101
   900  0064                     _TXIF	set	100
   901  00C4                     _CREN	set	196
   902  00C7                     _SPEN	set	199
   903  0091                     _T2CKPS1	set	145
   904  0090                     _T2CKPS0	set	144
   905  0092                     _TMR2ON	set	146
   906  005F                     _GIE	set	95
   907  005E                     _PEIE	set	94
   908  0061                     _TMR2IF	set	97
   909  006B                     _BCLIF	set	107
   910  0063                     _SSPIF	set	99
   911  0049                     _RE1	set	73
   912  004A                     _RE2	set	74
   913  00F8                     _ADON	set	248
   914  00FA                     _GO	set	250
   915  00FF                     _ADCS1	set	255
   916  00FE                     _ADCS0	set	254
   917  0099                     _SPBRG	set	153
   918  0092                     _PR2	set	146
   919  0093                     _SSPADD	set	147
   920  0091                     _SSPCON2	set	145
   921  0086                     _TRISB	set	134
   922  0088                     _TRISD	set	136
   923  009E                     _ADRESL	set	158
   924  0461                     _TMR2IE	set	1121
   925  048E                     _ACKSTAT	set	1166
   926  048C                     _ACKEN	set	1164
   927  048D                     _ACKDT	set	1165
   928  048B                     _RCEN	set	1163
   929  048A                     _PEN	set	1162
   930  0489                     _RSEN	set	1161
   931  0488                     _SEN	set	1160
   932  04A2                     _R_nW	set	1186
   933  04A7                     _SMP	set	1191
   934  04A6                     _CKE	set	1190
   935  043C                     _TRISC4	set	1084
   936  043B                     _TRISC3	set	1083
   937  0449                     _TRISE1	set	1097
   938  044A                     _TRISE2	set	1098
   939  04FE                     _ADCS2	set	1278
   940  04FF                     _ADFM	set	1279
   941                           
   942                           	psect	strings
   943  1800                     __pstrings:
   944  1800                     stringtab:
   945  1800                     __stringtab:
   946                           
   947                           ;	String table - string pointers are 2 bytes each
   948  1800  1BFF               	btfsc	btemp+1,7
   949  1801  280A               	ljmp	stringcode
   950  1802  1383               	bcf	3,7
   951  1803  187F               	btfsc	btemp+1,0
   952  1804  1783               	bsf	3,7
   953  1805  0800               	movf	0,w
   954  1806  0A84               	incf	4,f
   955  1807  1903               	skipnz
   956  1808  0AFF               	incf	btemp+1,f
   957  1809  0008               	return
   958  180A                     stringcode:
   959  180A  087F               	movf	btemp+1,w
   960  180B  397F               	andlw	127
   961  180C  008A               	movwf	10
   962  180D  0804               	movf	4,w
   963  180E  0A84               	incf	4,f
   964  180F  1903               	skipnz
   965  1810  0AFF               	incf	btemp+1,f
   966  1811  0082               	movwf	2
   967  1812                     __stringbase:
   968  1812                     __end_of__stringtab:
   969                           
   970                           	psect	stringtext
   971  1000                     __pstringtext:
   972  1000                     STR_15:
   973  1000  340D               	retlw	13
   974  1001  340A               	retlw	10
   975  1002  3423               	retlw	35	;'#'
   976  1003  3420               	retlw	32	;' '
   977  1004  3454               	retlw	84	;'T'
   978  1005  3449               	retlw	73	;'I'
   979  1006  344D               	retlw	77	;'M'
   980  1007  3445               	retlw	69	;'E'
   981  1008  3420               	retlw	32	;' '
   982  1009  3420               	retlw	32	;' '
   983  100A  3420               	retlw	32	;' '
   984  100B  3445               	retlw	69	;'E'
   985  100C  3456               	retlw	86	;'V'
   986  100D  344E               	retlw	78	;'N'
   987  100E  3454               	retlw	84	;'T'
   988  100F  3420               	retlw	32	;' '
   989  1010  3453               	retlw	83	;'S'
   990  1011  3450               	retlw	80	;'P'
   991  1012  340A               	retlw	10
   992  1013  340D               	retlw	13
   993  1014  3400               	retlw	0
   994  1015                     STR_36:
   995  1015  3445               	retlw	69	;'E'
   996  1016  346E               	retlw	110	;'n'
   997  1017  3474               	retlw	116	;'t'
   998  1018  3465               	retlw	101	;'e'
   999  1019  3472               	retlw	114	;'r'
  1000  101A  3420               	retlw	32	;' '
  1001  101B  344E               	retlw	78	;'N'
  1002  101C  3465               	retlw	101	;'e'
  1003  101D  3477               	retlw	119	;'w'
  1004  101E  3420               	retlw	32	;' '
  1005  101F  3450               	retlw	80	;'P'
  1006  1020  3461               	retlw	97	;'a'
  1007  1021  3473               	retlw	115	;'s'
  1008  1022  3473               	retlw	115	;'s'
  1009  1023  3477               	retlw	119	;'w'
  1010  1024  3464               	retlw	100	;'d'
  1011  1025  3420               	retlw	32	;' '
  1012  1026  3400               	retlw	0
  1013  1027                     STR_12:
  1014  1027  346E               	retlw	110	;'n'
  1015  1028  346F               	retlw	111	;'o'
  1016  1029  3420               	retlw	32	;' '
  1017  102A  346C               	retlw	108	;'l'
  1018  102B  346F               	retlw	111	;'o'
  1019  102C  3467               	retlw	103	;'g'
  1020  102D  3473               	retlw	115	;'s'
  1021  102E  3420               	retlw	32	;' '
  1022  102F  3461               	retlw	97	;'a'
  1023  1030  3476               	retlw	118	;'v'
  1024  1031  3461               	retlw	97	;'a'
  1025  1032  3469               	retlw	105	;'i'
  1026  1033  346C               	retlw	108	;'l'
  1027  1034  3461               	retlw	97	;'a'
  1028  1035  3462               	retlw	98	;'b'
  1029  1036  346C               	retlw	108	;'l'
  1030  1037  3465               	retlw	101	;'e'
  1031  1038  3400               	retlw	0
  1032  1039                     STR_33:
  1033  1039  3420               	retlw	32	;' '
  1034  103A  3445               	retlw	69	;'E'
  1035  103B  346E               	retlw	110	;'n'
  1036  103C  3474               	retlw	116	;'t'
  1037  103D  3465               	retlw	101	;'e'
  1038  103E  3472               	retlw	114	;'r'
  1039  103F  3420               	retlw	32	;' '
  1040  1040  3450               	retlw	80	;'P'
  1041  1041  3461               	retlw	97	;'a'
  1042  1042  3473               	retlw	115	;'s'
  1043  1043  3473               	retlw	115	;'s'
  1044  1044  3477               	retlw	119	;'w'
  1045  1045  346F               	retlw	111	;'o'
  1046  1046  3472               	retlw	114	;'r'
  1047  1047  3464               	retlw	100	;'d'
  1048  1048  3420               	retlw	32	;' '
  1049  1049  3400               	retlw	0
  1050  104A                     STR_34:
  1051  104A  3423               	retlw	35	;'#'
  1052  104B  3420               	retlw	32	;' '
  1053  104C  3454               	retlw	84	;'T'
  1054  104D  3449               	retlw	73	;'I'
  1055  104E  344D               	retlw	77	;'M'
  1056  104F  3445               	retlw	69	;'E'
  1057  1050  3420               	retlw	32	;' '
  1058  1051  3420               	retlw	32	;' '
  1059  1052  3420               	retlw	32	;' '
  1060  1053  3445               	retlw	69	;'E'
  1061  1054  3456               	retlw	86	;'V'
  1062  1055  344E               	retlw	78	;'N'
  1063  1056  3454               	retlw	84	;'T'
  1064  1057  3420               	retlw	32	;' '
  1065  1058  3453               	retlw	83	;'S'
  1066  1059  3450               	retlw	80	;'P'
  1067  105A  3400               	retlw	0
  1068  105B                     STR_6:
  1069  105B  3420               	retlw	32	;' '
  1070  105C  3420               	retlw	32	;' '
  1071  105D  3454               	retlw	84	;'T'
  1072  105E  3449               	retlw	73	;'I'
  1073  105F  344D               	retlw	77	;'M'
  1074  1060  3445               	retlw	69	;'E'
  1075  1061  3420               	retlw	32	;' '
  1076  1062  3420               	retlw	32	;' '
  1077  1063  3445               	retlw	69	;'E'
  1078  1064  3456               	retlw	86	;'V'
  1079  1065  344E               	retlw	78	;'N'
  1080  1066  3454               	retlw	84	;'T'
  1081  1067  3420               	retlw	32	;' '
  1082  1068  3420               	retlw	32	;' '
  1083  1069  3453               	retlw	83	;'S'
  1084  106A  3450               	retlw	80	;'P'
  1085  106B  3400               	retlw	0
  1086  106C                     STR_19:
  1087  106C  3450               	retlw	80	;'P'
  1088  106D  3461               	retlw	97	;'a'
  1089  106E  3473               	retlw	115	;'s'
  1090  106F  3473               	retlw	115	;'s'
  1091  1070  3477               	retlw	119	;'w'
  1092  1071  346F               	retlw	111	;'o'
  1093  1072  3472               	retlw	114	;'r'
  1094  1073  3464               	retlw	100	;'d'
  1095  1074  3420               	retlw	32	;' '
  1096  1075  3443               	retlw	67	;'C'
  1097  1076  3468               	retlw	104	;'h'
  1098  1077  3461               	retlw	97	;'a'
  1099  1078  346E               	retlw	110	;'n'
  1100  1079  3467               	retlw	103	;'g'
  1101  107A  3465               	retlw	101	;'e'
  1102  107B  3464               	retlw	100	;'d'
  1103  107C  3400               	retlw	0
  1104  107D                     STR_18:
  1105  107D  3443               	retlw	67	;'C'
  1106  107E  346F               	retlw	111	;'o'
  1107  107F  346E               	retlw	110	;'n'
  1108  1080  3466               	retlw	102	;'f'
  1109  1081  3469               	retlw	105	;'i'
  1110  1082  3472               	retlw	114	;'r'
  1111  1083  346D               	retlw	109	;'m'
  1112  1084  3420               	retlw	32	;' '
  1113  1085  3450               	retlw	80	;'P'
  1114  1086  3461               	retlw	97	;'a'
  1115  1087  3473               	retlw	115	;'s'
  1116  1088  3473               	retlw	115	;'s'
  1117  1089  3477               	retlw	119	;'w'
  1118  108A  3472               	retlw	114	;'r'
  1119  108B  3464               	retlw	100	;'d'
  1120  108C  3400               	retlw	0
  1121  108D                     STR_16:
  1122  108D  3444               	retlw	68	;'D'
  1123  108E  346F               	retlw	111	;'o'
  1124  108F  3477               	retlw	119	;'w'
  1125  1090  346E               	retlw	110	;'n'
  1126  1091  346C               	retlw	108	;'l'
  1127  1092  346F               	retlw	111	;'o'
  1128  1093  3461               	retlw	97	;'a'
  1129  1094  3464               	retlw	100	;'d'
  1130  1095  3465               	retlw	101	;'e'
  1131  1096  3464               	retlw	100	;'d'
  1132  1097  3420               	retlw	32	;' '
  1133  1098  344C               	retlw	76	;'L'
  1134  1099  346F               	retlw	111	;'o'
  1135  109A  3467               	retlw	103	;'g'
  1136  109B  3473               	retlw	115	;'s'
  1137  109C  3400               	retlw	0
  1138  109D                     STR_9:
  1139  109D  3457               	retlw	87	;'W'
  1140  109E  3452               	retlw	82	;'R'
  1141  109F  344F               	retlw	79	;'O'
  1142  10A0  344E               	retlw	78	;'N'
  1143  10A1  3447               	retlw	71	;'G'
  1144  10A2  3420               	retlw	32	;' '
  1145  10A3  3450               	retlw	80	;'P'
  1146  10A4  3441               	retlw	65	;'A'
  1147  10A5  3453               	retlw	83	;'S'
  1148  10A6  3453               	retlw	83	;'S'
  1149  10A7  3457               	retlw	87	;'W'
  1150  10A8  344F               	retlw	79	;'O'
  1151  10A9  3452               	retlw	82	;'R'
  1152  10AA  3444               	retlw	68	;'D'
  1153  10AB  3400               	retlw	0
  1154  10AC                     STR_8:
  1155  10AC  3457               	retlw	87	;'W'
  1156  10AD  3461               	retlw	97	;'a'
  1157  10AE  3469               	retlw	105	;'i'
  1158  10AF  3474               	retlw	116	;'t'
  1159  10B0  3420               	retlw	32	;' '
  1160  10B1  342E               	retlw	46	;'.'
  1161  10B2  342E               	retlw	46	;'.'
  1162  10B3  3420               	retlw	32	;' '
  1163  10B4  3436               	retlw	54	;'6'
  1164  10B5  3430               	retlw	48	;'0'
  1165  10B6  3420               	retlw	32	;' '
  1166  10B7  3473               	retlw	115	;'s'
  1167  10B8  3465               	retlw	101	;'e'
  1168  10B9  3463               	retlw	99	;'c'
  1169  10BA  3400               	retlw	0
  1170  10BB                     STR_7:
  1171  10BB  3459               	retlw	89	;'Y'
  1172  10BC  346F               	retlw	111	;'o'
  1173  10BD  3475               	retlw	117	;'u'
  1174  10BE  3420               	retlw	32	;' '
  1175  10BF  3461               	retlw	97	;'a'
  1176  10C0  3472               	retlw	114	;'r'
  1177  10C1  3465               	retlw	101	;'e'
  1178  10C2  3420               	retlw	32	;' '
  1179  10C3  346C               	retlw	108	;'l'
  1180  10C4  346F               	retlw	111	;'o'
  1181  10C5  3463               	retlw	99	;'c'
  1182  10C6  346B               	retlw	107	;'k'
  1183  10C7  3465               	retlw	101	;'e'
  1184  10C8  3464               	retlw	100	;'d'
  1185  10C9  3400               	retlw	0
  1186  10CA                     STR_11:
  1187  10CA  3445               	retlw	69	;'E'
  1188  10CB  346E               	retlw	110	;'n'
  1189  10CC  3474               	retlw	116	;'t'
  1190  10CD  3465               	retlw	101	;'e'
  1191  10CE  3472               	retlw	114	;'r'
  1192  10CF  3420               	retlw	32	;' '
  1193  10D0  3450               	retlw	80	;'P'
  1194  10D1  3461               	retlw	97	;'a'
  1195  10D2  3473               	retlw	115	;'s'
  1196  10D3  3473               	retlw	115	;'s'
  1197  10D4  3477               	retlw	119	;'w'
  1198  10D5  346F               	retlw	111	;'o'
  1199  10D6  3472               	retlw	114	;'r'
  1200  10D7  3464               	retlw	100	;'d'
  1201  10D8  3400               	retlw	0
  1202  10D9                     STR_24:
  1203  10D9  3441               	retlw	65	;'A'
  1204  10DA  3474               	retlw	116	;'t'
  1205  10DB  3474               	retlw	116	;'t'
  1206  10DC  3465               	retlw	101	;'e'
  1207  10DD  346D               	retlw	109	;'m'
  1208  10DE  3470               	retlw	112	;'p'
  1209  10DF  3474               	retlw	116	;'t'
  1210  10E0  3473               	retlw	115	;'s'
  1211  10E1  3420               	retlw	32	;' '
  1212  10E2  344C               	retlw	76	;'L'
  1213  10E3  3465               	retlw	101	;'e'
  1214  10E4  3466               	retlw	102	;'f'
  1215  10E5  3474               	retlw	116	;'t'
  1216  10E6  3400               	retlw	0
  1217  10E7                     STR_5:
  1218  10E7  3443               	retlw	67	;'C'
  1219  10E8  3468               	retlw	104	;'h'
  1220  10E9  3461               	retlw	97	;'a'
  1221  10EA  346E               	retlw	110	;'n'
  1222  10EB  3467               	retlw	103	;'g'
  1223  10EC  3465               	retlw	101	;'e'
  1224  10ED  3420               	retlw	32	;' '
  1225  10EE  3450               	retlw	80	;'P'
  1226  10EF  3461               	retlw	97	;'a'
  1227  10F0  3473               	retlw	115	;'s'
  1228  10F1  3477               	retlw	119	;'w'
  1229  10F2  3464               	retlw	100	;'d'
  1230  10F3  3400               	retlw	0
  1231  10F4                     STR_23:
  1232  10F4  344E               	retlw	78	;'N'
  1233  10F5  346F               	retlw	111	;'o'
  1234  10F6  3474               	retlw	116	;'t'
  1235  10F7  3420               	retlw	32	;' '
  1236  10F8  346D               	retlw	109	;'m'
  1237  10F9  3461               	retlw	97	;'a'
  1238  10FA  3474               	retlw	116	;'t'
  1239  10FB  3463               	retlw	99	;'c'
  1240  10FC  3468               	retlw	104	;'h'
  1241  10FD  3469               	retlw	105	;'i'
  1242  10FE  346E               	retlw	110	;'n'
  1243  10FF  3467               	retlw	103	;'g'
  1244  1100  3400               	retlw	0
  1245  1101                     STR_3:
  1246  1101  3444               	retlw	68	;'D'
  1247  1102  346F               	retlw	111	;'o'
  1248  1103  3477               	retlw	119	;'w'
  1249  1104  346E               	retlw	110	;'n'
  1250  1105  346C               	retlw	108	;'l'
  1251  1106  346F               	retlw	111	;'o'
  1252  1107  3461               	retlw	97	;'a'
  1253  1108  3464               	retlw	100	;'d'
  1254  1109  3420               	retlw	32	;' '
  1255  110A  344C               	retlw	76	;'L'
  1256  110B  346F               	retlw	111	;'o'
  1257  110C  3467               	retlw	103	;'g'
  1258  110D  3400               	retlw	0
  1259  110E                     STR_10:
  1260  110E  3441               	retlw	65	;'A'
  1261  110F  3474               	retlw	116	;'t'
  1262  1110  3474               	retlw	116	;'t'
  1263  1111  3465               	retlw	101	;'e'
  1264  1112  346D               	retlw	109	;'m'
  1265  1113  3470               	retlw	112	;'p'
  1266  1114  3474               	retlw	116	;'t'
  1267  1115  3420               	retlw	32	;' '
  1268  1116  344C               	retlw	76	;'L'
  1269  1117  3465               	retlw	101	;'e'
  1270  1118  3466               	retlw	102	;'f'
  1271  1119  3474               	retlw	116	;'t'
  1272  111A  3400               	retlw	0
  1273  111B                     STR_20:
  1274  111B  3453               	retlw	83	;'S'
  1275  111C  3475               	retlw	117	;'u'
  1276  111D  3463               	retlw	99	;'c'
  1277  111E  3463               	retlw	99	;'c'
  1278  111F  3465               	retlw	101	;'e'
  1279  1120  3473               	retlw	115	;'s'
  1280  1121  3473               	retlw	115	;'s'
  1281  1122  3466               	retlw	102	;'f'
  1282  1123  3475               	retlw	117	;'u'
  1283  1124  346C               	retlw	108	;'l'
  1284  1125  346C               	retlw	108	;'l'
  1285  1126  3479               	retlw	121	;'y'
  1286  1127  3400               	retlw	0
  1287  1128                     STR_14:
  1288  1128  3453               	retlw	83	;'S'
  1289  1129  3475               	retlw	117	;'u'
  1290  112A  3463               	retlw	99	;'c'
  1291  112B  3463               	retlw	99	;'c'
  1292  112C  3465               	retlw	101	;'e'
  1293  112D  3473               	retlw	115	;'s'
  1294  112E  3473               	retlw	115	;'s'
  1295  112F  3466               	retlw	102	;'f'
  1296  1130  3475               	retlw	117	;'u'
  1297  1131  346C               	retlw	108	;'l'
  1298  1132  3400               	retlw	0
  1299  1133                     STR_13:
  1300  1133  3443               	retlw	67	;'C'
  1301  1134  344C               	retlw	76	;'L'
  1302  1135  3445               	retlw	69	;'E'
  1303  1136  3441               	retlw	65	;'A'
  1304  1137  3452               	retlw	82	;'R'
  1305  1138  3420               	retlw	32	;' '
  1306  1139  344C               	retlw	76	;'L'
  1307  113A  344F               	retlw	79	;'O'
  1308  113B  3447               	retlw	71	;'G'
  1309  113C  3400               	retlw	0
  1310  113D                     STR_2:
  1311  113D  3443               	retlw	67	;'C'
  1312  113E  346C               	retlw	108	;'l'
  1313  113F  3465               	retlw	101	;'e'
  1314  1140  3461               	retlw	97	;'a'
  1315  1141  3472               	retlw	114	;'r'
  1316  1142  3420               	retlw	32	;' '
  1317  1143  344C               	retlw	76	;'L'
  1318  1144  346F               	retlw	111	;'o'
  1319  1145  3467               	retlw	103	;'g'
  1320  1146  3400               	retlw	0
  1321  1147                     STR_35:
  1322  1147  3448               	retlw	72	;'H'
  1323  1148  3448               	retlw	72	;'H'
  1324  1149  343A               	retlw	58	;':'
  1325  114A  344D               	retlw	77	;'M'
  1326  114B  344D               	retlw	77	;'M'
  1327  114C  343A               	retlw	58	;':'
  1328  114D  3453               	retlw	83	;'S'
  1329  114E  3453               	retlw	83	;'S'
  1330  114F  3400               	retlw	0
  1331  1150                     STR_4:
  1332  1150  3453               	retlw	83	;'S'
  1333  1151  3465               	retlw	101	;'e'
  1334  1152  3474               	retlw	116	;'t'
  1335  1153  3420               	retlw	32	;' '
  1336  1154  3454               	retlw	84	;'T'
  1337  1155  3469               	retlw	105	;'i'
  1338  1156  346D               	retlw	109	;'m'
  1339  1157  3465               	retlw	101	;'e'
  1340  1158  3400               	retlw	0
  1341  1159                     STR_1:
  1342  1159  3456               	retlw	86	;'V'
  1343  115A  3469               	retlw	105	;'i'
  1344  115B  3465               	retlw	101	;'e'
  1345  115C  3477               	retlw	119	;'w'
  1346  115D  3420               	retlw	32	;' '
  1347  115E  344C               	retlw	76	;'L'
  1348  115F  346F               	retlw	111	;'o'
  1349  1160  3467               	retlw	103	;'g'
  1350  1161  3400               	retlw	0
  1351  1162                     STR_28:
  1352  1162  3447               	retlw	71	;'G'
  1353  1163  3431               	retlw	49	;'1'
  1354  1164  3400               	retlw	0
  1355  1165                     STR_29:
  1356  1165  3447               	retlw	71	;'G'
  1357  1166  3432               	retlw	50	;'2'
  1358  1167  3400               	retlw	0
  1359  1168                     STR_30:
  1360  1168  3447               	retlw	71	;'G'
  1361  1169  3433               	retlw	51	;'3'
  1362  116A  3400               	retlw	0
  1363  116B                     STR_31:
  1364  116B  3447               	retlw	71	;'G'
  1365  116C  3434               	retlw	52	;'4'
  1366  116D  3400               	retlw	0
  1367  116E                     STR_32:
  1368  116E  3420               	retlw	32	;' '
  1369  116F  3443               	retlw	67	;'C'
  1370  1170  3400               	retlw	0
  1371  1171                     STR_37:
  1372  1171  3443               	retlw	67	;'C'
  1373  1172  344C               	retlw	76	;'L'
  1374  1173  3400               	retlw	0
  1375  1174                     STR_26:
  1376  1174  3447               	retlw	71	;'G'
  1377  1175  344E               	retlw	78	;'N'
  1378  1176  3400               	retlw	0
  1379  1177                     STR_27:
  1380  1177  3447               	retlw	71	;'G'
  1381  1178  3452               	retlw	82	;'R'
  1382  1179  3400               	retlw	0
  1383  1012                     
  1384                           	psect	cinit
  1385  0013                     start_initialization:	
  1386                           ; #config settings
  1387                           
  1388  0013                     __initialization:
  1389                           
  1390                           ; Initialize objects allocated to BANK3
  1391  0013  1783               	bsf	3,7	;select IRP bank2
  1392  0014  30AA               	movlw	low (__pdataBANK3+12)
  1393  0015  00FD               	movwf	btemp+-1
  1394  0016  301A               	movlw	high __pidataBANK3
  1395  0017  00FE               	movwf	btemp
  1396  0018  30F0               	movlw	low __pidataBANK3
  1397  0019  00FF               	movwf	btemp+1
  1398  001A  309E               	movlw	low __pdataBANK3
  1399  001B  0084               	movwf	4
  1400  001C  160A  158A  231F  120A  118A  	fcall	init_ram0
  1401                           
  1402                           ; Initialize objects allocated to BANK1
  1403  0021  1383               	bcf	3,7	;select IRP bank0
  1404  0022  30EE               	movlw	low (__pdataBANK1+19)
  1405  0023  00FD               	movwf	btemp+-1
  1406  0024  301B               	movlw	high __pidataBANK1
  1407  0025  00FE               	movwf	btemp
  1408  0026  302E               	movlw	low __pidataBANK1
  1409  0027  00FF               	movwf	btemp+1
  1410  0028  30DB               	movlw	low __pdataBANK1
  1411  0029  0084               	movwf	4
  1412  002A  160A  158A  231F  120A  118A  	fcall	init_ram0
  1413                           
  1414                           ; Initialize objects allocated to COMMON
  1415  002F  120A  118A  2003  120A  118A  	fcall	__pidataCOMMON	;fetch initializer
  1416  0034  00FA               	movwf	__pdataCOMMON& (0+127)
  1417                           
  1418                           ; Clear objects allocated to BANK1
  1419  0035  30A0               	movlw	low __pbssBANK1
  1420  0036  0084               	movwf	4
  1421  0037  30DB               	movlw	low (__pbssBANK1+59)
  1422  0038  160A  158A  22AC  120A  118A  	fcall	clear_ram0
  1423                           
  1424                           ; Clear objects allocated to BANK0
  1425  003D  3055               	movlw	low __pbssBANK0
  1426  003E  0084               	movwf	4
  1427  003F  3064               	movlw	low (__pbssBANK0+15)
  1428  0040  160A  158A  22AC  120A  118A  	fcall	clear_ram0
  1429                           
  1430                           ; Clear objects allocated to COMMON
  1431  0045  01F9               	clrf	__pbssCOMMON& (0+127)
  1432  0046                     end_of_initialization:	
  1433                           ;End of C runtime variable initialization code
  1434                           
  1435  0046                     __end_of__initialization:
  1436  0046  0183               	clrf	3
  1437  0047  120A  118A  284A   	ljmp	_main	;jump to C main() function
  1438                           
  1439                           	psect	bssCOMMON
  1440  0079                     __pbssCOMMON:
  1441  0079                     read_digital_keypad@pre_key:
  1442  0079                     	ds	1
  1443                           
  1444                           	psect	dataCOMMON
  1445  007A                     __pdataCOMMON:
  1446  007A                     read_digital_keypad@once:
  1447  007A                     	ds	1
  1448                           
  1449                           	psect	bssBANK0
  1450  0055                     __pbssBANK0:
  1451  0055                     _clock_reg:
  1452  0055                     	ds	3
  1453  0058                     confirm_change_password@i:
  1454  0058                     	ds	2
  1455  005A                     change_password@i:
  1456  005A                     	ds	2
  1457  005C                     login_menu@menu_pos:
  1458  005C                     	ds	2
  1459  005E                     _sec:
  1460  005E                     	ds	2
  1461  0060                     set_time@cursor_pos:
  1462  0060                     	ds	1
  1463  0061                     set_time@pos:
  1464  0061                     	ds	1
  1465  0062                     login@i:
  1466  0062                     	ds	1
  1467  0063                     read_digital_keypad@longpress:
  1468  0063                     	ds	1
  1469                           
  1470                           	psect	bssBANK1
  1471  00A0                     __pbssBANK1:
  1472  00A0                     _l_count:
  1473  00A0                     	ds	2
  1474  00A2                     isr@count:
  1475  00A2                     	ds	2
  1476  00A4                     set_time@num:
  1477  00A4                     	ds	2
  1478  00A6                     set_time@wait:
  1479  00A6                     	ds	2
  1480  00A8                     download_log@read_pos:
  1481  00A8                     	ds	2
  1482  00AA                     view_log@shift:
  1483  00AA                     	ds	2
  1484  00AC                     _flag:
  1485  00AC                     	ds	2
  1486  00AE                     _return_time:
  1487  00AE                     	ds	2
  1488  00B0                     _log_flag:
  1489  00B0                     	ds	1
  1490  00B1                     confirm_change_password@attempt_remaining:
  1491  00B1                     	ds	1
  1492  00B2                     set_time@flag:
  1493  00B2                     	ds	1
  1494  00B3                     set_time@set_flag:
  1495  00B3                     	ds	1
  1496  00B4                     login@attempt_remaining:
  1497  00B4                     	ds	1
  1498  00B5                     _overflow:
  1499  00B5                     	ds	1
  1500  00B6                     _log:
  1501  00B6                     	ds	11
  1502  00C1                     _time:
  1503  00C1                     	ds	7
  1504  00C8                     confirm_change_password@confirmed_password:
  1505  00C8                     	ds	5
  1506  00CD                     change_password@r_password:
  1507  00CD                     	ds	5
  1508  00D2                     _spassword:
  1509  00D2                     	ds	5
  1510  00D7                     login@npassword:
  1511  00D7                     	ds	4
  1512                           
  1513                           	psect	dataBANK1
  1514  00DB                     __pdataBANK1:
  1515  00DB                     _menu:
  1516  00DB                     	ds	10
  1517  00E5                     main@F1021:
  1518  00E5                     	ds	3
  1519  00E8                     login_menu@select_pos:
  1520  00E8                     	ds	2
  1521  00EA                     _access:
  1522  00EA                     	ds	2
  1523  00EC                     _pos:
  1524  00EC                     	ds	2
  1525                           
  1526                           	psect	dataBANK3
  1527  019E                     __pdataBANK3:
  1528  019E                     _gear:
  1529  019E                     	ds	12
  1530                           
  1531                           	psect	inittext
  1532  1B1B                     init_fetch0:	
  1533                           ;	Called with low address in FSR and high address in W
  1534                           
  1535  1B1B  087E               	movf	btemp,w
  1536  1B1C  008A               	movwf	10
  1537  1B1D  087F               	movf	btemp+1,w
  1538  1B1E  0082               	movwf	2
  1539  1B1F                     init_ram0:	
  1540                           ;Called with:
  1541                           ;	high address of idata address in btemp 
  1542                           ;	low address of idata address in btemp+1 
  1543                           ;	low address of data in FSR
  1544                           ;	high address + 1 of data in btemp-1
  1545                           
  1546  1B1F  160A  158A  231B  160A  158A  	fcall	init_fetch0
  1547  1B24  0080               	movwf	0
  1548  1B25  0A84               	incf	4,f
  1549  1B26  0804               	movf	4,w
  1550  1B27  067D               	xorwf	btemp+-1,w
  1551  1B28  1903               	btfsc	3,2
  1552  1B29  3400               	retlw	0
  1553  1B2A  0AFF               	incf	btemp+1,f
  1554  1B2B  1903               	btfsc	3,2
  1555  1B2C  0AFE               	incf	btemp,f
  1556  1B2D  2B1F               	goto	init_ram0
  1557                           
  1558                           	psect	clrtext
  1559  1AAC                     clear_ram0:	
  1560                           ;	Called with FSR containing the base address, and
  1561                           ;	W with the last address+1
  1562                           
  1563  1AAC  0064               	clrwdt	;clear the watchdog before getting into this loop
  1564  1AAD                     clrloop0:
  1565  1AAD  0180               	clrf	0	;clear RAM location pointed to by FSR
  1566  1AAE  0A84               	incf	4,f	;increment pointer
  1567  1AAF  0604               	xorwf	4,w	;XOR with final address
  1568  1AB0  1903               	btfsc	3,2	;have we reached the end yet?
  1569  1AB1  3400               	retlw	0	;all done for this memory range, return
  1570  1AB2  0604               	xorwf	4,w	;XOR again to restore value
  1571  1AB3  2AAD               	goto	clrloop0	;do the next byte
  1572                           
  1573                           	psect	cstackBANK3
  1574  0190                     __pcstackBANK3:
  1575  0190                     main@wait:
  1576                           
  1577                           ; 2 bytes @ 0x0
  1578  0190                     	ds	2
  1579  0192                     main@menu_pos:
  1580                           
  1581                           ; 2 bytes @ 0x2
  1582  0192                     	ds	2
  1583  0194                     main@event:
  1584                           
  1585                           ; 3 bytes @ 0x4
  1586  0194                     	ds	3
  1587  0197                     main@gr:
  1588                           
  1589                           ; 2 bytes @ 0x7
  1590  0197                     	ds	2
  1591  0199                     main@speed:
  1592                           
  1593                           ; 2 bytes @ 0x9
  1594  0199                     	ds	2
  1595  019B                     main@reset_flag:
  1596                           
  1597                           ; 1 bytes @ 0xB
  1598  019B                     	ds	1
  1599  019C                     main@control_flag:
  1600                           
  1601                           ; 1 bytes @ 0xC
  1602  019C                     	ds	1
  1603  019D                     main@key:
  1604                           
  1605                           ; 1 bytes @ 0xD
  1606  019D                     	ds	1
  1607                           
  1608                           	psect	cstackCOMMON
  1609  0070                     __pcstackCOMMON:
  1610  0070                     ?_i2c_start:
  1611  0070                     ?_i2c_write:	
  1612                           ; 1 bytes @ 0x0
  1613                           
  1614  0070                     ?_i2c_rep_start:	
  1615                           ; 1 bytes @ 0x0
  1616                           
  1617  0070                     ?_i2c_stop:	
  1618                           ; 1 bytes @ 0x0
  1619                           
  1620  0070                     ?_delay_ms:	
  1621                           ; 1 bytes @ 0x0
  1622                           
  1623  0070                     ?_read_ds1307:	
  1624                           ; 1 bytes @ 0x0
  1625                           
  1626  0070                     ?_get_time:	
  1627                           ; 1 bytes @ 0x0
  1628                           
  1629  0070                     ?_display_time:	
  1630                           ; 1 bytes @ 0x0
  1631                           
  1632  0070                     ?_putchar:	
  1633                           ; 1 bytes @ 0x0
  1634                           
  1635  0070                     ?_init_timer2:	
  1636                           ; 1 bytes @ 0x0
  1637                           
  1638  0070                     ?_init_adc:	
  1639                           ; 1 bytes @ 0x0
  1640                           
  1641  0070                     ?_eeprom_at24c04_random_read:	
  1642                           ; 1 bytes @ 0x0
  1643                           
  1644  0070                     ?_init_display_controller:	
  1645                           ; 1 bytes @ 0x0
  1646                           
  1647  0070                     ?_init_clcd:	
  1648                           ; 1 bytes @ 0x0
  1649                           
  1650  0070                     ?_init_digital_keypad:	
  1651                           ; 1 bytes @ 0x0
  1652                           
  1653  0070                     ?_read_digital_keypad:	
  1654                           ; 1 bytes @ 0x0
  1655                           
  1656  0070                     ?_init_ds1307:	
  1657                           ; 1 bytes @ 0x0
  1658                           
  1659  0070                     ?_get_password:	
  1660                           ; 1 bytes @ 0x0
  1661                           
  1662  0070                     ?_log_event:	
  1663                           ; 1 bytes @ 0x0
  1664                           
  1665  0070                     ?_clear_log:	
  1666                           ; 1 bytes @ 0x0
  1667                           
  1668  0070                     ?_download_log:	
  1669                           ; 1 bytes @ 0x0
  1670                           
  1671  0070                     ?_init_i2c:	
  1672                           ; 1 bytes @ 0x0
  1673                           
  1674  0070                     ?_i2c_wait_for_idle:	
  1675                           ; 1 bytes @ 0x0
  1676                           
  1677  0070                     ?_isr:	
  1678                           ; 1 bytes @ 0x0
  1679                           
  1680  0070                     ??_isr:	
  1681                           ; 1 bytes @ 0x0
  1682                           
  1683  0070                     ?_init_config:	
  1684                           ; 1 bytes @ 0x0
  1685                           
  1686  0070                     ?_main:	
  1687                           ; 1 bytes @ 0x0
  1688                           
  1689                           
  1690                           ; 1 bytes @ 0x0
  1691  0070                     	ds	3
  1692  0073                     ??_delay_ms:
  1693  0073                     ?_strncpy:	
  1694                           ; 1 bytes @ 0x3
  1695                           
  1696  0073                     ??_putchar:	
  1697                           ; 1 bytes @ 0x3
  1698                           
  1699  0073                     ??_init_timer2:	
  1700                           ; 1 bytes @ 0x3
  1701                           
  1702  0073                     ?_strcpy:	
  1703                           ; 1 bytes @ 0x3
  1704                           
  1705  0073                     ??_init_adc:	
  1706                           ; 1 bytes @ 0x3
  1707                           
  1708  0073                     ?_clcd_write:	
  1709                           ; 1 bytes @ 0x3
  1710                           
  1711  0073                     ??_init_digital_keypad:	
  1712                           ; 1 bytes @ 0x3
  1713                           
  1714  0073                     ??_read_digital_keypad:	
  1715                           ; 1 bytes @ 0x3
  1716                           
  1717  0073                     ??_init_i2c:	
  1718                           ; 1 bytes @ 0x3
  1719                           
  1720  0073                     ??_i2c_wait_for_idle:	
  1721                           ; 1 bytes @ 0x3
  1722                           
  1723  0073                     ?___bmul:	
  1724                           ; 1 bytes @ 0x3
  1725                           
  1726  0073                     ??___lldiv:	
  1727                           ; 1 bytes @ 0x3
  1728                           
  1729  0073                     ?_strncmp:	
  1730                           ; 1 bytes @ 0x3
  1731                           
  1732  0073                     ?__Umul8_16:	
  1733                           ; 2 bytes @ 0x3
  1734                           
  1735  0073                     ?_read_adc:	
  1736                           ; 2 bytes @ 0x3
  1737                           
  1738  0073                     ?___wmul:	
  1739                           ; 2 bytes @ 0x3
  1740                           
  1741  0073                     ?___awdiv:	
  1742                           ; 2 bytes @ 0x3
  1743                           
  1744  0073                     ?___awmod:	
  1745                           ; 2 bytes @ 0x3
  1746                           
  1747  0073                     ?___lwdiv:	
  1748                           ; 2 bytes @ 0x3
  1749                           
  1750  0073                     ?___lwmod:	
  1751                           ; 2 bytes @ 0x3
  1752                           
  1753  0073                     clcd_write@mode:	
  1754                           ; 2 bytes @ 0x3
  1755                           
  1756  0073                     putchar@data:	
  1757                           ; 1 bytes @ 0x3
  1758                           
  1759  0073                     ___bmul@multiplicand:	
  1760                           ; 1 bytes @ 0x3
  1761                           
  1762  0073                     __Umul8_16@multiplicand:	
  1763                           ; 1 bytes @ 0x3
  1764                           
  1765  0073                     strncmp@s2:	
  1766                           ; 1 bytes @ 0x3
  1767                           
  1768  0073                     ___wmul@multiplier:	
  1769                           ; 1 bytes @ 0x3
  1770                           
  1771  0073                     ___awdiv@divisor:	
  1772                           ; 2 bytes @ 0x3
  1773                           
  1774  0073                     ___awmod@divisor:	
  1775                           ; 2 bytes @ 0x3
  1776                           
  1777  0073                     ___lwdiv@divisor:	
  1778                           ; 2 bytes @ 0x3
  1779                           
  1780  0073                     ___lwmod@divisor:	
  1781                           ; 2 bytes @ 0x3
  1782                           
  1783  0073                     strcpy@from:	
  1784                           ; 2 bytes @ 0x3
  1785                           
  1786  0073                     strncpy@from:	
  1787                           ; 2 bytes @ 0x3
  1788                           
  1789                           
  1790                           ; 2 bytes @ 0x3
  1791  0073                     	ds	1
  1792  0074                     ?_puts:
  1793  0074                     ??_clcd_write:	
  1794                           ; 1 bytes @ 0x4
  1795                           
  1796  0074                     ??___bmul:	
  1797                           ; 1 bytes @ 0x4
  1798                           
  1799  0074                     delay_ms@count:	
  1800                           ; 1 bytes @ 0x4
  1801                           
  1802  0074                     read_digital_keypad@mode:	
  1803                           ; 1 bytes @ 0x4
  1804                           
  1805  0074                     puts@s:	
  1806                           ; 1 bytes @ 0x4
  1807                           
  1808  0074                     strncmp@len:	
  1809                           ; 2 bytes @ 0x4
  1810                           
  1811  0074                     ___lldiv@quotient:	
  1812                           ; 2 bytes @ 0x4
  1813                           
  1814                           
  1815                           ; 4 bytes @ 0x4
  1816  0074                     	ds	1
  1817  0075                     ??_strcpy:
  1818  0075                     ??__Umul8_16:	
  1819                           ; 1 bytes @ 0x5
  1820                           
  1821  0075                     ??_read_adc:	
  1822                           ; 1 bytes @ 0x5
  1823                           
  1824  0075                     delay_ms@i:	
  1825                           ; 1 bytes @ 0x5
  1826                           
  1827  0075                     ___bmul@product:	
  1828                           ; 1 bytes @ 0x5
  1829                           
  1830  0075                     read_adc@reg_val:	
  1831                           ; 1 bytes @ 0x5
  1832                           
  1833  0075                     ___wmul@multiplicand:	
  1834                           ; 2 bytes @ 0x5
  1835                           
  1836  0075                     ___awdiv@dividend:	
  1837                           ; 2 bytes @ 0x5
  1838                           
  1839  0075                     ___awmod@dividend:	
  1840                           ; 2 bytes @ 0x5
  1841                           
  1842  0075                     ___lwdiv@dividend:	
  1843                           ; 2 bytes @ 0x5
  1844                           
  1845  0075                     ___lwmod@dividend:	
  1846                           ; 2 bytes @ 0x5
  1847                           
  1848  0075                     strncpy@size:	
  1849                           ; 2 bytes @ 0x5
  1850                           
  1851                           
  1852                           ; 2 bytes @ 0x5
  1853  0075                     	ds	1
  1854  0076                     ??_strncmp:
  1855  0076                     ??_puts:	
  1856                           ; 1 bytes @ 0x6
  1857                           
  1858  0076                     clcd_write@byte:	
  1859                           ; 1 bytes @ 0x6
  1860                           
  1861  0076                     delay_ms@_dcnt:	
  1862                           ; 1 bytes @ 0x6
  1863                           
  1864  0076                     ___bmul@multiplier:	
  1865                           ; 1 bytes @ 0x6
  1866                           
  1867  0076                     strcpy@cp:	
  1868                           ; 1 bytes @ 0x6
  1869                           
  1870                           
  1871                           ; 1 bytes @ 0x6
  1872  0076                     	ds	1
  1873  0077                     ??_init_clcd:
  1874  0077                     ??_clcd_print:	
  1875                           ; 1 bytes @ 0x7
  1876                           
  1877  0077                     ??_clear_log:	
  1878                           ; 1 bytes @ 0x7
  1879                           
  1880  0077                     ??___wmul:	
  1881                           ; 1 bytes @ 0x7
  1882                           
  1883  0077                     ??___awdiv:	
  1884                           ; 1 bytes @ 0x7
  1885                           
  1886  0077                     ??___awmod:	
  1887                           ; 1 bytes @ 0x7
  1888                           
  1889  0077                     ??___lwdiv:	
  1890                           ; 1 bytes @ 0x7
  1891                           
  1892  0077                     ??___lwmod:	
  1893                           ; 1 bytes @ 0x7
  1894                           
  1895  0077                     ___fltol@sign1:	
  1896                           ; 1 bytes @ 0x7
  1897                           
  1898  0077                     strcpy@to:	
  1899                           ; 1 bytes @ 0x7
  1900                           
  1901  0077                     strncpy@to:	
  1902                           ; 1 bytes @ 0x7
  1903                           
  1904  0077                     ___wmul@product:	
  1905                           ; 1 bytes @ 0x7
  1906                           
  1907                           
  1908                           ; 2 bytes @ 0x7
  1909  0077                     	ds	1
  1910  0078                     ??_i2c_start:
  1911  0078                     ??_i2c_write:	
  1912                           ; 1 bytes @ 0x8
  1913                           
  1914  0078                     ??_i2c_rep_start:	
  1915                           ; 1 bytes @ 0x8
  1916                           
  1917  0078                     ??_i2c_stop:	
  1918                           ; 1 bytes @ 0x8
  1919                           
  1920  0078                     clear_log@reset_memory:	
  1921                           ; 1 bytes @ 0x8
  1922                           
  1923  0078                     i2c_write@i2c_write_data:	
  1924                           ; 1 bytes @ 0x8
  1925                           
  1926  0078                     ___lldiv@counter:	
  1927                           ; 1 bytes @ 0x8
  1928                           
  1929  0078                     ___fltol@exp1:	
  1930                           ; 1 bytes @ 0x8
  1931                           
  1932  0078                     ___lwmod@counter:	
  1933                           ; 1 bytes @ 0x8
  1934                           
  1935  0078                     strncmp@s1:	
  1936                           ; 1 bytes @ 0x8
  1937                           
  1938  0078                     strncpy@cp:	
  1939                           ; 1 bytes @ 0x8
  1940                           
  1941                           
  1942                           ; 1 bytes @ 0x8
  1943  0078                     	ds	1
  1944  0079                     ??_write_ds1307:
  1945  0079                     ??_eeprom_at24c04_byte_write:	
  1946                           ; 1 bytes @ 0x9
  1947                           
  1948  0079                     ??_clcd_putch:	
  1949                           ; 1 bytes @ 0x9
  1950                           
  1951  0079                     ??_init_config:	
  1952                           ; 1 bytes @ 0x9
  1953                           
  1954                           
  1955                           	psect	cstackBANK0
  1956  0020                     __pcstackBANK0:	
  1957                           ; 1 bytes @ 0x9
  1958                           
  1959  0020                     ?_write_ds1307:
  1960  0020                     ??_strncpy:	
  1961                           ; 1 bytes @ 0x0
  1962                           
  1963  0020                     ?_eeprom_at24c04_byte_write:	
  1964                           ; 1 bytes @ 0x0
  1965                           
  1966  0020                     ??_init_display_controller:	
  1967                           ; 1 bytes @ 0x0
  1968                           
  1969  0020                     ?_clcd_print:	
  1970                           ; 1 bytes @ 0x0
  1971                           
  1972  0020                     ?_i2c_read:	
  1973                           ; 1 bytes @ 0x0
  1974                           
  1975  0020                     ?___lldiv:	
  1976                           ; 2 bytes @ 0x0
  1977                           
  1978  0020                     ?___xxtofl:	
  1979                           ; 4 bytes @ 0x0
  1980                           
  1981  0020                     eeprom_at24c04_byte_write@data:	
  1982                           ; 4 bytes @ 0x0
  1983                           
  1984  0020                     write_ds1307@data:	
  1985                           ; 1 bytes @ 0x0
  1986                           
  1987  0020                     ___awdiv@counter:	
  1988                           ; 1 bytes @ 0x0
  1989                           
  1990  0020                     ___awmod@counter:	
  1991                           ; 1 bytes @ 0x0
  1992                           
  1993  0020                     ___lwdiv@counter:	
  1994                           ; 1 bytes @ 0x0
  1995                           
  1996  0020                     clcd_print@data:	
  1997                           ; 1 bytes @ 0x0
  1998                           
  1999  0020                     __Umul8_16@product:	
  2000                           ; 2 bytes @ 0x0
  2001                           
  2002  0020                     ___lldiv@divisor:	
  2003                           ; 2 bytes @ 0x0
  2004                           
  2005  0020                     ___xxtofl@val:	
  2006                           ; 4 bytes @ 0x0
  2007                           
  2008                           
  2009                           ; 4 bytes @ 0x0
  2010  0020                     	ds	1
  2011  0021                     eeprom_at24c04_byte_write@memory_loc:
  2012  0021                     write_ds1307@address:	
  2013                           ; 1 bytes @ 0x1
  2014                           
  2015  0021                     ___awdiv@sign:	
  2016                           ; 1 bytes @ 0x1
  2017                           
  2018  0021                     ___awmod@sign:	
  2019                           ; 1 bytes @ 0x1
  2020                           
  2021  0021                     ___lwdiv@quotient:	
  2022                           ; 1 bytes @ 0x1
  2023                           
  2024                           
  2025                           ; 2 bytes @ 0x1
  2026  0021                     	ds	1
  2027  0022                     ??_i2c_read:
  2028  0022                     ?_eeprom_at24c04_str_write:	
  2029                           ; 1 bytes @ 0x2
  2030                           
  2031  0022                     eeprom_at24c04_str_write@data:	
  2032                           ; 1 bytes @ 0x2
  2033                           
  2034  0022                     clcd_print@addr:	
  2035                           ; 1 bytes @ 0x2
  2036                           
  2037  0022                     ___awdiv@quotient:	
  2038                           ; 1 bytes @ 0x2
  2039                           
  2040  0022                     __Umul8_16@word_mpld:	
  2041                           ; 2 bytes @ 0x2
  2042                           
  2043                           
  2044                           ; 2 bytes @ 0x2
  2045  0022                     	ds	1
  2046  0023                     ??_eeprom_at24c04_str_write:
  2047                           
  2048                           ; 1 bytes @ 0x3
  2049  0023                     	ds	1
  2050  0024                     ?_clcd_putch:
  2051  0024                     ??___xxtofl:	
  2052                           ; 1 bytes @ 0x4
  2053                           
  2054  0024                     eeprom_at24c04_str_write@memory_loc:	
  2055                           ; 1 bytes @ 0x4
  2056                           
  2057  0024                     clcd_putch@addr:	
  2058                           ; 1 bytes @ 0x4
  2059                           
  2060  0024                     i2c_read@ack:	
  2061                           ; 1 bytes @ 0x4
  2062                           
  2063  0024                     __Umul8_16@multiplier:	
  2064                           ; 1 bytes @ 0x4
  2065                           
  2066  0024                     ___lldiv@dividend:	
  2067                           ; 1 bytes @ 0x4
  2068                           
  2069                           
  2070                           ; 4 bytes @ 0x4
  2071  0024                     	ds	1
  2072  0025                     ??_log_event:
  2073  0025                     clcd_putch@data:	
  2074                           ; 1 bytes @ 0x5
  2075                           
  2076  0025                     i2c_read@i2c_read_data:	
  2077                           ; 1 bytes @ 0x5
  2078                           
  2079                           
  2080                           ; 1 bytes @ 0x5
  2081  0025                     	ds	1
  2082  0026                     ??_read_ds1307:
  2083  0026                     ??_display_time:	
  2084                           ; 1 bytes @ 0x6
  2085                           
  2086  0026                     ?_confirm_change_password:	
  2087                           ; 1 bytes @ 0x6
  2088                           
  2089  0026                     ??_eeprom_at24c04_random_read:	
  2090                           ; 1 bytes @ 0x6
  2091                           
  2092  0026                     ?_login_menu:	
  2093                           ; 1 bytes @ 0x6
  2094                           
  2095  0026                     login_menu@reset_menu:	
  2096                           ; 2 bytes @ 0x6
  2097                           
  2098  0026                     confirm_change_password@changed_password:	
  2099                           ; 1 bytes @ 0x6
  2100                           
  2101                           
  2102                           ; 1 bytes @ 0x6
  2103  0026                     	ds	1
  2104  0027                     ??_confirm_change_password:
  2105  0027                     eeprom_at24c04_random_read@memory_loc:	
  2106                           ; 1 bytes @ 0x7
  2107                           
  2108  0027                     read_ds1307@address:	
  2109                           ; 1 bytes @ 0x7
  2110                           
  2111  0027                     log_event@addr:	
  2112                           ; 1 bytes @ 0x7
  2113                           
  2114                           
  2115                           ; 1 bytes @ 0x7
  2116  0027                     	ds	1
  2117  0028                     ?_init_uart:
  2118  0028                     ??_login_menu:	
  2119                           ; 1 bytes @ 0x8
  2120                           
  2121  0028                     eeprom_at24c04_random_read@received_data:	
  2122                           ; 1 bytes @ 0x8
  2123                           
  2124  0028                     read_ds1307@data:	
  2125                           ; 1 bytes @ 0x8
  2126                           
  2127  0028                     confirm_change_password@key:	
  2128                           ; 1 bytes @ 0x8
  2129                           
  2130  0028                     ___xxtofl@sign:	
  2131                           ; 1 bytes @ 0x8
  2132                           
  2133  0028                     init_uart@baud:	
  2134                           ; 1 bytes @ 0x8
  2135                           
  2136                           
  2137                           ; 4 bytes @ 0x8
  2138  0028                     	ds	1
  2139  0029                     ??_get_time:
  2140  0029                     ??_init_ds1307:	
  2141                           ; 1 bytes @ 0x9
  2142                           
  2143  0029                     ??_get_password:	
  2144                           ; 1 bytes @ 0x9
  2145                           
  2146  0029                     ?_view_log:	
  2147                           ; 1 bytes @ 0x9
  2148                           
  2149  0029                     ??_download_log:	
  2150                           ; 1 bytes @ 0x9
  2151                           
  2152  0029                     view_log@reset_shift:	
  2153                           ; 1 bytes @ 0x9
  2154                           
  2155  0029                     ___xxtofl@exp:	
  2156                           ; 1 bytes @ 0x9
  2157                           
  2158                           
  2159                           ; 1 bytes @ 0x9
  2160  0029                     	ds	1
  2161  002A                     ??_view_log:
  2162  002A                     init_ds1307@dummy:	
  2163                           ; 1 bytes @ 0xA
  2164                           
  2165  002A                     get_password@i:	
  2166                           ; 1 bytes @ 0xA
  2167                           
  2168  002A                     ___xxtofl@arg:	
  2169                           ; 2 bytes @ 0xA
  2170                           
  2171                           
  2172                           ; 4 bytes @ 0xA
  2173  002A                     	ds	1
  2174  002B                     ?_display_dash_board:
  2175  002B                     ?_log_car_event:	
  2176                           ; 1 bytes @ 0xB
  2177                           
  2178  002B                     ?_set_time:	
  2179                           ; 1 bytes @ 0xB
  2180                           
  2181  002B                     login_menu@key:	
  2182                           ; 1 bytes @ 0xB
  2183                           
  2184  002B                     set_time@reset_time:	
  2185                           ; 1 bytes @ 0xB
  2186                           
  2187  002B                     display_dash_board@speed:	
  2188                           ; 1 bytes @ 0xB
  2189                           
  2190  002B                     log_car_event@event:	
  2191                           ; 2 bytes @ 0xB
  2192                           
  2193  002B                     download_log@read_data:	
  2194                           ; 2 bytes @ 0xB
  2195                           
  2196                           
  2197                           ; 10 bytes @ 0xB
  2198  002B                     	ds	1
  2199  002C                     ??_init_uart:
  2200  002C                     ?_login:	
  2201                           ; 1 bytes @ 0xC
  2202                           
  2203  002C                     ??_set_time:	
  2204                           ; 1 bytes @ 0xC
  2205                           
  2206  002C                     ?_change_password:	
  2207                           ; 1 bytes @ 0xC
  2208                           
  2209  002C                     login@reset_password:	
  2210                           ; 1 bytes @ 0xC
  2211                           
  2212  002C                     change_password@reset_pwd:	
  2213                           ; 1 bytes @ 0xC
  2214                           
  2215  002C                     view_log@rlog:	
  2216                           ; 1 bytes @ 0xC
  2217                           
  2218                           
  2219                           ; 11 bytes @ 0xC
  2220  002C                     	ds	1
  2221  002D                     ??_display_dash_board:
  2222  002D                     ??_login:	
  2223                           ; 1 bytes @ 0xD
  2224                           
  2225  002D                     ??_change_password:	
  2226                           ; 1 bytes @ 0xD
  2227                           
  2228  002D                     log_car_event@speed:	
  2229                           ; 1 bytes @ 0xD
  2230                           
  2231                           
  2232                           ; 2 bytes @ 0xD
  2233  002D                     	ds	1
  2234  002E                     ?___flmul:
  2235  002E                     display_dash_board@event:	
  2236                           ; 4 bytes @ 0xE
  2237                           
  2238  002E                     login@key:	
  2239                           ; 1 bytes @ 0xE
  2240                           
  2241  002E                     set_time@key:	
  2242                           ; 1 bytes @ 0xE
  2243                           
  2244  002E                     change_password@key:	
  2245                           ; 1 bytes @ 0xE
  2246                           
  2247  002E                     ___flmul@b:	
  2248                           ; 1 bytes @ 0xE
  2249                           
  2250                           
  2251                           ; 4 bytes @ 0xE
  2252  002E                     	ds	1
  2253  002F                     ??_log_car_event:
  2254                           
  2255                           ; 1 bytes @ 0xF
  2256  002F                     	ds	3
  2257  0032                     ___flmul@a:
  2258                           
  2259                           ; 4 bytes @ 0x12
  2260  0032                     	ds	3
  2261  0035                     download_log@reset_download:
  2262                           
  2263                           ; 1 bytes @ 0x15
  2264  0035                     	ds	1
  2265  0036                     ??___flmul:
  2266  0036                     download_log@addr:	
  2267                           ; 1 bytes @ 0x16
  2268                           
  2269                           
  2270                           ; 2 bytes @ 0x16
  2271  0036                     	ds	1
  2272  0037                     view_log@add:
  2273                           
  2274                           ; 1 bytes @ 0x17
  2275  0037                     	ds	1
  2276  0038                     view_log@key:
  2277  0038                     download_log@i:	
  2278                           ; 1 bytes @ 0x18
  2279                           
  2280                           
  2281                           ; 2 bytes @ 0x18
  2282  0038                     	ds	1
  2283  0039                     view_log@rpos:
  2284                           
  2285                           ; 2 bytes @ 0x19
  2286  0039                     	ds	2
  2287  003B                     ___flmul@sign:
  2288  003B                     view_log@i:	
  2289                           ; 1 bytes @ 0x1B
  2290                           
  2291                           
  2292                           ; 2 bytes @ 0x1B
  2293  003B                     	ds	1
  2294  003C                     ___flmul@aexp:
  2295                           
  2296                           ; 1 bytes @ 0x1C
  2297  003C                     	ds	1
  2298  003D                     ___flmul@grs:
  2299                           
  2300                           ; 4 bytes @ 0x1D
  2301  003D                     	ds	4
  2302  0041                     ___flmul@bexp:
  2303                           
  2304                           ; 1 bytes @ 0x21
  2305  0041                     	ds	1
  2306  0042                     ___flmul@prod:
  2307                           
  2308                           ; 4 bytes @ 0x22
  2309  0042                     	ds	4
  2310  0046                     ___flmul@temp:
  2311                           
  2312                           ; 2 bytes @ 0x26
  2313  0046                     	ds	2
  2314  0048                     ?___fltol:
  2315  0048                     ___fltol@f1:	
  2316                           ; 4 bytes @ 0x28
  2317                           
  2318                           
  2319                           ; 4 bytes @ 0x28
  2320  0048                     	ds	4
  2321  004C                     ??___fltol:
  2322                           
  2323                           ; 1 bytes @ 0x2C
  2324  004C                     	ds	5
  2325  0051                     ??_main:
  2326                           
  2327                           ; 1 bytes @ 0x31
  2328  0051                     	ds	4
  2329                           
  2330                           	psect	maintext
  2331  004A                     __pmaintext:	
  2332 ;;
  2333 ;;Main: autosize = 0, tempsize = 4, incstack = 0, save=0
  2334 ;;
  2335 ;; *************** function _main *****************
  2336 ;; Defined at:
  2337 ;;		line 40 in file "main.c"
  2338 ;; Parameters:    Size  Location     Type
  2339 ;;		None
  2340 ;; Auto vars:     Size  Location     Type
  2341 ;;  wait            2    0[BANK3 ] unsigned int 
  2342 ;;  event           3    4[BANK3 ] unsigned char [3]
  2343 ;;  speed           2    9[BANK3 ] unsigned short 
  2344 ;;  gr              2    7[BANK3 ] int 
  2345 ;;  menu_pos        2    2[BANK3 ] int 
  2346 ;;  wait_time       2    0        int 
  2347 ;;  key             1   13[BANK3 ] unsigned char 
  2348 ;;  control_flag    1   12[BANK3 ] unsigned char 
  2349 ;;  reset_flag      1   11[BANK3 ] unsigned char 
  2350 ;; Return value:  Size  Location     Type
  2351 ;;                  1    wreg      void 
  2352 ;; Registers used:
  2353 ;;		wreg, fsr0l, fsr0h, status,2, status,0, btemp+1, pclath, cstack
  2354 ;; Tracked objects:
  2355 ;;		On entry : B00/0
  2356 ;;		On exit  : 0/0
  2357 ;;		Unchanged: 0/0
  2358 ;; Data sizes:     COMMON   BANK0   BANK1   BANK3   BANK2
  2359 ;;      Params:         0       0       0       0       0
  2360 ;;      Locals:         0       0       0      14       0
  2361 ;;      Temps:          0       4       0       0       0
  2362 ;;      Totals:         0       4       0      14       0
  2363 ;;Total ram usage:       18 bytes
  2364 ;; Hardware stack levels required when called: 7
  2365 ;; This function calls:
  2366 ;;		___flmul
  2367 ;;		___fltol
  2368 ;;		___xxtofl
  2369 ;;		_change_password
  2370 ;;		_clcd_print
  2371 ;;		_clcd_putch
  2372 ;;		_clcd_write
  2373 ;;		_clear_log
  2374 ;;		_display_dash_board
  2375 ;;		_download_log
  2376 ;;		_init_config
  2377 ;;		_log_car_event
  2378 ;;		_login
  2379 ;;		_login_menu
  2380 ;;		_read_adc
  2381 ;;		_read_digital_keypad
  2382 ;;		_set_time
  2383 ;;		_strcpy
  2384 ;;		_view_log
  2385 ;; This function is called by:
  2386 ;;		Startup code after reset
  2387 ;; This function uses a non-reentrant model
  2388 ;;
  2389                           
  2390                           
  2391                           ;psect for function _main
  2392  004A                     _main:
  2393  004A                     l6382:	
  2394                           ;incstack = 0
  2395                           ; Regs used in _main: [wreg-fsr0h+status,2+status,0+btemp+1+pclath+cstack]
  2396                           
  2397                           
  2398                           ;main.c: 42: 
  2399  004A  160A  158A  250C  120A  118A  	fcall	_init_config
  2400  004F                     l6384:
  2401                           
  2402                           ;main.c: 44:          if (key == 0x3E);main.c: 47:              log_car_event(event, spe
      +                          ed);
  2403  004F  1683               	bsf	3,5	;RP0=1, select bank1
  2404  0050  1303               	bcf	3,6	;RP1=0, select bank1
  2405  0051  0865               	movf	main@F1021^(0+128),w
  2406  0052  1683               	bsf	3,5	;RP0=1, select bank3
  2407  0053  1703               	bsf	3,6	;RP1=1, select bank3
  2408  0054  0094               	movwf	main@event^(0+384)
  2409  0055  1683               	bsf	3,5	;RP0=1, select bank1
  2410  0056  1303               	bcf	3,6	;RP1=0, select bank1
  2411  0057  0866               	movf	(main@F1021+1)^(0+128),w
  2412  0058  1683               	bsf	3,5	;RP0=1, select bank3
  2413  0059  1703               	bsf	3,6	;RP1=1, select bank3
  2414  005A  0095               	movwf	(main@event+1)^(0+384)
  2415  005B  1683               	bsf	3,5	;RP0=1, select bank1
  2416  005C  1303               	bcf	3,6	;RP1=0, select bank1
  2417  005D  0867               	movf	(main@F1021+2)^(0+128),w
  2418  005E  1683               	bsf	3,5	;RP0=1, select bank3
  2419  005F  1703               	bsf	3,6	;RP1=1, select bank3
  2420  0060  0096               	movwf	(main@event+2)^(0+384)
  2421  0061                     l6386:
  2422                           
  2423                           ;main.c: 48: 
  2424  0061  0197               	clrf	main@gr^(0+384)
  2425  0062  0198               	clrf	(main@gr+1)^(0+384)
  2426  0063                     l6388:
  2427  0063                     l6390:
  2428                           
  2429                           ;main.c: 50:          else if (key == 0x3D && gr < 5)
  2430  0063  019C               	clrf	main@control_flag^(0+384)
  2431  0064  0A9C               	incf	main@control_flag^(0+384),f
  2432  0065                     l6392:
  2433                           
  2434                           ;main.c: 51:          {
  2435  0065  019B               	clrf	main@reset_flag^(0+384)
  2436  0066                     l6394:
  2437                           
  2438                           ;main.c: 52:              gr++;
  2439  0066  0192               	clrf	main@menu_pos^(0+384)
  2440  0067  0193               	clrf	(main@menu_pos+1)^(0+384)
  2441  0068                     l6396:
  2442  0068                     l6398:
  2443                           
  2444                           ;main.c: 54:              log_car_event(event, speed);
  2445  0068  3094               	movlw	(low (main@event| (0+256)))& (0+255)
  2446  0069  1283               	bcf	3,5	;RP0=0, select bank0
  2447  006A  1303               	bcf	3,6	;RP1=0, select bank0
  2448  006B  00AB               	movwf	log_car_event@event
  2449  006C  3001               	movlw	1
  2450  006D  00AC               	movwf	log_car_event@event+1
  2451  006E  3000               	movlw	0
  2452  006F  00AD               	movwf	log_car_event@speed
  2453  0070  00AE               	movwf	log_car_event@speed+1
  2454  0071  160A  158A  27A6  120A  118A  	fcall	_log_car_event
  2455  0076                     l6400:
  2456                           
  2457                           ;main.c: 56:          else if (key == 0x3B && gr > 0);main.c: 57:          {
  2458  0076  3001               	movlw	1
  2459  0077  160A  118A  2220  120A  118A  	fcall	_read_digital_keypad
  2460  007C  1283               	bcf	3,5	;RP0=0, select bank0
  2461  007D  1303               	bcf	3,6	;RP1=0, select bank0
  2462  007E  00D1               	movwf	??_main
  2463  007F  0851               	movf	??_main,w
  2464  0080  1683               	bsf	3,5	;RP0=1, select bank3
  2465  0081  1703               	bsf	3,6	;RP1=1, select bank3
  2466  0082  009D               	movwf	main@key^(0+384)
  2467  0083                     l6402:
  2468                           
  2469                           ;main.c: 59:              strcpy(event, gear[gr]);
  2470  0083  30B8               	movlw	184
  2471  0084  0090               	movwf	main@wait^(0+384)
  2472  0085  300B               	movlw	11
  2473  0086  0091               	movwf	(main@wait^(0+384)+1)
  2474  0087                     l6404:
  2475  0087  3001               	movlw	1
  2476  0088  0290               	subwf	main@wait^(0+384),f
  2477  0089  3000               	movlw	0
  2478  008A  1C03               	skipc
  2479  008B  0391               	decf	(main@wait+1)^(0+384),f
  2480  008C  0291               	subwf	(main@wait+1)^(0+384),f
  2481  008D  0A10               	incf	main@wait^(0+384),w
  2482  008E  1D03               	skipz
  2483  008F  2894               	goto	u7691
  2484  0090  0A11               	incf	(main@wait+1)^(0+384),w
  2485  0091  1D03               	btfss	3,2
  2486  0092  2894               	goto	u7691
  2487  0093  2895               	goto	u7690
  2488  0094                     u7691:
  2489  0094  2887               	goto	l6404
  2490  0095                     u7690:
  2491  0095                     l6406:
  2492                           
  2493                           ;main.c: 64:              clcd_write(0x01, 0);
  2494  0095  160A  158A  2309  120A  118A  	fcall	_read_adc
  2495  009A  0873               	movf	?_read_adc,w
  2496  009B  1283               	bcf	3,5	;RP0=0, select bank0
  2497  009C  1303               	bcf	3,6	;RP1=0, select bank0
  2498  009D  00D1               	movwf	??_main
  2499  009E  0874               	movf	?_read_adc+1,w
  2500  009F  00D2               	movwf	??_main+1
  2501  00A0  01D3               	clrf	??_main+2
  2502  00A1  01D4               	clrf	??_main+3
  2503  00A2  0854               	movf	??_main+3,w
  2504  00A3  00A3               	movwf	___xxtofl@val+3
  2505  00A4  0853               	movf	??_main+2,w
  2506  00A5  00A2               	movwf	___xxtofl@val+2
  2507  00A6  0852               	movf	??_main+1,w
  2508  00A7  00A1               	movwf	___xxtofl@val+1
  2509  00A8  0851               	movf	??_main,w
  2510  00A9  00A0               	movwf	___xxtofl@val
  2511  00AA  3000               	movlw	0
  2512  00AB  160A  118A  2655  120A  118A  	fcall	___xxtofl
  2513  00B0  1283               	bcf	3,5	;RP0=0, select bank0
  2514  00B1  1303               	bcf	3,6	;RP1=0, select bank0
  2515  00B2  0823               	movf	?___xxtofl+3,w
  2516  00B3  00B5               	movwf	___flmul@a+3
  2517  00B4  0822               	movf	?___xxtofl+2,w
  2518  00B5  00B4               	movwf	___flmul@a+2
  2519  00B6  0821               	movf	?___xxtofl+1,w
  2520  00B7  00B3               	movwf	___flmul@a+1
  2521  00B8  0820               	movf	?___xxtofl,w
  2522  00B9  00B2               	movwf	___flmul@a
  2523  00BA  303D               	movlw	61
  2524  00BB  00B1               	movwf	___flmul@b+3
  2525  00BC  30C8               	movlw	200
  2526  00BD  00B0               	movwf	___flmul@b+2
  2527  00BE  3000               	movlw	0
  2528  00BF  00AF               	movwf	___flmul@b+1
  2529  00C0  3000               	movlw	0
  2530  00C1  00AE               	movwf	___flmul@b
  2531  00C2  120A  118A  2476  120A  118A  	fcall	___flmul
  2532  00C7  1283               	bcf	3,5	;RP0=0, select bank0
  2533  00C8  1303               	bcf	3,6	;RP1=0, select bank0
  2534  00C9  0831               	movf	?___flmul+3,w
  2535  00CA  00CB               	movwf	___fltol@f1+3
  2536  00CB  0830               	movf	?___flmul+2,w
  2537  00CC  00CA               	movwf	___fltol@f1+2
  2538  00CD  082F               	movf	?___flmul+1,w
  2539  00CE  00C9               	movwf	___fltol@f1+1
  2540  00CF  082E               	movf	?___flmul,w
  2541  00D0  00C8               	movwf	___fltol@f1
  2542  00D1  160A  118A  24A0  120A  118A  	fcall	___fltol
  2543  00D6  1283               	bcf	3,5	;RP0=0, select bank0
  2544  00D7  1303               	bcf	3,6	;RP1=0, select bank0
  2545  00D8  0849               	movf	?___fltol+1,w
  2546  00D9  1683               	bsf	3,5	;RP0=1, select bank3
  2547  00DA  1703               	bsf	3,6	;RP1=1, select bank3
  2548  00DB  009A               	movwf	(main@speed+1)^(0+384)
  2549  00DC  1283               	bcf	3,5	;RP0=0, select bank0
  2550  00DD  1303               	bcf	3,6	;RP1=0, select bank0
  2551  00DE  0848               	movf	?___fltol,w
  2552  00DF  1683               	bsf	3,5	;RP0=1, select bank3
  2553  00E0  1703               	bsf	3,6	;RP1=1, select bank3
  2554  00E1  0099               	movwf	main@speed^(0+384)
  2555  00E2                     l6408:
  2556                           
  2557                           ;main.c: 65:              clcd_print(" Enter Password ", (0x80 + (0)));
  2558  00E2  303E               	movlw	62
  2559  00E3  061D               	xorwf	main@key^(0+384),w
  2560  00E4  1D03               	btfss	3,2
  2561  00E5  28E7               	goto	u7701
  2562  00E6  28E8               	goto	u7700
  2563  00E7                     u7701:
  2564  00E7  290A               	goto	l6412
  2565  00E8                     u7700:
  2566  00E8                     l6410:
  2567                           
  2568                           ;main.c: 66:              clcd_putch(' ', (0xC0 + (0)));;main.c: 67:              clcd_w
      +                          rite(0x0F, 0);
  2569  00E8  306E               	movlw	low (STR_32| (0+32768))
  2570  00E9  00F3               	movwf	strcpy@from
  2571  00EA  3091               	movlw	high (STR_32| (0+32768))
  2572  00EB  00F4               	movwf	strcpy@from+1
  2573  00EC  3094               	movlw	(low (main@event| (0+256)))& (0+255)
  2574  00ED  160A  158A  2492  120A  118A  	fcall	_strcpy
  2575                           
  2576                           ;main.c: 68:              reset_flag = 0x01;
  2577  00F2  3094               	movlw	(low (main@event| (0+256)))& (0+255)
  2578  00F3  1283               	bcf	3,5	;RP0=0, select bank0
  2579  00F4  1303               	bcf	3,6	;RP1=0, select bank0
  2580  00F5  00AB               	movwf	log_car_event@event
  2581  00F6  3001               	movlw	1
  2582  00F7  00AC               	movwf	log_car_event@event+1
  2583  00F8  1683               	bsf	3,5	;RP0=1, select bank3
  2584  00F9  1703               	bsf	3,6	;RP1=1, select bank3
  2585  00FA  081A               	movf	(main@speed+1)^(0+384),w
  2586  00FB  1283               	bcf	3,5	;RP0=0, select bank0
  2587  00FC  1303               	bcf	3,6	;RP1=0, select bank0
  2588  00FD  00AE               	movwf	log_car_event@speed+1
  2589  00FE  1683               	bsf	3,5	;RP0=1, select bank3
  2590  00FF  1703               	bsf	3,6	;RP1=1, select bank3
  2591  0100  0819               	movf	main@speed^(0+384),w
  2592  0101  1283               	bcf	3,5	;RP0=0, select bank0
  2593  0102  1303               	bcf	3,6	;RP1=0, select bank0
  2594  0103  00AD               	movwf	log_car_event@speed
  2595  0104  160A  158A  27A6  120A  118A  	fcall	_log_car_event
  2596                           
  2597                           ;main.c: 70: 
  2598  0109  2C49               	goto	l6588
  2599  010A                     l6412:
  2600  010A  303D               	movlw	61
  2601  010B  061D               	xorwf	main@key^(0+384),w
  2602  010C  1D03               	btfss	3,2
  2603  010D  290F               	goto	u7711
  2604  010E  2910               	goto	u7710
  2605  010F                     u7711:
  2606  010F  2951               	goto	l6422
  2607  0110                     u7710:
  2608  0110                     l6414:
  2609  0110  0818               	movf	(main@gr+1)^(0+384),w
  2610  0111  3A80               	xorlw	128
  2611  0112  00FF               	movwf	btemp+1
  2612  0113  3080               	movlw	128
  2613  0114  027F               	subwf	btemp+1,w
  2614  0115  1D03               	skipz
  2615  0116  2919               	goto	u7725
  2616  0117  3005               	movlw	5
  2617  0118  0217               	subwf	main@gr^(0+384),w
  2618  0119                     u7725:
  2619  0119  1803               	skipnc
  2620  011A  291C               	goto	u7721
  2621  011B  291D               	goto	u7720
  2622  011C                     u7721:
  2623  011C  2951               	goto	l6422
  2624  011D                     u7720:
  2625  011D                     l6416:
  2626                           
  2627                           ;main.c: 72:          };main.c: 73:          else if (key == 0xB7 && control_flag == 0x0
      +                          4)
  2628  011D  3001               	movlw	1
  2629  011E  1683               	bsf	3,5	;RP0=1, select bank3
  2630  011F  1703               	bsf	3,6	;RP1=1, select bank3
  2631  0120  0797               	addwf	main@gr^(0+384),f
  2632  0121  1803               	skipnc
  2633  0122  0A98               	incf	(main@gr+1)^(0+384),f
  2634  0123  3000               	movlw	0
  2635  0124  0798               	addwf	(main@gr+1)^(0+384),f
  2636  0125                     l6418:
  2637                           
  2638                           ;main.c: 74:          {
  2639  0125  0817               	movf	main@gr^(0+384),w
  2640  0126  1283               	bcf	3,5	;RP0=0, select bank0
  2641  0127  1303               	bcf	3,6	;RP1=0, select bank0
  2642  0128  00D1               	movwf	??_main
  2643  0129  0751               	addwf	??_main,w
  2644  012A  3E9E               	addlw	(low (_gear| (0+256)))& (0+255)
  2645  012B  0084               	movwf	4
  2646  012C  1783               	bsf	3,7	;select IRP bank3
  2647  012D  0800               	movf	0,w
  2648  012E  00F3               	movwf	strcpy@from
  2649  012F  0A84               	incf	4,f
  2650  0130  0800               	movf	0,w
  2651  0131  0384               	decf	4,f
  2652  0132  00F4               	movwf	strcpy@from+1
  2653  0133  3094               	movlw	(low (main@event| (0+256)))& (0+255)
  2654  0134  160A  158A  2492  120A  118A  	fcall	_strcpy
  2655  0139                     l6420:
  2656                           
  2657                           ;main.c: 75:              switch(menu_pos)
  2658  0139  3094               	movlw	(low (main@event| (0+256)))& (0+255)
  2659  013A  1283               	bcf	3,5	;RP0=0, select bank0
  2660  013B  1303               	bcf	3,6	;RP1=0, select bank0
  2661  013C  00AB               	movwf	log_car_event@event
  2662  013D  3001               	movlw	1
  2663  013E  00AC               	movwf	log_car_event@event+1
  2664  013F  1683               	bsf	3,5	;RP0=1, select bank3
  2665  0140  1703               	bsf	3,6	;RP1=1, select bank3
  2666  0141  081A               	movf	(main@speed+1)^(0+384),w
  2667  0142  1283               	bcf	3,5	;RP0=0, select bank0
  2668  0143  1303               	bcf	3,6	;RP1=0, select bank0
  2669  0144  00AE               	movwf	log_car_event@speed+1
  2670  0145  1683               	bsf	3,5	;RP0=1, select bank3
  2671  0146  1703               	bsf	3,6	;RP1=1, select bank3
  2672  0147  0819               	movf	main@speed^(0+384),w
  2673  0148  1283               	bcf	3,5	;RP0=0, select bank0
  2674  0149  1303               	bcf	3,6	;RP1=0, select bank0
  2675  014A  00AD               	movwf	log_car_event@speed
  2676  014B  160A  158A  27A6  120A  118A  	fcall	_log_car_event
  2677                           
  2678                           ;main.c: 76:              {
  2679  0150  2C49               	goto	l6588
  2680  0151                     l6422:
  2681  0151  303B               	movlw	59
  2682  0152  1683               	bsf	3,5	;RP0=1, select bank3
  2683  0153  1703               	bsf	3,6	;RP1=1, select bank3
  2684  0154  061D               	xorwf	main@key^(0+384),w
  2685  0155  1D03               	btfss	3,2
  2686  0156  2958               	goto	u7731
  2687  0157  2959               	goto	u7730
  2688  0158                     u7731:
  2689  0158  2983               	goto	l6432
  2690  0159                     u7730:
  2691  0159                     l6424:
  2692  0159  0818               	movf	(main@gr+1)^(0+384),w
  2693  015A  3A80               	xorlw	128
  2694  015B  00FF               	movwf	btemp+1
  2695  015C  3080               	movlw	128
  2696  015D  027F               	subwf	btemp+1,w
  2697  015E  1D03               	skipz
  2698  015F  2962               	goto	u7745
  2699  0160  3001               	movlw	1
  2700  0161  0217               	subwf	main@gr^(0+384),w
  2701  0162                     u7745:
  2702  0162  1C03               	skipc
  2703  0163  2965               	goto	u7741
  2704  0164  2966               	goto	u7740
  2705  0165                     u7741:
  2706  0165  2983               	goto	l6432
  2707  0166                     u7740:
  2708  0166                     l6426:
  2709                           
  2710                           ;main.c: 78:                  case 0:;main.c: 79:                      clcd_write(0x01, 
      +                          0);
  2711  0166  30FF               	movlw	255
  2712  0167  1683               	bsf	3,5	;RP0=1, select bank3
  2713  0168  1703               	bsf	3,6	;RP1=1, select bank3
  2714  0169  0797               	addwf	main@gr^(0+384),f
  2715  016A  1803               	skipnc
  2716  016B  0A98               	incf	(main@gr+1)^(0+384),f
  2717  016C  30FF               	movlw	255
  2718  016D  0798               	addwf	(main@gr+1)^(0+384),f
  2719  016E                     l6428:
  2720                           
  2721                           ;main.c: 80:                      clcd_print("# TIME   EVNT SP", (0x80 + (0)));
  2722  016E  0817               	movf	main@gr^(0+384),w
  2723  016F  1283               	bcf	3,5	;RP0=0, select bank0
  2724  0170  1303               	bcf	3,6	;RP1=0, select bank0
  2725  0171  00D1               	movwf	??_main
  2726  0172  0751               	addwf	??_main,w
  2727  0173  3E9E               	addlw	(low (_gear| (0+256)))& (0+255)
  2728  0174  0084               	movwf	4
  2729  0175  1783               	bsf	3,7	;select IRP bank3
  2730  0176  0800               	movf	0,w
  2731  0177  00F3               	movwf	strcpy@from
  2732  0178  0A84               	incf	4,f
  2733  0179  0800               	movf	0,w
  2734  017A  0384               	decf	4,f
  2735  017B  00F4               	movwf	strcpy@from+1
  2736  017C  3094               	movlw	(low (main@event| (0+256)))& (0+255)
  2737  017D  160A  158A  2492  120A  118A  	fcall	_strcpy
  2738  0182  2939               	goto	l6420
  2739  0183                     l6432:
  2740  0183  3037               	movlw	55
  2741  0184  1683               	bsf	3,5	;RP0=1, select bank3
  2742  0185  1703               	bsf	3,6	;RP1=1, select bank3
  2743  0186  061D               	xorwf	main@key^(0+384),w
  2744  0187  1D03               	btfss	3,2
  2745  0188  298A               	goto	u7751
  2746  0189  298B               	goto	u7750
  2747  018A                     u7751:
  2748  018A  29C9               	goto	l6450
  2749  018B                     u7750:
  2750  018B                     l6434:
  2751  018B  031C               	decf	main@control_flag^(0+384),w
  2752  018C  1D03               	btfss	3,2
  2753  018D  298F               	goto	u7761
  2754  018E  2990               	goto	u7760
  2755  018F                     u7761:
  2756  018F  29C9               	goto	l6450
  2757  0190                     u7760:
  2758  0190                     l6436:
  2759                           
  2760                           ;main.c: 84: ;main.c: 85:                  case 1:
  2761  0190  01F3               	clrf	clcd_write@mode
  2762  0191  3001               	movlw	1
  2763  0192  160A  158A  23E0  120A  118A  	fcall	_clcd_write
  2764  0197                     l6438:
  2765                           
  2766                           ;main.c: 86:                      clcd_write(0x01, 0);
  2767  0197  3039               	movlw	low (STR_33| (0+32768))
  2768  0198  1283               	bcf	3,5	;RP0=0, select bank0
  2769  0199  1303               	bcf	3,6	;RP1=0, select bank0
  2770  019A  00A0               	movwf	clcd_print@data
  2771  019B  3090               	movlw	high (STR_33| (0+32768))
  2772  019C  00A1               	movwf	clcd_print@data+1
  2773  019D  3080               	movlw	128
  2774  019E  00D1               	movwf	??_main
  2775  019F  0851               	movf	??_main,w
  2776  01A0  00A2               	movwf	clcd_print@addr
  2777  01A1  160A  158A  256E  120A  118A  	fcall	_clcd_print
  2778  01A6                     l6440:
  2779                           
  2780                           ;main.c: 87:                      reset_flag = 0x04;
  2781  01A6  30C0               	movlw	192
  2782  01A7  1283               	bcf	3,5	;RP0=0, select bank0
  2783  01A8  1303               	bcf	3,6	;RP1=0, select bank0
  2784  01A9  00D1               	movwf	??_main
  2785  01AA  0851               	movf	??_main,w
  2786  01AB  00A4               	movwf	clcd_putch@addr
  2787  01AC  3020               	movlw	32
  2788  01AD  160A  158A  2355  120A  118A  	fcall	_clcd_putch
  2789  01B2                     l6442:
  2790                           
  2791                           ;main.c: 88:                      control_flag = 0x10;
  2792  01B2  01F3               	clrf	clcd_write@mode
  2793  01B3  300F               	movlw	15
  2794  01B4  160A  158A  23E0  120A  118A  	fcall	_clcd_write
  2795  01B9                     l6444:
  2796                           
  2797                           ;main.c: 89:                      TMR2ON = 1;
  2798  01B9  1683               	bsf	3,5	;RP0=1, select bank3
  2799  01BA  1703               	bsf	3,6	;RP1=1, select bank3
  2800  01BB  019B               	clrf	main@reset_flag^(0+384)
  2801  01BC  0A9B               	incf	main@reset_flag^(0+384),f
  2802  01BD                     l6446:
  2803                           
  2804                           ;main.c: 90:                      break;
  2805  01BD  3002               	movlw	2
  2806  01BE  1283               	bcf	3,5	;RP0=0, select bank0
  2807  01BF  1303               	bcf	3,6	;RP1=0, select bank0
  2808  01C0  00D1               	movwf	??_main
  2809  01C1  0851               	movf	??_main,w
  2810  01C2  1683               	bsf	3,5	;RP0=1, select bank3
  2811  01C3  1703               	bsf	3,6	;RP1=1, select bank3
  2812  01C4  009C               	movwf	main@control_flag^(0+384)
  2813  01C5                     l6448:
  2814                           
  2815                           ;main.c: 92:                  case 2:
  2816  01C5  1283               	bcf	3,5	;RP0=0, select bank0
  2817  01C6  1303               	bcf	3,6	;RP1=0, select bank0
  2818  01C7  1512               	bsf	18,2	;volatile
  2819                           
  2820                           ;main.c: 93:                      clcd_write(0x01, 0);
  2821  01C8  2C49               	goto	l6588
  2822  01C9                     l6450:
  2823  01C9  30B7               	movlw	183
  2824  01CA  061D               	xorwf	main@key^(0+384),w
  2825  01CB  1D03               	btfss	3,2
  2826  01CC  29CE               	goto	u7771
  2827  01CD  29CF               	goto	u7770
  2828  01CE                     u7771:
  2829  01CE  2AA0               	goto	l6506
  2830  01CF                     u7770:
  2831  01CF                     l6452:
  2832  01CF  3004               	movlw	4
  2833  01D0  061C               	xorwf	main@control_flag^(0+384),w
  2834  01D1  1D03               	btfss	3,2
  2835  01D2  29D4               	goto	u7781
  2836  01D3  29D5               	goto	u7780
  2837  01D4                     u7781:
  2838  01D4  2AA0               	goto	l6506
  2839  01D5                     u7780:
  2840  01D5  2A8A               	goto	l6504
  2841  01D6                     l6456:
  2842                           
  2843                           ;main.c: 100:                      clcd_write(0x01, 0);
  2844  01D6  01F3               	clrf	clcd_write@mode
  2845  01D7  3001               	movlw	1
  2846  01D8  160A  158A  23E0  120A  118A  	fcall	_clcd_write
  2847  01DD                     l6458:
  2848                           
  2849                           ;main.c: 101:                      clcd_print("HH:MM:SS", (0x80 + (0)));
  2850  01DD  304A               	movlw	low (STR_34| (0+32768))
  2851  01DE  1283               	bcf	3,5	;RP0=0, select bank0
  2852  01DF  1303               	bcf	3,6	;RP1=0, select bank0
  2853  01E0  00A0               	movwf	clcd_print@data
  2854  01E1  3090               	movlw	high (STR_34| (0+32768))
  2855  01E2  00A1               	movwf	clcd_print@data+1
  2856  01E3  3080               	movlw	128
  2857  01E4  00D1               	movwf	??_main
  2858  01E5  0851               	movf	??_main,w
  2859  01E6  00A2               	movwf	clcd_print@addr
  2860  01E7  160A  158A  256E  120A  118A  	fcall	_clcd_print
  2861  01EC                     l6460:
  2862                           
  2863                           ;main.c: 102:                      reset_flag = 0x10;
  2864  01EC  3008               	movlw	8
  2865  01ED  1283               	bcf	3,5	;RP0=0, select bank0
  2866  01EE  1303               	bcf	3,6	;RP1=0, select bank0
  2867  01EF  00D1               	movwf	??_main
  2868  01F0  0851               	movf	??_main,w
  2869  01F1  1683               	bsf	3,5	;RP0=1, select bank3
  2870  01F2  1703               	bsf	3,6	;RP1=1, select bank3
  2871  01F3  009B               	movwf	main@reset_flag^(0+384)
  2872  01F4                     l6462:
  2873                           
  2874                           ;main.c: 103:                      control_flag = 0x40;
  2875  01F4  3008               	movlw	8
  2876  01F5  1283               	bcf	3,5	;RP0=0, select bank0
  2877  01F6  1303               	bcf	3,6	;RP1=0, select bank0
  2878  01F7  00D1               	movwf	??_main
  2879  01F8  0851               	movf	??_main,w
  2880  01F9  1683               	bsf	3,5	;RP0=1, select bank3
  2881  01FA  1703               	bsf	3,6	;RP1=1, select bank3
  2882  01FB  009C               	movwf	main@control_flag^(0+384)
  2883                           
  2884                           ;main.c: 104:                      break;
  2885  01FC  2C49               	goto	l6588
  2886  01FD                     l6464:
  2887                           
  2888                           ;main.c: 107: 
  2889  01FD  01F3               	clrf	clcd_write@mode
  2890  01FE  3001               	movlw	1
  2891  01FF  160A  158A  23E0  120A  118A  	fcall	_clcd_write
  2892  0204                     l6466:
  2893                           
  2894                           ;main.c: 108:                      clcd_write(0x01, 0);
  2895  0204  3004               	movlw	4
  2896  0205  1283               	bcf	3,5	;RP0=0, select bank0
  2897  0206  1303               	bcf	3,6	;RP1=0, select bank0
  2898  0207  00D1               	movwf	??_main
  2899  0208  0851               	movf	??_main,w
  2900  0209  1683               	bsf	3,5	;RP0=1, select bank3
  2901  020A  1703               	bsf	3,6	;RP1=1, select bank3
  2902  020B  009B               	movwf	main@reset_flag^(0+384)
  2903  020C                     l6468:
  2904                           
  2905                           ;main.c: 109:                      clcd_print("Enter New Passwd ", (0x80 + (0)));
  2906  020C  3010               	movlw	16
  2907  020D  1283               	bcf	3,5	;RP0=0, select bank0
  2908  020E  1303               	bcf	3,6	;RP1=0, select bank0
  2909  020F  00D1               	movwf	??_main
  2910  0210  0851               	movf	??_main,w
  2911  0211  1683               	bsf	3,5	;RP0=1, select bank3
  2912  0212  1703               	bsf	3,6	;RP1=1, select bank3
  2913  0213  009C               	movwf	main@control_flag^(0+384)
  2914  0214  29C5               	goto	l6448
  2915  0215                     l6472:
  2916                           
  2917                           ;main.c: 114:                      TMR2ON = 1;
  2918  0215  01F3               	clrf	clcd_write@mode
  2919  0216  3001               	movlw	1
  2920  0217  160A  158A  23E0  120A  118A  	fcall	_clcd_write
  2921  021C                     l6474:
  2922                           
  2923                           ;main.c: 115:                      break;
  2924  021C  3003               	movlw	3
  2925  021D  1283               	bcf	3,5	;RP0=0, select bank0
  2926  021E  1303               	bcf	3,6	;RP1=0, select bank0
  2927  021F  00D1               	movwf	??_main
  2928  0220  0851               	movf	??_main,w
  2929  0221  1683               	bsf	3,5	;RP0=1, select bank3
  2930  0222  1703               	bsf	3,6	;RP1=1, select bank3
  2931  0223  009B               	movwf	main@reset_flag^(0+384)
  2932  0224                     l6476:
  2933                           
  2934                           ;main.c: 116:              }
  2935  0224  3020               	movlw	32
  2936  0225  1283               	bcf	3,5	;RP0=0, select bank0
  2937  0226  1303               	bcf	3,6	;RP1=0, select bank0
  2938  0227  00D1               	movwf	??_main
  2939  0228  0851               	movf	??_main,w
  2940  0229  1683               	bsf	3,5	;RP0=1, select bank3
  2941  022A  1703               	bsf	3,6	;RP1=1, select bank3
  2942  022B  009C               	movwf	main@control_flag^(0+384)
  2943  022C  29C5               	goto	l6448
  2944  022D                     l6480:
  2945                           
  2946                           ;main.c: 121:          {
  2947  022D  01F3               	clrf	clcd_write@mode
  2948  022E  3001               	movlw	1
  2949  022F  160A  158A  23E0  120A  118A  	fcall	_clcd_write
  2950  0234                     l6482:
  2951                           
  2952                           ;main.c: 122:              clcd_write(0x01, 0);
  2953  0234  3047               	movlw	low (STR_35| (0+32768))
  2954  0235  1283               	bcf	3,5	;RP0=0, select bank0
  2955  0236  1303               	bcf	3,6	;RP1=0, select bank0
  2956  0237  00A0               	movwf	clcd_print@data
  2957  0238  3091               	movlw	high (STR_35| (0+32768))
  2958  0239  00A1               	movwf	clcd_print@data+1
  2959  023A  3080               	movlw	128
  2960  023B  00D1               	movwf	??_main
  2961  023C  0851               	movf	??_main,w
  2962  023D  00A2               	movwf	clcd_print@addr
  2963  023E  160A  158A  256E  120A  118A  	fcall	_clcd_print
  2964  0243                     l6484:
  2965                           
  2966                           ;main.c: 123:              clcd_write(0x0C, 0);
  2967  0243  3010               	movlw	16
  2968  0244  1283               	bcf	3,5	;RP0=0, select bank0
  2969  0245  1303               	bcf	3,6	;RP1=0, select bank0
  2970  0246  00D1               	movwf	??_main
  2971  0247  0851               	movf	??_main,w
  2972  0248  1683               	bsf	3,5	;RP0=1, select bank3
  2973  0249  1703               	bsf	3,6	;RP1=1, select bank3
  2974  024A  009B               	movwf	main@reset_flag^(0+384)
  2975  024B                     l6486:
  2976                           
  2977                           ;main.c: 124: 
  2978  024B  3040               	movlw	64
  2979  024C  1283               	bcf	3,5	;RP0=0, select bank0
  2980  024D  1303               	bcf	3,6	;RP1=0, select bank0
  2981  024E  00D1               	movwf	??_main
  2982  024F  0851               	movf	??_main,w
  2983  0250  1683               	bsf	3,5	;RP0=1, select bank3
  2984  0251  1703               	bsf	3,6	;RP1=1, select bank3
  2985  0252  009C               	movwf	main@control_flag^(0+384)
  2986                           
  2987                           ;main.c: 125:              control_flag = 0x01;
  2988  0253  2C49               	goto	l6588
  2989  0254                     l6488:
  2990                           
  2991                           ;main.c: 129:              clcd_write(0x01, 0);
  2992  0254  01F3               	clrf	clcd_write@mode
  2993  0255  3001               	movlw	1
  2994  0256  160A  158A  23E0  120A  118A  	fcall	_clcd_write
  2995  025B                     l6490:
  2996                           
  2997                           ;main.c: 130:              clcd_write(0x0C, 0);
  2998  025B  3015               	movlw	low (STR_36| (0+32768))
  2999  025C  1283               	bcf	3,5	;RP0=0, select bank0
  3000  025D  1303               	bcf	3,6	;RP1=0, select bank0
  3001  025E  00A0               	movwf	clcd_print@data
  3002  025F  3090               	movlw	high (STR_36| (0+32768))
  3003  0260  00A1               	movwf	clcd_print@data+1
  3004  0261  3080               	movlw	128
  3005  0262  00D1               	movwf	??_main
  3006  0263  0851               	movf	??_main,w
  3007  0264  00A2               	movwf	clcd_print@addr
  3008  0265  160A  158A  256E  120A  118A  	fcall	_clcd_print
  3009  026A                     l6492:
  3010                           
  3011                           ;main.c: 131:              control_flag = 0x04;
  3012  026A  30C0               	movlw	192
  3013  026B  1283               	bcf	3,5	;RP0=0, select bank0
  3014  026C  1303               	bcf	3,6	;RP1=0, select bank0
  3015  026D  00D1               	movwf	??_main
  3016  026E  0851               	movf	??_main,w
  3017  026F  00A4               	movwf	clcd_putch@addr
  3018  0270  3020               	movlw	32
  3019  0271  160A  158A  2355  120A  118A  	fcall	_clcd_putch
  3020  0276                     l6494:
  3021                           
  3022                           ;main.c: 132:              reset_flag = 0x02;
  3023  0276  01F3               	clrf	clcd_write@mode
  3024  0277  300F               	movlw	15
  3025  0278  160A  158A  23E0  120A  118A  	fcall	_clcd_write
  3026  027D                     l6496:
  3027                           
  3028                           ;main.c: 133:          }
  3029  027D  1683               	bsf	3,5	;RP0=1, select bank3
  3030  027E  1703               	bsf	3,6	;RP1=1, select bank3
  3031  027F  019B               	clrf	main@reset_flag^(0+384)
  3032  0280  0A9B               	incf	main@reset_flag^(0+384),f
  3033  0281                     l6498:
  3034                           
  3035                           ;main.c: 134:          switch (control_flag)
  3036  0281  3080               	movlw	128
  3037  0282  1283               	bcf	3,5	;RP0=0, select bank0
  3038  0283  1303               	bcf	3,6	;RP1=0, select bank0
  3039  0284  00D1               	movwf	??_main
  3040  0285  0851               	movf	??_main,w
  3041  0286  1683               	bsf	3,5	;RP0=1, select bank3
  3042  0287  1703               	bsf	3,6	;RP1=1, select bank3
  3043  0288  009C               	movwf	main@control_flag^(0+384)
  3044  0289  29C5               	goto	l6448
  3045  028A                     l6504:
  3046                           
  3047                           ; Switch on 2 bytes has been partitioned into a top level switch of size 1, and 1 sub-sw
      +                          itches
  3048                           ; Switch size 1, requested type "simple"
  3049                           ; Number of cases is 1, Range of values is 0 to 0
  3050                           ; switch strategies available:
  3051                           ; Name         Instructions Cycles
  3052                           ; simple_byte            4     3 (average)
  3053                           ; direct_byte           11     8 (fixed)
  3054                           ; jumptable            260     6 (fixed)
  3055                           ;	Chosen strategy is simple_byte
  3056  028A  0813               	movf	(main@menu_pos+1)^(0+384),w
  3057  028B  3A00               	xorlw	0	; case 0
  3058  028C  1903               	skipnz
  3059  028D  2A8F               	goto	l6736
  3060  028E  2C49               	goto	l6588
  3061  028F                     l6736:
  3062                           
  3063                           ; Switch size 1, requested type "simple"
  3064                           ; Number of cases is 5, Range of values is 0 to 4
  3065                           ; switch strategies available:
  3066                           ; Name         Instructions Cycles
  3067                           ; simple_byte           16     9 (average)
  3068                           ; direct_byte           23     8 (fixed)
  3069                           ; jumptable            260     6 (fixed)
  3070                           ;	Chosen strategy is simple_byte
  3071  028F  0812               	movf	main@menu_pos^(0+384),w
  3072  0290  3A00               	xorlw	0	; case 0
  3073  0291  1903               	skipnz
  3074  0292  29D6               	goto	l6456
  3075  0293  3A01               	xorlw	1	; case 1
  3076  0294  1903               	skipnz
  3077  0295  29FD               	goto	l6464
  3078  0296  3A03               	xorlw	3	; case 2
  3079  0297  1903               	skipnz
  3080  0298  2A15               	goto	l6472
  3081  0299  3A01               	xorlw	1	; case 3
  3082  029A  1903               	skipnz
  3083  029B  2A2D               	goto	l6480
  3084  029C  3A07               	xorlw	7	; case 4
  3085  029D  1903               	skipnz
  3086  029E  2A54               	goto	l6488
  3087  029F  2C49               	goto	l6588
  3088  02A0                     l6506:
  3089  02A0  30AF               	movlw	175
  3090  02A1  061D               	xorwf	main@key^(0+384),w
  3091  02A2  1D03               	btfss	3,2
  3092  02A3  2AA5               	goto	u7791
  3093  02A4  2AA6               	goto	u7790
  3094  02A5                     u7791:
  3095  02A5  2ABF               	goto	l6514
  3096  02A6                     u7790:
  3097  02A6                     l6508:
  3098  02A6  3004               	movlw	4
  3099  02A7  061C               	xorwf	main@control_flag^(0+384),w
  3100  02A8  1D03               	btfss	3,2
  3101  02A9  2AAB               	goto	u7801
  3102  02AA  2AAC               	goto	u7800
  3103  02AB                     u7801:
  3104  02AB  2ABF               	goto	l6514
  3105  02AC                     u7800:
  3106  02AC                     l6510:
  3107                           
  3108                           ;main.c: 142:                      case 0x02:;main.c: 143:                          cont
      +                          rol_flag = 0x01;
  3109  02AC  01F3               	clrf	clcd_write@mode
  3110  02AD  3001               	movlw	1
  3111  02AE  160A  158A  23E0  120A  118A  	fcall	_clcd_write
  3112                           
  3113                           ;main.c: 144:                          TMR2ON = 0;
  3114  02B3  01F3               	clrf	clcd_write@mode
  3115  02B4  300C               	movlw	12
  3116  02B5  160A  158A  23E0  120A  118A  	fcall	_clcd_write
  3117  02BA                     l6512:
  3118                           
  3119                           ;main.c: 146:                          break;
  3120  02BA  1683               	bsf	3,5	;RP0=1, select bank3
  3121  02BB  1703               	bsf	3,6	;RP1=1, select bank3
  3122  02BC  019C               	clrf	main@control_flag^(0+384)
  3123  02BD  0A9C               	incf	main@control_flag^(0+384),f
  3124                           
  3125                           ;main.c: 147:                      case 0x01:
  3126  02BE  2C49               	goto	l6588
  3127  02BF                     l6514:
  3128  02BF  30AF               	movlw	175
  3129  02C0  061D               	xorwf	main@key^(0+384),w
  3130  02C1  1D03               	btfss	3,2
  3131  02C2  2AC4               	goto	u7811
  3132  02C3  2AC5               	goto	u7810
  3133  02C4                     u7811:
  3134  02C4  2AF6               	goto	l539
  3135  02C5                     u7810:
  3136  02C5                     l6516:
  3137  02C5  3008               	movlw	8
  3138  02C6  061C               	xorwf	main@control_flag^(0+384),w
  3139  02C7  1903               	btfsc	3,2
  3140  02C8  2ACA               	goto	u7821
  3141  02C9  2ACB               	goto	u7820
  3142  02CA                     u7821:
  3143  02CA  2AD7               	goto	l6522
  3144  02CB                     u7820:
  3145  02CB                     l6518:
  3146  02CB  3080               	movlw	128
  3147  02CC  061C               	xorwf	main@control_flag^(0+384),w
  3148  02CD  1903               	btfsc	3,2
  3149  02CE  2AD0               	goto	u7831
  3150  02CF  2AD1               	goto	u7830
  3151  02D0                     u7831:
  3152  02D0  2AD7               	goto	l6522
  3153  02D1                     u7830:
  3154  02D1                     l6520:
  3155  02D1  3040               	movlw	64
  3156  02D2  061C               	xorwf	main@control_flag^(0+384),w
  3157  02D3  1D03               	btfss	3,2
  3158  02D4  2AD6               	goto	u7841
  3159  02D5  2AD7               	goto	u7840
  3160  02D6                     u7841:
  3161  02D6  2AF6               	goto	l539
  3162  02D7                     u7840:
  3163  02D7                     l6522:
  3164                           
  3165                           ;main.c: 149:                          reset_flag = 0x02;;main.c: 150:                  
      +                                  TMR2ON = 0;
  3166  02D7  01F3               	clrf	clcd_write@mode
  3167  02D8  3001               	movlw	1
  3168  02D9  160A  158A  23E0  120A  118A  	fcall	_clcd_write
  3169                           
  3170                           ;main.c: 151:                          clcd_write(0x0C, 0);
  3171  02DE  01F3               	clrf	clcd_write@mode
  3172  02DF  300C               	movlw	12
  3173  02E0  160A  158A  23E0  120A  118A  	fcall	_clcd_write
  3174  02E5                     l6524:
  3175                           
  3176                           ;main.c: 152:                          continue;
  3177  02E5  3004               	movlw	4
  3178  02E6  1283               	bcf	3,5	;RP0=0, select bank0
  3179  02E7  1303               	bcf	3,6	;RP1=0, select bank0
  3180  02E8  00D1               	movwf	??_main
  3181  02E9  0851               	movf	??_main,w
  3182  02EA  1683               	bsf	3,5	;RP0=1, select bank3
  3183  02EB  1703               	bsf	3,6	;RP1=1, select bank3
  3184  02EC  009C               	movwf	main@control_flag^(0+384)
  3185  02ED                     l6526:
  3186                           
  3187                           ;main.c: 153:                          break;
  3188  02ED  3002               	movlw	2
  3189  02EE  1283               	bcf	3,5	;RP0=0, select bank0
  3190  02EF  1303               	bcf	3,6	;RP1=0, select bank0
  3191  02F0  00D1               	movwf	??_main
  3192  02F1  0851               	movf	??_main,w
  3193  02F2  1683               	bsf	3,5	;RP0=1, select bank3
  3194  02F3  1703               	bsf	3,6	;RP1=1, select bank3
  3195  02F4  009B               	movwf	main@reset_flag^(0+384)
  3196  02F5  2C49               	goto	l6588
  3197  02F6                     l539:
  3198  02F6  2C49               	goto	l6588
  3199  02F7                     l6528:
  3200                           
  3201                           ;main.c: 158:                   break;
  3202  02F7  1683               	bsf	3,5	;RP0=1, select bank3
  3203  02F8  1703               	bsf	3,6	;RP1=1, select bank3
  3204  02F9  081A               	movf	(main@speed+1)^(0+384),w
  3205  02FA  1283               	bcf	3,5	;RP0=0, select bank0
  3206  02FB  1303               	bcf	3,6	;RP1=0, select bank0
  3207  02FC  00AC               	movwf	display_dash_board@speed+1
  3208  02FD  1683               	bsf	3,5	;RP0=1, select bank3
  3209  02FE  1703               	bsf	3,6	;RP1=1, select bank3
  3210  02FF  0819               	movf	main@speed^(0+384),w
  3211  0300  1283               	bcf	3,5	;RP0=0, select bank0
  3212  0301  1303               	bcf	3,6	;RP1=0, select bank0
  3213  0302  00AB               	movwf	display_dash_board@speed
  3214  0303  3094               	movlw	(low (main@event| (0+256)))& (0+255)
  3215  0304  160A  118A  242A  120A  118A  	fcall	_display_dash_board
  3216                           
  3217                           ;main.c: 159:              case 0x08:
  3218  0309  2C6F               	goto	l6590
  3219  030A                     l559:	
  3220                           ;main.c: 162:              case 0x10:;main.c: 163:                  if (clear_log(reset_
      +                          flag) == 0x11)
  3221                           
  3222                           
  3223                           ;main.c: 164:                  {
  3224  030A  1683               	bsf	3,5	;RP0=1, select bank3
  3225  030B  1703               	bsf	3,6	;RP1=1, select bank3
  3226  030C  019C               	clrf	main@control_flag^(0+384)
  3227  030D  0A9C               	incf	main@control_flag^(0+384),f
  3228                           
  3229                           ;main.c: 165:                     log_car_event("CL", speed);
  3230  030E  1283               	bcf	3,5	;RP0=0, select bank0
  3231  030F  1303               	bcf	3,6	;RP1=0, select bank0
  3232  0310  1112               	bcf	18,2	;volatile
  3233  0311                     l6530:
  3234                           
  3235                           ;main.c: 166: 
  3236  0311  01F3               	clrf	clcd_write@mode
  3237  0312  300C               	movlw	12
  3238  0313  160A  158A  23E0  120A  118A  	fcall	_clcd_write
  3239                           
  3240                           ;main.c: 167:                     TMR2ON = 0;
  3241  0318  2C6F               	goto	l6590
  3242  0319                     l6532:
  3243                           
  3244                           ;main.c: 169:                     reset_flag = 0x02;
  3245  0319  3004               	movlw	4
  3246  031A  00D1               	movwf	??_main
  3247  031B  0851               	movf	??_main,w
  3248  031C  1683               	bsf	3,5	;RP0=1, select bank3
  3249  031D  1703               	bsf	3,6	;RP1=1, select bank3
  3250  031E  009C               	movwf	main@control_flag^(0+384)
  3251                           
  3252                           ;main.c: 170:                     clcd_write(0x01, 0);
  3253  031F  3002               	movlw	2
  3254  0320  1283               	bcf	3,5	;RP0=0, select bank0
  3255  0321  1303               	bcf	3,6	;RP1=0, select bank0
  3256  0322  00D1               	movwf	??_main
  3257  0323  0851               	movf	??_main,w
  3258  0324  1683               	bsf	3,5	;RP0=1, select bank3
  3259  0325  1703               	bsf	3,6	;RP1=1, select bank3
  3260  0326  009B               	movwf	main@reset_flag^(0+384)
  3261  0327                     l6534:
  3262                           
  3263                           ;main.c: 171:                     continue;
  3264  0327  1283               	bcf	3,5	;RP0=0, select bank0
  3265  0328  1303               	bcf	3,6	;RP1=0, select bank0
  3266  0329  1112               	bcf	18,2	;volatile
  3267  032A                     l6536:
  3268                           
  3269                           ;main.c: 172:                  }
  3270  032A  01F3               	clrf	clcd_write@mode
  3271  032B  300C               	movlw	12
  3272  032C  160A  158A  23E0  120A  118A  	fcall	_clcd_write
  3273                           
  3274                           ;main.c: 173:                  break;
  3275  0331  2876               	goto	l6400
  3276  0332                     l6542:
  3277  0332  1683               	bsf	3,5	;RP0=1, select bank3
  3278  0333  1703               	bsf	3,6	;RP1=1, select bank3
  3279  0334  081B               	movf	main@reset_flag^(0+384),w
  3280  0335  1283               	bcf	3,5	;RP0=0, select bank0
  3281  0336  1303               	bcf	3,6	;RP1=0, select bank0
  3282  0337  00D1               	movwf	??_main
  3283  0338  0851               	movf	??_main,w
  3284  0339  00AC               	movwf	login@reset_password
  3285  033A  1683               	bsf	3,5	;RP0=1, select bank3
  3286  033B  1703               	bsf	3,6	;RP1=1, select bank3
  3287  033C  081D               	movf	main@key^(0+384),w
  3288  033D  120A  158A  2469  120A  118A  	fcall	_login
  3289  0342  1283               	bcf	3,5	;RP0=0, select bank0
  3290  0343  1303               	bcf	3,6	;RP1=0, select bank0
  3291  0344  00D2               	movwf	??_main+1
  3292  0345  01D3               	clrf	??_main+2
  3293                           
  3294                           ; Switch on 2 bytes has been partitioned into a top level switch of size 1, and 1 sub-sw
      +                          itches
  3295                           ; Switch size 1, requested type "simple"
  3296                           ; Number of cases is 1, Range of values is 0 to 0
  3297                           ; switch strategies available:
  3298                           ; Name         Instructions Cycles
  3299                           ; simple_byte            4     3 (average)
  3300                           ; direct_byte           11     8 (fixed)
  3301                           ; jumptable            260     6 (fixed)
  3302                           ;	Chosen strategy is simple_byte
  3303  0346  0853               	movf	??_main+2,w
  3304  0347  3A00               	xorlw	0	; case 0
  3305  0348  1903               	skipnz
  3306  0349  2B4B               	goto	l6738
  3307  034A  2C6F               	goto	l6590
  3308  034B                     l6738:
  3309                           
  3310                           ; Switch size 1, requested type "simple"
  3311                           ; Number of cases is 2, Range of values is 1 to 2
  3312                           ; switch strategies available:
  3313                           ; Name         Instructions Cycles
  3314                           ; simple_byte            7     4 (average)
  3315                           ; direct_byte           17    11 (fixed)
  3316                           ; jumptable            263     9 (fixed)
  3317                           ;	Chosen strategy is simple_byte
  3318  034B  0852               	movf	??_main+1,w
  3319  034C  3A01               	xorlw	1	; case 1
  3320  034D  1903               	skipnz
  3321  034E  2B19               	goto	l6532
  3322  034F  3A03               	xorlw	3	; case 2
  3323  0350  1903               	skipnz
  3324  0351  2B0A               	goto	l559
  3325  0352  2C6F               	goto	l6590
  3326  0353                     l6544:
  3327                           
  3328                           ;main.c: 178:                      reset_flag = 0x02;
  3329  0353  1683               	bsf	3,5	;RP0=1, select bank3
  3330  0354  1703               	bsf	3,6	;RP1=1, select bank3
  3331  0355  081B               	movf	main@reset_flag^(0+384),w
  3332  0356  1283               	bcf	3,5	;RP0=0, select bank0
  3333  0357  1303               	bcf	3,6	;RP1=0, select bank0
  3334  0358  00D1               	movwf	??_main
  3335  0359  0851               	movf	??_main,w
  3336  035A  00A6               	movwf	login_menu@reset_menu
  3337  035B  1683               	bsf	3,5	;RP0=1, select bank3
  3338  035C  1703               	bsf	3,6	;RP1=1, select bank3
  3339  035D  081D               	movf	main@key^(0+384),w
  3340  035E  120A  158A  203C  120A  118A  	fcall	_login_menu
  3341  0363  1283               	bcf	3,5	;RP0=0, select bank0
  3342  0364  1303               	bcf	3,6	;RP1=0, select bank0
  3343  0365  0827               	movf	?_login_menu+1,w
  3344  0366  1683               	bsf	3,5	;RP0=1, select bank3
  3345  0367  1703               	bsf	3,6	;RP1=1, select bank3
  3346  0368  0093               	movwf	(main@menu_pos+1)^(0+384)
  3347  0369  1283               	bcf	3,5	;RP0=0, select bank0
  3348  036A  1303               	bcf	3,6	;RP1=0, select bank0
  3349  036B  0826               	movf	?_login_menu,w
  3350  036C  1683               	bsf	3,5	;RP0=1, select bank3
  3351  036D  1703               	bsf	3,6	;RP1=1, select bank3
  3352  036E  0092               	movwf	main@menu_pos^(0+384)
  3353                           
  3354                           ;main.c: 179:                      clcd_write(0x01, 0);
  3355  036F  2C6F               	goto	l6590
  3356  0370                     l6546:
  3357                           
  3358                           ;main.c: 181:                      continue;
  3359  0370  1683               	bsf	3,5	;RP0=1, select bank3
  3360  0371  1703               	bsf	3,6	;RP1=1, select bank3
  3361  0372  081B               	movf	main@reset_flag^(0+384),w
  3362  0373  1283               	bcf	3,5	;RP0=0, select bank0
  3363  0374  1303               	bcf	3,6	;RP1=0, select bank0
  3364  0375  00D1               	movwf	??_main
  3365  0376  0851               	movf	??_main,w
  3366  0377  00A9               	movwf	view_log@reset_shift
  3367  0378  1683               	bsf	3,5	;RP0=1, select bank3
  3368  0379  1703               	bsf	3,6	;RP1=1, select bank3
  3369  037A  081D               	movf	main@key^(0+384),w
  3370  037B  120A  158A  214D  120A  118A  	fcall	_view_log
  3371                           
  3372                           ;main.c: 182:                  }
  3373  0380  2C6F               	goto	l6590
  3374  0381                     l6548:
  3375                           
  3376                           ;main.c: 184:              case 0x40:
  3377  0381  1683               	bsf	3,5	;RP0=1, select bank3
  3378  0382  1703               	bsf	3,6	;RP1=1, select bank3
  3379  0383  081B               	movf	main@reset_flag^(0+384),w
  3380  0384  160A  158A  267F  120A  118A  	fcall	_clear_log
  3381  0389  3A11               	xorlw	17
  3382  038A  1D03               	skipz
  3383  038B  2B8D               	goto	u7851
  3384  038C  2B8E               	goto	u7850
  3385  038D                     u7851:
  3386  038D  2C6F               	goto	l6590
  3387  038E                     u7850:
  3388  038E                     l6550:
  3389                           
  3390                           ;main.c: 185:                  set_time(key, reset_flag);;main.c: 186:                  
      +                          break;
  3391  038E  3071               	movlw	low (STR_37| (0+32768))
  3392  038F  1283               	bcf	3,5	;RP0=0, select bank0
  3393  0390  1303               	bcf	3,6	;RP1=0, select bank0
  3394  0391  00AB               	movwf	log_car_event@event
  3395  0392  3091               	movlw	high (STR_37| (0+32768))
  3396  0393  00AC               	movwf	log_car_event@event+1
  3397  0394  1683               	bsf	3,5	;RP0=1, select bank3
  3398  0395  1703               	bsf	3,6	;RP1=1, select bank3
  3399  0396  081A               	movf	(main@speed+1)^(0+384),w
  3400  0397  1283               	bcf	3,5	;RP0=0, select bank0
  3401  0398  1303               	bcf	3,6	;RP1=0, select bank0
  3402  0399  00AE               	movwf	log_car_event@speed+1
  3403  039A  1683               	bsf	3,5	;RP0=1, select bank3
  3404  039B  1703               	bsf	3,6	;RP1=1, select bank3
  3405  039C  0819               	movf	main@speed^(0+384),w
  3406  039D  1283               	bcf	3,5	;RP0=0, select bank0
  3407  039E  1303               	bcf	3,6	;RP1=0, select bank0
  3408  039F  00AD               	movwf	log_car_event@speed
  3409  03A0  160A  158A  27A6  120A  118A  	fcall	_log_car_event
  3410  03A5                     l6552:
  3411                           
  3412                           ;main.c: 188:                  switch(change_password(key , reset_flag))
  3413  03A5  1283               	bcf	3,5	;RP0=0, select bank0
  3414  03A6  1303               	bcf	3,6	;RP1=0, select bank0
  3415  03A7  1112               	bcf	18,2	;volatile
  3416  03A8                     l6554:
  3417                           
  3418                           ;main.c: 189:                  {
  3419  03A8  3004               	movlw	4
  3420  03A9  00D1               	movwf	??_main
  3421  03AA  0851               	movf	??_main,w
  3422  03AB  1683               	bsf	3,5	;RP0=1, select bank3
  3423  03AC  1703               	bsf	3,6	;RP1=1, select bank3
  3424  03AD  009C               	movwf	main@control_flag^(0+384)
  3425  03AE                     l6556:
  3426                           
  3427                           ;main.c: 190:                      case 0x02:
  3428  03AE  3002               	movlw	2
  3429  03AF  1283               	bcf	3,5	;RP0=0, select bank0
  3430  03B0  1303               	bcf	3,6	;RP1=0, select bank0
  3431  03B1  00D1               	movwf	??_main
  3432  03B2  0851               	movf	??_main,w
  3433  03B3  1683               	bsf	3,5	;RP0=1, select bank3
  3434  03B4  1703               	bsf	3,6	;RP1=1, select bank3
  3435  03B5  009B               	movwf	main@reset_flag^(0+384)
  3436  03B6                     l6558:
  3437                           
  3438                           ;main.c: 191:                          control_flag = 0x01;
  3439  03B6  01F3               	clrf	clcd_write@mode
  3440  03B7  3001               	movlw	1
  3441  03B8  160A  158A  23E0  120A  118A  	fcall	_clcd_write
  3442                           
  3443                           ;main.c: 192:                          TMR2ON = 0;
  3444  03BD  2876               	goto	l6400
  3445  03BE                     l6560:
  3446                           
  3447                           ;main.c: 196:                          clcd_write(0x01, 0);
  3448  03BE  1683               	bsf	3,5	;RP0=1, select bank3
  3449  03BF  1703               	bsf	3,6	;RP1=1, select bank3
  3450  03C0  081B               	movf	main@reset_flag^(0+384),w
  3451  03C1  160A  118A  2711  120A  118A  	fcall	_download_log
  3452  03C6  3A11               	xorlw	17
  3453  03C7  1D03               	skipz
  3454  03C8  2BCA               	goto	u7861
  3455  03C9  2BCB               	goto	u7860
  3456  03CA                     u7861:
  3457  03CA  2C6F               	goto	l6590
  3458  03CB                     u7860:
  3459  03CB                     l6562:
  3460                           
  3461                           ;main.c: 197:                          control_flag = 0x04;;main.c: 198:                
      +                                    reset_flag = 0x02;
  3462  03CB  3004               	movlw	4
  3463  03CC  1283               	bcf	3,5	;RP0=0, select bank0
  3464  03CD  1303               	bcf	3,6	;RP1=0, select bank0
  3465  03CE  00D1               	movwf	??_main
  3466  03CF  0851               	movf	??_main,w
  3467  03D0  1683               	bsf	3,5	;RP0=1, select bank3
  3468  03D1  1703               	bsf	3,6	;RP1=1, select bank3
  3469  03D2  009C               	movwf	main@control_flag^(0+384)
  3470                           
  3471                           ;main.c: 199:                          TMR2ON = 0;
  3472  03D3  3002               	movlw	2
  3473  03D4  1283               	bcf	3,5	;RP0=0, select bank0
  3474  03D5  1303               	bcf	3,6	;RP1=0, select bank0
  3475  03D6  00D1               	movwf	??_main
  3476  03D7  0851               	movf	??_main,w
  3477  03D8  1683               	bsf	3,5	;RP0=1, select bank3
  3478  03D9  1703               	bsf	3,6	;RP1=1, select bank3
  3479  03DA  009B               	movwf	main@reset_flag^(0+384)
  3480  03DB                     l6564:
  3481                           
  3482                           ;main.c: 200:                          clcd_write(0x0C, 0);
  3483  03DB  01F3               	clrf	clcd_write@mode
  3484  03DC  3001               	movlw	1
  3485  03DD  160A  158A  23E0  120A  118A  	fcall	_clcd_write
  3486  03E2                     l6566:
  3487                           
  3488                           ;main.c: 201:                          continue;
  3489  03E2  1283               	bcf	3,5	;RP0=0, select bank0
  3490  03E3  1303               	bcf	3,6	;RP1=0, select bank0
  3491  03E4  1112               	bcf	18,2	;volatile
  3492                           
  3493                           ;main.c: 202:                          break;
  3494  03E5  2876               	goto	l6400
  3495  03E6                     l6568:
  3496                           
  3497                           ;main.c: 206:          }
  3498  03E6  1683               	bsf	3,5	;RP0=1, select bank3
  3499  03E7  1703               	bsf	3,6	;RP1=1, select bank3
  3500  03E8  081B               	movf	main@reset_flag^(0+384),w
  3501  03E9  1283               	bcf	3,5	;RP0=0, select bank0
  3502  03EA  1303               	bcf	3,6	;RP1=0, select bank0
  3503  03EB  00D1               	movwf	??_main
  3504  03EC  0851               	movf	??_main,w
  3505  03ED  00AB               	movwf	set_time@reset_time
  3506  03EE  1683               	bsf	3,5	;RP0=1, select bank3
  3507  03EF  1703               	bsf	3,6	;RP1=1, select bank3
  3508  03F0  081D               	movf	main@key^(0+384),w
  3509  03F1  120A  158A  22D6  120A  118A  	fcall	_set_time
  3510                           
  3511                           ;main.c: 207:          reset_flag = 0x00;
  3512  03F6  2C6F               	goto	l6590
  3513  03F7                     l572:
  3514  03F7  1683               	bsf	3,5	;RP0=1, select bank3
  3515  03F8  1703               	bsf	3,6	;RP1=1, select bank3
  3516  03F9  019C               	clrf	main@control_flag^(0+384)
  3517  03FA  0A9C               	incf	main@control_flag^(0+384),f
  3518  03FB  1283               	bcf	3,5	;RP0=0, select bank0
  3519  03FC  1303               	bcf	3,6	;RP1=0, select bank0
  3520  03FD  1112               	bcf	18,2	;volatile
  3521  03FE                     l6570:
  3522  03FE  01F3               	clrf	clcd_write@mode
  3523  03FF  300C               	movlw	12
  3524  0400  160A  158A  23E0  120A  118A  	fcall	_clcd_write
  3525  0405  2C6F               	goto	l6590
  3526  0406                     l6572:
  3527  0406  01F3               	clrf	clcd_write@mode
  3528  0407  3001               	movlw	1
  3529  0408  160A  158A  23E0  120A  118A  	fcall	_clcd_write
  3530  040D                     l6574:
  3531  040D  3004               	movlw	4
  3532  040E  1283               	bcf	3,5	;RP0=0, select bank0
  3533  040F  1303               	bcf	3,6	;RP1=0, select bank0
  3534  0410  00D1               	movwf	??_main
  3535  0411  0851               	movf	??_main,w
  3536  0412  1683               	bsf	3,5	;RP0=1, select bank3
  3537  0413  1703               	bsf	3,6	;RP1=1, select bank3
  3538  0414  009C               	movwf	main@control_flag^(0+384)
  3539  0415                     l6576:
  3540  0415  3002               	movlw	2
  3541  0416  1283               	bcf	3,5	;RP0=0, select bank0
  3542  0417  1303               	bcf	3,6	;RP1=0, select bank0
  3543  0418  00D1               	movwf	??_main
  3544  0419  0851               	movf	??_main,w
  3545  041A  1683               	bsf	3,5	;RP0=1, select bank3
  3546  041B  1703               	bsf	3,6	;RP1=1, select bank3
  3547  041C  009B               	movwf	main@reset_flag^(0+384)
  3548  041D                     l6578:
  3549  041D  1283               	bcf	3,5	;RP0=0, select bank0
  3550  041E  1303               	bcf	3,6	;RP1=0, select bank0
  3551  041F  1112               	bcf	18,2	;volatile
  3552  0420  01F3               	clrf	clcd_write@mode
  3553  0421  300C               	movlw	12
  3554  0422  160A  158A  23E0  120A  118A  	fcall	_clcd_write
  3555  0427  2876               	goto	l6400
  3556  0428                     l6584:
  3557  0428  1683               	bsf	3,5	;RP0=1, select bank3
  3558  0429  1703               	bsf	3,6	;RP1=1, select bank3
  3559  042A  081B               	movf	main@reset_flag^(0+384),w
  3560  042B  1283               	bcf	3,5	;RP0=0, select bank0
  3561  042C  1303               	bcf	3,6	;RP1=0, select bank0
  3562  042D  00D1               	movwf	??_main
  3563  042E  0851               	movf	??_main,w
  3564  042F  00AC               	movwf	change_password@reset_pwd
  3565  0430  1683               	bsf	3,5	;RP0=1, select bank3
  3566  0431  1703               	bsf	3,6	;RP1=1, select bank3
  3567  0432  081D               	movf	main@key^(0+384),w
  3568  0433  160A  118A  25B0  120A  118A  	fcall	_change_password
  3569  0438  1283               	bcf	3,5	;RP0=0, select bank0
  3570  0439  1303               	bcf	3,6	;RP1=0, select bank0
  3571  043A  00D2               	movwf	??_main+1
  3572  043B  01D3               	clrf	??_main+2
  3573                           
  3574                           ; Switch on 2 bytes has been partitioned into a top level switch of size 1, and 1 sub-sw
      +                          itches
  3575                           ; Switch size 1, requested type "simple"
  3576                           ; Number of cases is 1, Range of values is 0 to 0
  3577                           ; switch strategies available:
  3578                           ; Name         Instructions Cycles
  3579                           ; simple_byte            4     3 (average)
  3580                           ; direct_byte           11     8 (fixed)
  3581                           ; jumptable            260     6 (fixed)
  3582                           ;	Chosen strategy is simple_byte
  3583  043C  0853               	movf	??_main+2,w
  3584  043D  3A00               	xorlw	0	; case 0
  3585  043E  1903               	skipnz
  3586  043F  2C41               	goto	l6740
  3587  0440  2C6F               	goto	l6590
  3588  0441                     l6740:
  3589                           
  3590                           ; Switch size 1, requested type "simple"
  3591                           ; Number of cases is 2, Range of values is 2 to 17
  3592                           ; switch strategies available:
  3593                           ; Name         Instructions Cycles
  3594                           ; simple_byte            7     4 (average)
  3595                           ; direct_byte           59    11 (fixed)
  3596                           ; jumptable            263     9 (fixed)
  3597                           ;	Chosen strategy is simple_byte
  3598  0441  0852               	movf	??_main+1,w
  3599  0442  3A02               	xorlw	2	; case 2
  3600  0443  1903               	skipnz
  3601  0444  2BF7               	goto	l572
  3602  0445  3A13               	xorlw	19	; case 17
  3603  0446  1903               	skipnz
  3604  0447  2C06               	goto	l6572
  3605  0448  2C6F               	goto	l6590
  3606  0449                     l6588:
  3607  0449  1683               	bsf	3,5	;RP0=1, select bank3
  3608  044A  1703               	bsf	3,6	;RP1=1, select bank3
  3609  044B  081C               	movf	main@control_flag^(0+384),w
  3610  044C  1283               	bcf	3,5	;RP0=0, select bank0
  3611  044D  1303               	bcf	3,6	;RP1=0, select bank0
  3612  044E  00D1               	movwf	??_main
  3613  044F  01D2               	clrf	??_main+1
  3614                           
  3615                           ; Switch on 2 bytes has been partitioned into a top level switch of size 1, and 1 sub-sw
      +                          itches
  3616                           ; Switch size 1, requested type "simple"
  3617                           ; Number of cases is 1, Range of values is 0 to 0
  3618                           ; switch strategies available:
  3619                           ; Name         Instructions Cycles
  3620                           ; simple_byte            4     3 (average)
  3621                           ; direct_byte           11     8 (fixed)
  3622                           ; jumptable            260     6 (fixed)
  3623                           ;	Chosen strategy is simple_byte
  3624  0450  0852               	movf	??_main+1,w
  3625  0451  3A00               	xorlw	0	; case 0
  3626  0452  1903               	skipnz
  3627  0453  2C55               	goto	l6742
  3628  0454  2C6F               	goto	l6590
  3629  0455                     l6742:
  3630                           
  3631                           ; Switch size 1, requested type "simple"
  3632                           ; Number of cases is 8, Range of values is 1 to 128
  3633                           ; switch strategies available:
  3634                           ; Name         Instructions Cycles
  3635                           ; simple_byte           25    13 (average)
  3636                           ; jumptable            263     9 (fixed)
  3637                           ;	Chosen strategy is simple_byte
  3638  0455  0851               	movf	??_main,w
  3639  0456  3A01               	xorlw	1	; case 1
  3640  0457  1903               	skipnz
  3641  0458  2AF7               	goto	l6528
  3642  0459  3A03               	xorlw	3	; case 2
  3643  045A  1903               	skipnz
  3644  045B  2B32               	goto	l6542
  3645  045C  3A06               	xorlw	6	; case 4
  3646  045D  1903               	skipnz
  3647  045E  2B53               	goto	l6544
  3648  045F  3A0C               	xorlw	12	; case 8
  3649  0460  1903               	skipnz
  3650  0461  2B70               	goto	l6546
  3651  0462  3A18               	xorlw	24	; case 16
  3652  0463  1903               	skipnz
  3653  0464  2B81               	goto	l6548
  3654  0465  3A30               	xorlw	48	; case 32
  3655  0466  1903               	skipnz
  3656  0467  2BBE               	goto	l6560
  3657  0468  3A60               	xorlw	96	; case 64
  3658  0469  1903               	skipnz
  3659  046A  2BE6               	goto	l6568
  3660  046B  3AC0               	xorlw	192	; case 128
  3661  046C  1903               	skipnz
  3662  046D  2C28               	goto	l6584
  3663  046E  2C6F               	goto	l6590
  3664  046F                     l6590:
  3665  046F  1683               	bsf	3,5	;RP0=1, select bank3
  3666  0470  1703               	bsf	3,6	;RP1=1, select bank3
  3667  0471  019B               	clrf	main@reset_flag^(0+384)
  3668  0472  2876               	goto	l6400
  3669  0473  120A  118A  2810   	ljmp	start
  3670  0476                     __end_of_main:
  3671                           
  3672                           	psect	text1
  3673  094D                     __ptext1:	
  3674 ;; *************** function _view_log *****************
  3675 ;; Defined at:
  3676 ;;		line 254 in file "helper.c"
  3677 ;; Parameters:    Size  Location     Type
  3678 ;;  key             1    wreg     unsigned char 
  3679 ;;  reset_shift     1    9[BANK0 ] unsigned char 
  3680 ;; Auto vars:     Size  Location     Type
  3681 ;;  key             1   24[BANK0 ] unsigned char 
  3682 ;;  i               2   27[BANK0 ] int 
  3683 ;;  rlog           11   12[BANK0 ] unsigned char [11]
  3684 ;;  rpos            2   25[BANK0 ] int 
  3685 ;;  add             1   23[BANK0 ] unsigned char 
  3686 ;; Return value:  Size  Location     Type
  3687 ;;                  1    wreg      void 
  3688 ;; Registers used:
  3689 ;;		wreg, fsr0l, fsr0h, status,2, status,0, btemp+1, pclath, cstack
  3690 ;; Tracked objects:
  3691 ;;		On entry : 0/0
  3692 ;;		On exit  : 0/0
  3693 ;;		Unchanged: 0/0
  3694 ;; Data sizes:     COMMON   BANK0   BANK1   BANK3   BANK2
  3695 ;;      Params:         0       1       0       0       0
  3696 ;;      Locals:         0      17       0       0       0
  3697 ;;      Temps:          0       2       0       0       0
  3698 ;;      Totals:         0      20       0       0       0
  3699 ;;Total ram usage:       20 bytes
  3700 ;; Hardware stack levels used: 1
  3701 ;; Hardware stack levels required when called: 4
  3702 ;; This function calls:
  3703 ;;		___awmod
  3704 ;;		___bmul
  3705 ;;		_clcd_print
  3706 ;;		_clcd_putch
  3707 ;;		_eeprom_at24c04_random_read
  3708 ;; This function is called by:
  3709 ;;		_main
  3710 ;; This function uses a non-reentrant model
  3711 ;;
  3712                           
  3713                           
  3714                           ;psect for function _view_log
  3715  094D                     _view_log:
  3716                           
  3717                           ;incstack = 0
  3718                           ; Regs used in _view_log: [wreg-fsr0h+status,2+status,0+btemp+1+pclath+cstack]
  3719                           ;view_log@key stored from wreg
  3720  094D  1283               	bcf	3,5	;RP0=0, select bank0
  3721  094E  1303               	bcf	3,6	;RP1=0, select bank0
  3722  094F  00B8               	movwf	view_log@key
  3723  0950                     l5194:
  3724                           
  3725                           ;helper.c: 254: void view_log(unsigned char key, unsigned char reset_shift);helper.c: 25
      +                          5: {;helper.c: 256:     static int shift;;helper.c: 257:     char rlog[11];;helper.c: 25
      +                          8:     rlog[10] = 0;
  3726  0950  01B6               	clrf	view_log@rlog+10
  3727  0951                     l5196:
  3728                           
  3729                           ;helper.c: 259:     int rpos;;helper.c: 260:     unsigned char add;;helper.c: 262:     i
      +                          f (access == -1)
  3730  0951  1683               	bsf	3,5	;RP0=1, select bank1
  3731  0952  1303               	bcf	3,6	;RP1=0, select bank1
  3732  0953  0A6A               	incf	_access^(0+128),w
  3733  0954  1D03               	skipz
  3734  0955  295A               	goto	u5961
  3735  0956  0A6B               	incf	(_access+1)^(0+128),w
  3736  0957  1D03               	btfss	3,2
  3737  0958  295A               	goto	u5961
  3738  0959  295B               	goto	u5960
  3739  095A                     u5961:
  3740  095A  296B               	goto	l5200
  3741  095B                     u5960:
  3742  095B                     l5198:
  3743                           
  3744                           ;helper.c: 263:     {;helper.c: 264:         clcd_print("no logs available",(0xC0 + (0))
      +                          );
  3745  095B  3027               	movlw	low (STR_12| (0+32768))
  3746  095C  1283               	bcf	3,5	;RP0=0, select bank0
  3747  095D  1303               	bcf	3,6	;RP1=0, select bank0
  3748  095E  00A0               	movwf	clcd_print@data
  3749  095F  3090               	movlw	high (STR_12| (0+32768))
  3750  0960  00A1               	movwf	clcd_print@data+1
  3751  0961  30C0               	movlw	192
  3752  0962  00AA               	movwf	??_view_log
  3753  0963  082A               	movf	??_view_log,w
  3754  0964  00A2               	movwf	clcd_print@addr
  3755  0965  160A  158A  256E  120A  158A  	fcall	_clcd_print
  3756                           
  3757                           ;helper.c: 265:     }
  3758  096A  2AD5               	goto	l272
  3759  096B                     l5200:
  3760                           
  3761                           ;helper.c: 267:     {;helper.c: 268:         if (reset_shift == 0x08)
  3762  096B  3008               	movlw	8
  3763  096C  1283               	bcf	3,5	;RP0=0, select bank0
  3764  096D  1303               	bcf	3,6	;RP1=0, select bank0
  3765  096E  0629               	xorwf	view_log@reset_shift,w
  3766  096F  1D03               	btfss	3,2
  3767  0970  2972               	goto	u5971
  3768  0971  2973               	goto	u5970
  3769  0972                     u5971:
  3770  0972  2977               	goto	l5204
  3771  0973                     u5970:
  3772  0973                     l5202:
  3773                           
  3774                           ;helper.c: 269:         {;helper.c: 270:             shift = 0;
  3775  0973  1683               	bsf	3,5	;RP0=1, select bank1
  3776  0974  1303               	bcf	3,6	;RP1=0, select bank1
  3777  0975  01AA               	clrf	view_log@shift^(0+128)
  3778  0976  01AB               	clrf	(view_log@shift+1)^(0+128)
  3779  0977                     l5204:
  3780                           
  3781                           ;helper.c: 272:         rpos = (overflow) ? (pos + 1) % 10 : 0;
  3782  0977  1683               	bsf	3,5	;RP0=1, select bank1
  3783  0978  1303               	bcf	3,6	;RP1=0, select bank1
  3784  0979  0835               	movf	_overflow^(0+128),w
  3785  097A  1D03               	btfss	3,2
  3786  097B  297D               	goto	u5981
  3787  097C  297E               	goto	u5980
  3788  097D                     u5981:
  3789  097D  2983               	goto	l5208
  3790  097E                     u5980:
  3791  097E                     l5206:
  3792  097E  1283               	bcf	3,5	;RP0=0, select bank0
  3793  097F  1303               	bcf	3,6	;RP1=0, select bank0
  3794  0980  01B9               	clrf	view_log@rpos
  3795  0981  01BA               	clrf	view_log@rpos+1
  3796  0982  299A               	goto	l5210
  3797  0983                     l5208:
  3798  0983  300A               	movlw	10
  3799  0984  00F3               	movwf	___awmod@divisor
  3800  0985  3000               	movlw	0
  3801  0986  00F4               	movwf	___awmod@divisor+1
  3802  0987  086C               	movf	_pos^(0+128),w
  3803  0988  3E01               	addlw	1
  3804  0989  00F5               	movwf	___awmod@dividend
  3805  098A  086D               	movf	(_pos+1)^(0+128),w
  3806  098B  1803               	skipnc
  3807  098C  3E01               	addlw	1
  3808  098D  3E00               	addlw	0
  3809  098E  00F6               	movwf	___awmod@dividend+1
  3810  098F  160A  118A  21C5  120A  158A  	fcall	___awmod
  3811  0994  0874               	movf	?___awmod+1,w
  3812  0995  1283               	bcf	3,5	;RP0=0, select bank0
  3813  0996  1303               	bcf	3,6	;RP1=0, select bank0
  3814  0997  00BA               	movwf	view_log@rpos+1
  3815  0998  0873               	movf	?___awmod,w
  3816  0999  00B9               	movwf	view_log@rpos
  3817  099A                     l5210:
  3818                           
  3819                           ;helper.c: 274:         if (key == 0x37 && shift < access)
  3820  099A  3037               	movlw	55
  3821  099B  0638               	xorwf	view_log@key,w
  3822  099C  1D03               	btfss	3,2
  3823  099D  299F               	goto	u5991
  3824  099E  29A0               	goto	u5990
  3825  099F                     u5991:
  3826  099F  29C1               	goto	l5216
  3827  09A0                     u5990:
  3828  09A0                     l5212:
  3829  09A0  1683               	bsf	3,5	;RP0=1, select bank1
  3830  09A1  1303               	bcf	3,6	;RP1=0, select bank1
  3831  09A2  082B               	movf	(view_log@shift+1)^(0+128),w
  3832  09A3  3A80               	xorlw	128
  3833  09A4  1283               	bcf	3,5	;RP0=0, select bank0
  3834  09A5  1303               	bcf	3,6	;RP1=0, select bank0
  3835  09A6  00AA               	movwf	??_view_log
  3836  09A7  1683               	bsf	3,5	;RP0=1, select bank1
  3837  09A8  1303               	bcf	3,6	;RP1=0, select bank1
  3838  09A9  086B               	movf	(_access+1)^(0+128),w
  3839  09AA  3A80               	xorlw	128
  3840  09AB  1283               	bcf	3,5	;RP0=0, select bank0
  3841  09AC  1303               	bcf	3,6	;RP1=0, select bank0
  3842  09AD  022A               	subwf	??_view_log,w
  3843  09AE  1D03               	skipz
  3844  09AF  29B4               	goto	u6005
  3845  09B0  1683               	bsf	3,5	;RP0=1, select bank1
  3846  09B1  1303               	bcf	3,6	;RP1=0, select bank1
  3847  09B2  086A               	movf	_access^(0+128),w
  3848  09B3  022A               	subwf	view_log@shift^(0+128),w
  3849  09B4                     u6005:
  3850  09B4  1803               	skipnc
  3851  09B5  29B7               	goto	u6001
  3852  09B6  29B8               	goto	u6000
  3853  09B7                     u6001:
  3854  09B7  29C1               	goto	l5216
  3855  09B8                     u6000:
  3856  09B8                     l5214:
  3857                           
  3858                           ;helper.c: 275:         {;helper.c: 276:             shift++;
  3859  09B8  3001               	movlw	1
  3860  09B9  1683               	bsf	3,5	;RP0=1, select bank1
  3861  09BA  1303               	bcf	3,6	;RP1=0, select bank1
  3862  09BB  07AA               	addwf	view_log@shift^(0+128),f
  3863  09BC  1803               	skipnc
  3864  09BD  0AAB               	incf	(view_log@shift+1)^(0+128),f
  3865  09BE  3000               	movlw	0
  3866  09BF  07AB               	addwf	(view_log@shift+1)^(0+128),f
  3867                           
  3868                           ;helper.c: 277:         }
  3869  09C0  29E0               	goto	l5222
  3870  09C1                     l5216:
  3871  09C1  302F               	movlw	47
  3872  09C2  1283               	bcf	3,5	;RP0=0, select bank0
  3873  09C3  1303               	bcf	3,6	;RP1=0, select bank0
  3874  09C4  0638               	xorwf	view_log@key,w
  3875  09C5  1D03               	btfss	3,2
  3876  09C6  29C8               	goto	u6011
  3877  09C7  29C9               	goto	u6010
  3878  09C8                     u6011:
  3879  09C8  29E0               	goto	l5222
  3880  09C9                     u6010:
  3881  09C9                     l5218:
  3882  09C9  1683               	bsf	3,5	;RP0=1, select bank1
  3883  09CA  1303               	bcf	3,6	;RP1=0, select bank1
  3884  09CB  082B               	movf	(view_log@shift+1)^(0+128),w
  3885  09CC  3A80               	xorlw	128
  3886  09CD  00FF               	movwf	btemp+1
  3887  09CE  3080               	movlw	128
  3888  09CF  027F               	subwf	btemp+1,w
  3889  09D0  1D03               	skipz
  3890  09D1  29D4               	goto	u6025
  3891  09D2  3001               	movlw	1
  3892  09D3  022A               	subwf	view_log@shift^(0+128),w
  3893  09D4                     u6025:
  3894  09D4  1C03               	skipc
  3895  09D5  29D7               	goto	u6021
  3896  09D6  29D8               	goto	u6020
  3897  09D7                     u6021:
  3898  09D7  29E0               	goto	l5222
  3899  09D8                     u6020:
  3900  09D8                     l5220:
  3901                           
  3902                           ;helper.c: 279:         {;helper.c: 280:             shift--;
  3903  09D8  30FF               	movlw	255
  3904  09D9  1683               	bsf	3,5	;RP0=1, select bank1
  3905  09DA  1303               	bcf	3,6	;RP1=0, select bank1
  3906  09DB  07AA               	addwf	view_log@shift^(0+128),f
  3907  09DC  1803               	skipnc
  3908  09DD  0AAB               	incf	(view_log@shift+1)^(0+128),f
  3909  09DE  30FF               	movlw	255
  3910  09DF  07AB               	addwf	(view_log@shift+1)^(0+128),f
  3911  09E0                     l5222:
  3912                           
  3913                           ;helper.c: 283:         rpos = (rpos + shift) % 10;
  3914  09E0  300A               	movlw	10
  3915  09E1  00F3               	movwf	___awmod@divisor
  3916  09E2  3000               	movlw	0
  3917  09E3  00F4               	movwf	___awmod@divisor+1
  3918  09E4  1683               	bsf	3,5	;RP0=1, select bank1
  3919  09E5  1303               	bcf	3,6	;RP1=0, select bank1
  3920  09E6  082A               	movf	view_log@shift^(0+128),w
  3921  09E7  1283               	bcf	3,5	;RP0=0, select bank0
  3922  09E8  1303               	bcf	3,6	;RP1=0, select bank0
  3923  09E9  0739               	addwf	view_log@rpos,w
  3924  09EA  00F5               	movwf	___awmod@dividend
  3925  09EB  1683               	bsf	3,5	;RP0=1, select bank1
  3926  09EC  1303               	bcf	3,6	;RP1=0, select bank1
  3927  09ED  082B               	movf	(view_log@shift+1)^(0+128),w
  3928  09EE  1803               	skipnc
  3929  09EF  0A2B               	incf	(view_log@shift+1)^(0+128),w
  3930  09F0  1283               	bcf	3,5	;RP0=0, select bank0
  3931  09F1  1303               	bcf	3,6	;RP1=0, select bank0
  3932  09F2  073A               	addwf	view_log@rpos+1,w
  3933  09F3  00F6               	movwf	___awmod@dividend+1
  3934  09F4  160A  118A  21C5  120A  158A  	fcall	___awmod
  3935  09F9  0874               	movf	?___awmod+1,w
  3936  09FA  1283               	bcf	3,5	;RP0=0, select bank0
  3937  09FB  1303               	bcf	3,6	;RP1=0, select bank0
  3938  09FC  00BA               	movwf	view_log@rpos+1
  3939  09FD  0873               	movf	?___awmod,w
  3940  09FE  00B9               	movwf	view_log@rpos
  3941  09FF                     l5224:
  3942                           
  3943                           ;helper.c: 285:         for (int i = 0; i < 10; i++)
  3944  09FF  01BB               	clrf	view_log@i
  3945  0A00  01BC               	clrf	view_log@i+1
  3946  0A01                     l5230:
  3947                           
  3948                           ;helper.c: 286:         {;helper.c: 287:             add = rpos * 10 + 5 + i;
  3949  0A01  300A               	movlw	10
  3950  0A02  1283               	bcf	3,5	;RP0=0, select bank0
  3951  0A03  1303               	bcf	3,6	;RP1=0, select bank0
  3952  0A04  00AA               	movwf	??_view_log
  3953  0A05  082A               	movf	??_view_log,w
  3954  0A06  00F3               	movwf	___bmul@multiplicand
  3955  0A07  0839               	movf	view_log@rpos,w
  3956  0A08  160A  158A  237F  120A  158A  	fcall	___bmul
  3957  0A0D  1283               	bcf	3,5	;RP0=0, select bank0
  3958  0A0E  1303               	bcf	3,6	;RP1=0, select bank0
  3959  0A0F  073B               	addwf	view_log@i,w
  3960  0A10  3E05               	addlw	5
  3961  0A11  00AB               	movwf	??_view_log+1
  3962  0A12  082B               	movf	??_view_log+1,w
  3963  0A13  00B7               	movwf	view_log@add
  3964  0A14                     l5232:
  3965                           
  3966                           ;helper.c: 288:             rlog[i] = eeprom_at24c04_random_read(add);
  3967  0A14  0837               	movf	view_log@add,w
  3968  0A15  160A  158A  25D5  120A  158A  	fcall	_eeprom_at24c04_random_read
  3969  0A1A  1283               	bcf	3,5	;RP0=0, select bank0
  3970  0A1B  1303               	bcf	3,6	;RP1=0, select bank0
  3971  0A1C  00AA               	movwf	??_view_log
  3972  0A1D  083B               	movf	view_log@i,w
  3973  0A1E  3E2C               	addlw	(low (view_log@rlog| 0))& (0+255)
  3974  0A1F  0084               	movwf	4
  3975  0A20  082A               	movf	??_view_log,w
  3976  0A21  1383               	bcf	3,7	;select IRP bank0
  3977  0A22  0080               	movwf	0
  3978  0A23                     l5234:
  3979                           
  3980                           ;helper.c: 289:         }
  3981  0A23  3001               	movlw	1
  3982  0A24  07BB               	addwf	view_log@i,f
  3983  0A25  1803               	skipnc
  3984  0A26  0ABC               	incf	view_log@i+1,f
  3985  0A27  3000               	movlw	0
  3986  0A28  07BC               	addwf	view_log@i+1,f
  3987  0A29                     l5236:
  3988  0A29  083C               	movf	view_log@i+1,w
  3989  0A2A  3A80               	xorlw	128
  3990  0A2B  00FF               	movwf	btemp+1
  3991  0A2C  3080               	movlw	128
  3992  0A2D  027F               	subwf	btemp+1,w
  3993  0A2E  1D03               	skipz
  3994  0A2F  2A32               	goto	u6035
  3995  0A30  300A               	movlw	10
  3996  0A31  023B               	subwf	view_log@i,w
  3997  0A32                     u6035:
  3998  0A32  1C03               	skipc
  3999  0A33  2A35               	goto	u6031
  4000  0A34  2A36               	goto	u6030
  4001  0A35                     u6031:
  4002  0A35  2A01               	goto	l5230
  4003  0A36                     u6030:
  4004  0A36                     l5238:
  4005                           
  4006                           ;helper.c: 290:         clcd_putch(shift + '0', (0xC0 + (0)));
  4007  0A36  30C0               	movlw	192
  4008  0A37  1283               	bcf	3,5	;RP0=0, select bank0
  4009  0A38  1303               	bcf	3,6	;RP1=0, select bank0
  4010  0A39  00AA               	movwf	??_view_log
  4011  0A3A  082A               	movf	??_view_log,w
  4012  0A3B  00A4               	movwf	clcd_putch@addr
  4013  0A3C  1683               	bsf	3,5	;RP0=1, select bank1
  4014  0A3D  1303               	bcf	3,6	;RP1=0, select bank1
  4015  0A3E  082A               	movf	view_log@shift^(0+128),w
  4016  0A3F  3E30               	addlw	48
  4017  0A40  160A  158A  2355  120A  158A  	fcall	_clcd_putch
  4018                           
  4019                           ;helper.c: 292:         clcd_putch(rlog[0], (0xC0 + (2)));
  4020  0A45  30C2               	movlw	194
  4021  0A46  1283               	bcf	3,5	;RP0=0, select bank0
  4022  0A47  1303               	bcf	3,6	;RP1=0, select bank0
  4023  0A48  00AA               	movwf	??_view_log
  4024  0A49  082A               	movf	??_view_log,w
  4025  0A4A  00A4               	movwf	clcd_putch@addr
  4026  0A4B  082C               	movf	view_log@rlog,w
  4027  0A4C  160A  158A  2355  120A  158A  	fcall	_clcd_putch
  4028                           
  4029                           ;helper.c: 293:         clcd_putch(rlog[1], (0xC0 + (3)));
  4030  0A51  30C3               	movlw	195
  4031  0A52  1283               	bcf	3,5	;RP0=0, select bank0
  4032  0A53  1303               	bcf	3,6	;RP1=0, select bank0
  4033  0A54  00AA               	movwf	??_view_log
  4034  0A55  082A               	movf	??_view_log,w
  4035  0A56  00A4               	movwf	clcd_putch@addr
  4036  0A57  082D               	movf	view_log@rlog+1,w
  4037  0A58  160A  158A  2355  120A  158A  	fcall	_clcd_putch
  4038                           
  4039                           ;helper.c: 294:         clcd_putch(':', (0xC0 + (4)));
  4040  0A5D  30C4               	movlw	196
  4041  0A5E  1283               	bcf	3,5	;RP0=0, select bank0
  4042  0A5F  1303               	bcf	3,6	;RP1=0, select bank0
  4043  0A60  00AA               	movwf	??_view_log
  4044  0A61  082A               	movf	??_view_log,w
  4045  0A62  00A4               	movwf	clcd_putch@addr
  4046  0A63  303A               	movlw	58
  4047  0A64  160A  158A  2355  120A  158A  	fcall	_clcd_putch
  4048                           
  4049                           ;helper.c: 295:         clcd_putch(rlog[2], (0xC0 + (5)));
  4050  0A69  30C5               	movlw	197
  4051  0A6A  1283               	bcf	3,5	;RP0=0, select bank0
  4052  0A6B  1303               	bcf	3,6	;RP1=0, select bank0
  4053  0A6C  00AA               	movwf	??_view_log
  4054  0A6D  082A               	movf	??_view_log,w
  4055  0A6E  00A4               	movwf	clcd_putch@addr
  4056  0A6F  082E               	movf	view_log@rlog+2,w
  4057  0A70  160A  158A  2355  120A  158A  	fcall	_clcd_putch
  4058                           
  4059                           ;helper.c: 296:         clcd_putch(rlog[3], (0xC0 + (6)));
  4060  0A75  30C6               	movlw	198
  4061  0A76  1283               	bcf	3,5	;RP0=0, select bank0
  4062  0A77  1303               	bcf	3,6	;RP1=0, select bank0
  4063  0A78  00AA               	movwf	??_view_log
  4064  0A79  082A               	movf	??_view_log,w
  4065  0A7A  00A4               	movwf	clcd_putch@addr
  4066  0A7B  082F               	movf	view_log@rlog+3,w
  4067  0A7C  160A  158A  2355  120A  158A  	fcall	_clcd_putch
  4068                           
  4069                           ;helper.c: 297:         clcd_putch(':', (0xC0 + (7)));
  4070  0A81  30C7               	movlw	199
  4071  0A82  1283               	bcf	3,5	;RP0=0, select bank0
  4072  0A83  1303               	bcf	3,6	;RP1=0, select bank0
  4073  0A84  00AA               	movwf	??_view_log
  4074  0A85  082A               	movf	??_view_log,w
  4075  0A86  00A4               	movwf	clcd_putch@addr
  4076  0A87  303A               	movlw	58
  4077  0A88  160A  158A  2355  120A  158A  	fcall	_clcd_putch
  4078                           
  4079                           ;helper.c: 298:         clcd_putch(rlog[4], (0xC0 + (8)));
  4080  0A8D  30C8               	movlw	200
  4081  0A8E  1283               	bcf	3,5	;RP0=0, select bank0
  4082  0A8F  1303               	bcf	3,6	;RP1=0, select bank0
  4083  0A90  00AA               	movwf	??_view_log
  4084  0A91  082A               	movf	??_view_log,w
  4085  0A92  00A4               	movwf	clcd_putch@addr
  4086  0A93  0830               	movf	view_log@rlog+4,w
  4087  0A94  160A  158A  2355  120A  158A  	fcall	_clcd_putch
  4088                           
  4089                           ;helper.c: 299:         clcd_putch(rlog[5], (0xC0 + (9)));
  4090  0A99  30C9               	movlw	201
  4091  0A9A  1283               	bcf	3,5	;RP0=0, select bank0
  4092  0A9B  1303               	bcf	3,6	;RP1=0, select bank0
  4093  0A9C  00AA               	movwf	??_view_log
  4094  0A9D  082A               	movf	??_view_log,w
  4095  0A9E  00A4               	movwf	clcd_putch@addr
  4096  0A9F  0831               	movf	view_log@rlog+5,w
  4097  0AA0  160A  158A  2355  120A  158A  	fcall	_clcd_putch
  4098                           
  4099                           ;helper.c: 302:         clcd_putch(rlog[6], (0xC0 + (11)));
  4100  0AA5  30CB               	movlw	203
  4101  0AA6  1283               	bcf	3,5	;RP0=0, select bank0
  4102  0AA7  1303               	bcf	3,6	;RP1=0, select bank0
  4103  0AA8  00AA               	movwf	??_view_log
  4104  0AA9  082A               	movf	??_view_log,w
  4105  0AAA  00A4               	movwf	clcd_putch@addr
  4106  0AAB  0832               	movf	view_log@rlog+6,w
  4107  0AAC  160A  158A  2355  120A  158A  	fcall	_clcd_putch
  4108                           
  4109                           ;helper.c: 303:         clcd_putch(rlog[7], (0xC0 + (12)));
  4110  0AB1  30CC               	movlw	204
  4111  0AB2  1283               	bcf	3,5	;RP0=0, select bank0
  4112  0AB3  1303               	bcf	3,6	;RP1=0, select bank0
  4113  0AB4  00AA               	movwf	??_view_log
  4114  0AB5  082A               	movf	??_view_log,w
  4115  0AB6  00A4               	movwf	clcd_putch@addr
  4116  0AB7  0833               	movf	view_log@rlog+7,w
  4117  0AB8  160A  158A  2355  120A  158A  	fcall	_clcd_putch
  4118                           
  4119                           ;helper.c: 306:         clcd_putch(rlog[8], (0xC0 + (14)));
  4120  0ABD  30CE               	movlw	206
  4121  0ABE  1283               	bcf	3,5	;RP0=0, select bank0
  4122  0ABF  1303               	bcf	3,6	;RP1=0, select bank0
  4123  0AC0  00AA               	movwf	??_view_log
  4124  0AC1  082A               	movf	??_view_log,w
  4125  0AC2  00A4               	movwf	clcd_putch@addr
  4126  0AC3  0834               	movf	view_log@rlog+8,w
  4127  0AC4  160A  158A  2355  120A  158A  	fcall	_clcd_putch
  4128                           
  4129                           ;helper.c: 307:         clcd_putch(rlog[9], (0xC0 + (15)));
  4130  0AC9  30CF               	movlw	207
  4131  0ACA  1283               	bcf	3,5	;RP0=0, select bank0
  4132  0ACB  1303               	bcf	3,6	;RP1=0, select bank0
  4133  0ACC  00AA               	movwf	??_view_log
  4134  0ACD  082A               	movf	??_view_log,w
  4135  0ACE  00A4               	movwf	clcd_putch@addr
  4136  0ACF  0835               	movf	view_log@rlog+9,w
  4137  0AD0  160A  158A  2355  120A  158A  	fcall	_clcd_putch
  4138  0AD5                     l272:
  4139  0AD5  0008               	return
  4140  0AD6                     __end_of_view_log:
  4141                           
  4142                           	psect	text2
  4143  1C92                     __ptext2:	
  4144 ;; *************** function _strcpy *****************
  4145 ;; Defined at:
  4146 ;;		line 8 in file "/opt/microchip/xc8/v2.32/pic/sources/c90/common/strcpy.c"
  4147 ;; Parameters:    Size  Location     Type
  4148 ;;  to              1    wreg     PTR unsigned char 
  4149 ;;		 -> main@event(3), 
  4150 ;;  from            2    3[COMMON] PTR const unsigned char 
  4151 ;;		 -> STR_32(3), STR_31(3), STR_30(3), STR_29(3), 
  4152 ;;		 -> STR_28(3), STR_27(3), STR_26(3), 
  4153 ;; Auto vars:     Size  Location     Type
  4154 ;;  to              1    7[COMMON] PTR unsigned char 
  4155 ;;		 -> main@event(3), 
  4156 ;;  cp              1    6[COMMON] PTR unsigned char 
  4157 ;;		 -> main@event(3), 
  4158 ;; Return value:  Size  Location     Type
  4159 ;;                  1    wreg      PTR unsigned char 
  4160 ;; Registers used:
  4161 ;;		wreg, fsr0l, fsr0h, status,2, status,0, btemp+1, pclath
  4162 ;; Tracked objects:
  4163 ;;		On entry : 0/0
  4164 ;;		On exit  : 0/0
  4165 ;;		Unchanged: 0/0
  4166 ;; Data sizes:     COMMON   BANK0   BANK1   BANK3   BANK2
  4167 ;;      Params:         2       0       0       0       0
  4168 ;;      Locals:         2       0       0       0       0
  4169 ;;      Temps:          1       0       0       0       0
  4170 ;;      Totals:         5       0       0       0       0
  4171 ;;Total ram usage:        5 bytes
  4172 ;; Hardware stack levels used: 2
  4173 ;; Hardware stack levels required when called: 1
  4174 ;; This function calls:
  4175 ;;		Nothing
  4176 ;; This function is called by:
  4177 ;;		_main
  4178 ;; This function uses a non-reentrant model
  4179 ;;
  4180                           
  4181                           
  4182                           ;psect for function _strcpy
  4183  1C92                     _strcpy:
  4184                           
  4185                           ;incstack = 0
  4186                           ; Regs used in _strcpy: [wreg-fsr0h+status,2+status,0+btemp+1+pclath]
  4187                           ;strcpy@to stored from wreg
  4188  1C92  00F7               	movwf	strcpy@to
  4189  1C93                     l5488:
  4190  1C93  0877               	movf	strcpy@to,w
  4191  1C94  00F5               	movwf	??_strcpy
  4192  1C95  0875               	movf	??_strcpy,w
  4193  1C96  00F6               	movwf	strcpy@cp
  4194  1C97  2CA2               	goto	l5494
  4195  1C98                     l5490:
  4196  1C98  3001               	movlw	1
  4197  1C99  00F5               	movwf	??_strcpy
  4198  1C9A  0875               	movf	??_strcpy,w
  4199  1C9B  07F6               	addwf	strcpy@cp,f
  4200  1C9C                     l5492:
  4201  1C9C  3001               	movlw	1
  4202  1C9D  07F3               	addwf	strcpy@from,f
  4203  1C9E  1803               	skipnc
  4204  1C9F  0AF4               	incf	strcpy@from+1,f
  4205  1CA0  3000               	movlw	0
  4206  1CA1  07F4               	addwf	strcpy@from+1,f
  4207  1CA2                     l5494:
  4208  1CA2  0874               	movf	strcpy@from+1,w
  4209  1CA3  1283               	bcf	3,5	;RP0=0, select bank0
  4210  1CA4  1303               	bcf	3,6	;RP1=0, select bank0
  4211  1CA5  00FF               	movwf	btemp+1
  4212  1CA6  0873               	movf	strcpy@from,w
  4213  1CA7  0084               	movwf	4
  4214  1CA8  160A  158A  2000  160A  158A  	fcall	stringtab
  4215  1CAD  00F5               	movwf	??_strcpy
  4216  1CAE  0876               	movf	strcpy@cp,w
  4217  1CAF  0084               	movwf	4
  4218  1CB0  0875               	movf	??_strcpy,w
  4219  1CB1  1783               	bsf	3,7	;select IRP bank2
  4220  1CB2  0080               	movwf	0
  4221  1CB3  0800               	movf	0,w
  4222  1CB4  1D03               	btfss	3,2
  4223  1CB5  2CB7               	goto	u6491
  4224  1CB6  2CB8               	goto	u6490
  4225  1CB7                     u6491:
  4226  1CB7  2C98               	goto	l5490
  4227  1CB8                     u6490:
  4228  1CB8                     l1163:
  4229  1CB8  0008               	return
  4230  1CB9                     __end_of_strcpy:
  4231                           
  4232                           	psect	text3
  4233  0AD6                     __ptext3:	
  4234 ;; *************** function _set_time *****************
  4235 ;; Defined at:
  4236 ;;		line 373 in file "helper.c"
  4237 ;; Parameters:    Size  Location     Type
  4238 ;;  key             1    wreg     unsigned char 
  4239 ;;  reset_time      1   11[BANK0 ] unsigned char 
  4240 ;; Auto vars:     Size  Location     Type
  4241 ;;  key             1   14[BANK0 ] unsigned char 
  4242 ;; Return value:  Size  Location     Type
  4243 ;;                  1    wreg      unsigned char 
  4244 ;; Registers used:
  4245 ;;		wreg, fsr0l, fsr0h, status,2, status,0, pclath, cstack
  4246 ;; Tracked objects:
  4247 ;;		On entry : 0/0
  4248 ;;		On exit  : 0/0
  4249 ;;		Unchanged: 0/0
  4250 ;; Data sizes:     COMMON   BANK0   BANK1   BANK3   BANK2
  4251 ;;      Params:         0       1       0       0       0
  4252 ;;      Locals:         0       1       0       0       0
  4253 ;;      Temps:          0       2       0       0       0
  4254 ;;      Totals:         0       4       0       0       0
  4255 ;;Total ram usage:        4 bytes
  4256 ;; Hardware stack levels used: 1
  4257 ;; Hardware stack levels required when called: 5
  4258 ;; This function calls:
  4259 ;;		_clcd_putch
  4260 ;;		_display_time
  4261 ;;		_get_time
  4262 ;;		_write_ds1307
  4263 ;; This function is called by:
  4264 ;;		_main
  4265 ;; This function uses a non-reentrant model
  4266 ;;
  4267                           
  4268                           
  4269                           ;psect for function _set_time
  4270  0AD6                     _set_time:
  4271                           
  4272                           ;incstack = 0
  4273                           ; Regs used in _set_time: [wreg-fsr0h+status,2+status,0+pclath+cstack]
  4274                           ;set_time@key stored from wreg
  4275  0AD6  1283               	bcf	3,5	;RP0=0, select bank0
  4276  0AD7  1303               	bcf	3,6	;RP1=0, select bank0
  4277  0AD8  00AE               	movwf	set_time@key
  4278  0AD9                     l5316:
  4279                           
  4280                           ;helper.c: 373: char set_time( unsigned char key ,unsigned char reset_time );helper.c: 3
      +                          74: {;helper.c: 375:     static unsigned char pos, cursor_pos, set_flag, flag;;helper.c:
      +                           376:     static int wait = 0;;helper.c: 377:     static int num;;helper.c: 378:     if 
      +                          (reset_time == 0x10)
  4281  0AD9  3010               	movlw	16
  4282  0ADA  062B               	xorwf	set_time@reset_time,w
  4283  0ADB  1D03               	btfss	3,2
  4284  0ADC  2ADE               	goto	u6151
  4285  0ADD  2ADF               	goto	u6150
  4286  0ADE                     u6151:
  4287  0ADE  2AF9               	goto	l5330
  4288  0ADF                     u6150:
  4289  0ADF                     l5318:
  4290                           
  4291                           ;helper.c: 379:     {;helper.c: 380:         pos = 5;
  4292  0ADF  3005               	movlw	5
  4293  0AE0  00AC               	movwf	??_set_time
  4294  0AE1  082C               	movf	??_set_time,w
  4295  0AE2  00E1               	movwf	set_time@pos
  4296                           
  4297                           ;helper.c: 381:         cursor_pos = 7;
  4298  0AE3  3007               	movlw	7
  4299  0AE4  00AC               	movwf	??_set_time
  4300  0AE5  082C               	movf	??_set_time,w
  4301  0AE6  00E0               	movwf	set_time@cursor_pos
  4302  0AE7                     l5320:
  4303                           
  4304                           ;helper.c: 382:         get_time();
  4305  0AE7  160A  118A  251C  120A  158A  	fcall	_get_time
  4306  0AEC                     l5322:
  4307                           
  4308                           ;helper.c: 383:         display_time();
  4309  0AEC  160A  118A  23BD  120A  158A  	fcall	_display_time
  4310  0AF1                     l5324:
  4311                           
  4312                           ;helper.c: 384:         set_flag = 0;
  4313  0AF1  1683               	bsf	3,5	;RP0=1, select bank1
  4314  0AF2  1303               	bcf	3,6	;RP1=0, select bank1
  4315  0AF3  01B3               	clrf	set_time@set_flag^(0+128)
  4316  0AF4                     l5326:
  4317                           
  4318                           ;helper.c: 385:         flag = 1;
  4319  0AF4  01B2               	clrf	set_time@flag^(0+128)
  4320  0AF5  0AB2               	incf	set_time@flag^(0+128),f
  4321  0AF6                     l5328:
  4322                           
  4323                           ;helper.c: 386:         key = 0x00;
  4324  0AF6  1283               	bcf	3,5	;RP0=0, select bank0
  4325  0AF7  1303               	bcf	3,6	;RP1=0, select bank0
  4326  0AF8  01AE               	clrf	set_time@key
  4327  0AF9                     l5330:
  4328                           
  4329                           ;helper.c: 389:     if (wait++ == 100)
  4330  0AF9  3001               	movlw	1
  4331  0AFA  1683               	bsf	3,5	;RP0=1, select bank1
  4332  0AFB  1303               	bcf	3,6	;RP1=0, select bank1
  4333  0AFC  07A6               	addwf	set_time@wait^(0+128),f
  4334  0AFD  1803               	skipnc
  4335  0AFE  0AA7               	incf	(set_time@wait+1)^(0+128),f
  4336  0AFF  3000               	movlw	0
  4337  0B00  07A7               	addwf	(set_time@wait+1)^(0+128),f
  4338  0B01  3065               	movlw	101
  4339  0B02  0626               	xorwf	set_time@wait^(0+128),w
  4340  0B03  0427               	iorwf	(set_time@wait+1)^(0+128),w
  4341  0B04  1D03               	btfss	3,2
  4342  0B05  2B07               	goto	u6161
  4343  0B06  2B08               	goto	u6160
  4344  0B07                     u6161:
  4345  0B07  2B3C               	goto	l5342
  4346  0B08                     u6160:
  4347  0B08                     l5332:
  4348                           
  4349                           ;helper.c: 390:     {;helper.c: 391:         wait = 0;
  4350  0B08  01A6               	clrf	set_time@wait^(0+128)
  4351  0B09  01A7               	clrf	(set_time@wait+1)^(0+128)
  4352  0B0A                     l5334:
  4353                           
  4354                           ;helper.c: 392:         flag = !flag;
  4355  0B0A  0832               	movf	set_time@flag^(0+128),w
  4356  0B0B  1903               	btfsc	3,2
  4357  0B0C  2B0E               	goto	u6171
  4358  0B0D  2B10               	goto	u6170
  4359  0B0E                     u6171:
  4360  0B0E  3001               	movlw	1
  4361  0B0F  2B11               	goto	u6180
  4362  0B10                     u6170:
  4363  0B10  3000               	movlw	0
  4364  0B11                     u6180:
  4365  0B11  1283               	bcf	3,5	;RP0=0, select bank0
  4366  0B12  1303               	bcf	3,6	;RP1=0, select bank0
  4367  0B13  00AC               	movwf	??_set_time
  4368  0B14  082C               	movf	??_set_time,w
  4369  0B15  1683               	bsf	3,5	;RP0=1, select bank1
  4370  0B16  1303               	bcf	3,6	;RP1=0, select bank1
  4371  0B17  00B2               	movwf	set_time@flag^(0+128)
  4372  0B18                     l5336:
  4373                           
  4374                           ;helper.c: 393:         if (flag == 1)
  4375  0B18  0332               	decf	set_time@flag^(0+128),w
  4376  0B19  1D03               	btfss	3,2
  4377  0B1A  2B1C               	goto	u6191
  4378  0B1B  2B1D               	goto	u6190
  4379  0B1C                     u6191:
  4380  0B1C  2B2B               	goto	l5340
  4381  0B1D                     u6190:
  4382  0B1D                     l5338:
  4383                           
  4384                           ;helper.c: 394:             clcd_putch(0xff,(0xC0 + (cursor_pos)));
  4385  0B1D  1283               	bcf	3,5	;RP0=0, select bank0
  4386  0B1E  1303               	bcf	3,6	;RP1=0, select bank0
  4387  0B1F  0860               	movf	set_time@cursor_pos,w
  4388  0B20  3EC0               	addlw	192
  4389  0B21  00AC               	movwf	??_set_time
  4390  0B22  082C               	movf	??_set_time,w
  4391  0B23  00A4               	movwf	clcd_putch@addr
  4392  0B24  30FF               	movlw	255
  4393  0B25  160A  158A  2355  120A  158A  	fcall	_clcd_putch
  4394  0B2A  2B3C               	goto	l5342
  4395  0B2B                     l5340:
  4396                           
  4397                           ;helper.c: 396:             clcd_putch(time[pos], (0xC0 + (cursor_pos)));
  4398  0B2B  1283               	bcf	3,5	;RP0=0, select bank0
  4399  0B2C  1303               	bcf	3,6	;RP1=0, select bank0
  4400  0B2D  0860               	movf	set_time@cursor_pos,w
  4401  0B2E  3EC0               	addlw	192
  4402  0B2F  00AC               	movwf	??_set_time
  4403  0B30  082C               	movf	??_set_time,w
  4404  0B31  00A4               	movwf	clcd_putch@addr
  4405  0B32  0861               	movf	set_time@pos,w
  4406  0B33  3EC1               	addlw	(low (_time| 0))& (0+255)
  4407  0B34  0084               	movwf	4
  4408  0B35  1383               	bcf	3,7	;select IRP bank1
  4409  0B36  0800               	movf	0,w
  4410  0B37  160A  158A  2355  120A  158A  	fcall	_clcd_putch
  4411  0B3C                     l5342:
  4412                           
  4413                           ;helper.c: 400:     if(key == 0x37)
  4414  0B3C  3037               	movlw	55
  4415  0B3D  1283               	bcf	3,5	;RP0=0, select bank0
  4416  0B3E  1303               	bcf	3,6	;RP1=0, select bank0
  4417  0B3F  062E               	xorwf	set_time@key,w
  4418  0B40  1D03               	btfss	3,2
  4419  0B41  2B43               	goto	u6201
  4420  0B42  2B44               	goto	u6200
  4421  0B43                     u6201:
  4422  0B43  2BC6               	goto	l5382
  4423  0B44                     u6200:
  4424  0B44                     l5344:
  4425                           
  4426                           ;helper.c: 401:     {;helper.c: 402:         time[pos]++;
  4427  0B44  3001               	movlw	1
  4428  0B45  00AC               	movwf	??_set_time
  4429  0B46  0861               	movf	set_time@pos,w
  4430  0B47  3EC1               	addlw	(low (_time| 0))& (0+255)
  4431  0B48  0084               	movwf	4
  4432  0B49  082C               	movf	??_set_time,w
  4433  0B4A  1383               	bcf	3,7	;select IRP bank1
  4434  0B4B  0780               	addwf	0,f
  4435  0B4C                     l5346:
  4436                           
  4437                           ;helper.c: 403:         if((pos == 5 || pos == 3) && time[pos] > '9')
  4438  0B4C  3005               	movlw	5
  4439  0B4D  0661               	xorwf	set_time@pos,w
  4440  0B4E  1903               	btfsc	3,2
  4441  0B4F  2B51               	goto	u6211
  4442  0B50  2B52               	goto	u6210
  4443  0B51                     u6211:
  4444  0B51  2B58               	goto	l5350
  4445  0B52                     u6210:
  4446  0B52                     l5348:
  4447  0B52  3003               	movlw	3
  4448  0B53  0661               	xorwf	set_time@pos,w
  4449  0B54  1D03               	btfss	3,2
  4450  0B55  2B57               	goto	u6221
  4451  0B56  2B58               	goto	u6220
  4452  0B57                     u6221:
  4453  0B57  2B69               	goto	l5354
  4454  0B58                     u6220:
  4455  0B58                     l5350:
  4456  0B58  0861               	movf	set_time@pos,w
  4457  0B59  3EC1               	addlw	(low (_time| 0))& (0+255)
  4458  0B5A  0084               	movwf	4
  4459  0B5B  303A               	movlw	58
  4460  0B5C  0200               	subwf	0,w
  4461  0B5D  1C03               	skipc
  4462  0B5E  2B60               	goto	u6231
  4463  0B5F  2B61               	goto	u6230
  4464  0B60                     u6231:
  4465  0B60  2B69               	goto	l5354
  4466  0B61                     u6230:
  4467  0B61                     l5352:
  4468                           
  4469                           ;helper.c: 404:             time[pos] = '0';
  4470  0B61  3030               	movlw	48
  4471  0B62  00AC               	movwf	??_set_time
  4472  0B63  0861               	movf	set_time@pos,w
  4473  0B64  3EC1               	addlw	(low (_time| 0))& (0+255)
  4474  0B65  0084               	movwf	4
  4475  0B66  082C               	movf	??_set_time,w
  4476  0B67  0080               	movwf	0
  4477  0B68  2BBC               	goto	l5378
  4478  0B69                     l5354:
  4479  0B69  3004               	movlw	4
  4480  0B6A  0661               	xorwf	set_time@pos,w
  4481  0B6B  1903               	btfsc	3,2
  4482  0B6C  2B6E               	goto	u6241
  4483  0B6D  2B6F               	goto	u6240
  4484  0B6E                     u6241:
  4485  0B6E  2B75               	goto	l5358
  4486  0B6F                     u6240:
  4487  0B6F                     l5356:
  4488  0B6F  3002               	movlw	2
  4489  0B70  0661               	xorwf	set_time@pos,w
  4490  0B71  1D03               	btfss	3,2
  4491  0B72  2B74               	goto	u6251
  4492  0B73  2B75               	goto	u6250
  4493  0B74                     u6251:
  4494  0B74  2B7F               	goto	l5362
  4495  0B75                     u6250:
  4496  0B75                     l5358:
  4497  0B75  0861               	movf	set_time@pos,w
  4498  0B76  3EC1               	addlw	(low (_time| 0))& (0+255)
  4499  0B77  0084               	movwf	4
  4500  0B78  3036               	movlw	54
  4501  0B79  0200               	subwf	0,w
  4502  0B7A  1C03               	skipc
  4503  0B7B  2B7D               	goto	u6261
  4504  0B7C  2B7E               	goto	u6260
  4505  0B7D                     u6261:
  4506  0B7D  2B7F               	goto	l5362
  4507  0B7E                     u6260:
  4508  0B7E  2B61               	goto	l5352
  4509  0B7F                     l5362:
  4510  0B7F  0361               	decf	set_time@pos,w
  4511  0B80  1903               	btfsc	3,2
  4512  0B81  2B83               	goto	u6271
  4513  0B82  2B84               	goto	u6270
  4514  0B83                     u6271:
  4515  0B83  2B89               	goto	l5366
  4516  0B84                     u6270:
  4517  0B84                     l5364:
  4518  0B84  0861               	movf	set_time@pos,w
  4519  0B85  1D03               	btfss	3,2
  4520  0B86  2B88               	goto	u6281
  4521  0B87  2B89               	goto	u6280
  4522  0B88                     u6281:
  4523  0B88  2BBC               	goto	l5378
  4524  0B89                     u6280:
  4525  0B89                     l5366:
  4526                           
  4527                           ;helper.c: 408:         {;helper.c: 410:             if (time[1] > '9')
  4528  0B89  303A               	movlw	58
  4529  0B8A  1683               	bsf	3,5	;RP0=1, select bank1
  4530  0B8B  1303               	bcf	3,6	;RP1=0, select bank1
  4531  0B8C  0242               	subwf	(_time^(0+128)+1),w
  4532  0B8D  1C03               	skipc
  4533  0B8E  2B90               	goto	u6291
  4534  0B8F  2B91               	goto	u6290
  4535  0B90                     u6291:
  4536  0B90  2B99               	goto	l5370
  4537  0B91                     u6290:
  4538  0B91                     l5368:
  4539                           
  4540                           ;helper.c: 411:                 time[1] = '0';
  4541  0B91  3030               	movlw	48
  4542  0B92  1283               	bcf	3,5	;RP0=0, select bank0
  4543  0B93  1303               	bcf	3,6	;RP1=0, select bank0
  4544  0B94  00AC               	movwf	??_set_time
  4545  0B95  082C               	movf	??_set_time,w
  4546  0B96  1683               	bsf	3,5	;RP0=1, select bank1
  4547  0B97  1303               	bcf	3,6	;RP1=0, select bank1
  4548  0B98  00C2               	movwf	(_time^(0+128)+1)
  4549  0B99                     l5370:
  4550                           
  4551                           ;helper.c: 413:             if (time[0] == '2' && time[1] > '3')
  4552  0B99  3032               	movlw	50
  4553  0B9A  0641               	xorwf	_time^(0+128),w
  4554  0B9B  1D03               	btfss	3,2
  4555  0B9C  2B9E               	goto	u6301
  4556  0B9D  2B9F               	goto	u6300
  4557  0B9E                     u6301:
  4558  0B9E  2BAD               	goto	l330
  4559  0B9F                     u6300:
  4560  0B9F                     l5372:
  4561  0B9F  3034               	movlw	52
  4562  0BA0  0242               	subwf	(_time^(0+128)+1),w
  4563  0BA1  1C03               	skipc
  4564  0BA2  2BA4               	goto	u6311
  4565  0BA3  2BA5               	goto	u6310
  4566  0BA4                     u6311:
  4567  0BA4  2BAD               	goto	l330
  4568  0BA5                     u6310:
  4569  0BA5                     l5374:
  4570                           
  4571                           ;helper.c: 414:                 time[1] = '0';
  4572  0BA5  3030               	movlw	48
  4573  0BA6  1283               	bcf	3,5	;RP0=0, select bank0
  4574  0BA7  1303               	bcf	3,6	;RP1=0, select bank0
  4575  0BA8  00AC               	movwf	??_set_time
  4576  0BA9  082C               	movf	??_set_time,w
  4577  0BAA  1683               	bsf	3,5	;RP0=1, select bank1
  4578  0BAB  1303               	bcf	3,6	;RP1=0, select bank1
  4579  0BAC  00C2               	movwf	(_time^(0+128)+1)
  4580  0BAD                     l330:
  4581                           
  4582                           ;helper.c: 416:             if (time[0] > '2')
  4583  0BAD  3033               	movlw	51
  4584  0BAE  0241               	subwf	_time^(0+128),w
  4585  0BAF  1C03               	skipc
  4586  0BB0  2BB2               	goto	u6321
  4587  0BB1  2BB3               	goto	u6320
  4588  0BB2                     u6321:
  4589  0BB2  2BBC               	goto	l325
  4590  0BB3                     u6320:
  4591  0BB3                     l5376:
  4592                           
  4593                           ;helper.c: 417:                 time[0] = '0';
  4594  0BB3  3030               	movlw	48
  4595  0BB4  1283               	bcf	3,5	;RP0=0, select bank0
  4596  0BB5  1303               	bcf	3,6	;RP1=0, select bank0
  4597  0BB6  00AC               	movwf	??_set_time
  4598  0BB7  082C               	movf	??_set_time,w
  4599  0BB8  1683               	bsf	3,5	;RP0=1, select bank1
  4600  0BB9  1303               	bcf	3,6	;RP1=0, select bank1
  4601  0BBA  00C1               	movwf	_time^(0+128)
  4602  0BBB  2BBC               	goto	l5378
  4603  0BBC                     l325:
  4604  0BBC                     l5378:
  4605                           
  4606                           ;helper.c: 419:         display_time();
  4607  0BBC  160A  118A  23BD  120A  158A  	fcall	_display_time
  4608  0BC1                     l5380:
  4609                           
  4610                           ;helper.c: 420:         set_flag = 1;
  4611  0BC1  1683               	bsf	3,5	;RP0=1, select bank1
  4612  0BC2  1303               	bcf	3,6	;RP1=0, select bank1
  4613  0BC3  01B3               	clrf	set_time@set_flag^(0+128)
  4614  0BC4  0AB3               	incf	set_time@set_flag^(0+128),f
  4615                           
  4616                           ;helper.c: 421:     }
  4617  0BC5  2BF7               	goto	l5402
  4618  0BC6                     l5382:
  4619  0BC6  302F               	movlw	47
  4620  0BC7  062E               	xorwf	set_time@key,w
  4621  0BC8  1D03               	btfss	3,2
  4622  0BC9  2BCB               	goto	u6331
  4623  0BCA  2BCC               	goto	u6330
  4624  0BCB                     u6331:
  4625  0BCB  2BF7               	goto	l5402
  4626  0BCC                     u6330:
  4627  0BCC                     l5384:
  4628                           
  4629                           ;helper.c: 423:     {;helper.c: 424:         cursor_pos--;
  4630  0BCC  3001               	movlw	1
  4631  0BCD  02E0               	subwf	set_time@cursor_pos,f
  4632                           
  4633                           ;helper.c: 425:         pos--;
  4634  0BCE  3001               	movlw	1
  4635  0BCF  02E1               	subwf	set_time@pos,f
  4636  0BD0                     l5386:
  4637                           
  4638                           ;helper.c: 426:         if (pos > 5)
  4639  0BD0  3006               	movlw	6
  4640  0BD1  0261               	subwf	set_time@pos,w
  4641  0BD2  1C03               	skipc
  4642  0BD3  2BD5               	goto	u6341
  4643  0BD4  2BD6               	goto	u6340
  4644  0BD5                     u6341:
  4645  0BD5  2BDA               	goto	l5390
  4646  0BD6                     u6340:
  4647  0BD6                     l5388:
  4648                           
  4649                           ;helper.c: 427:             pos = 5;
  4650  0BD6  3005               	movlw	5
  4651  0BD7  00AC               	movwf	??_set_time
  4652  0BD8  082C               	movf	??_set_time,w
  4653  0BD9  00E1               	movwf	set_time@pos
  4654  0BDA                     l5390:
  4655                           
  4656                           ;helper.c: 430:         if (cursor_pos == 2 || cursor_pos == 5)
  4657  0BDA  3002               	movlw	2
  4658  0BDB  0660               	xorwf	set_time@cursor_pos,w
  4659  0BDC  1903               	btfsc	3,2
  4660  0BDD  2BDF               	goto	u6351
  4661  0BDE  2BE0               	goto	u6350
  4662  0BDF                     u6351:
  4663  0BDF  2BE6               	goto	l5394
  4664  0BE0                     u6350:
  4665  0BE0                     l5392:
  4666  0BE0  3005               	movlw	5
  4667  0BE1  0660               	xorwf	set_time@cursor_pos,w
  4668  0BE2  1D03               	btfss	3,2
  4669  0BE3  2BE5               	goto	u6361
  4670  0BE4  2BE6               	goto	u6360
  4671  0BE5                     u6361:
  4672  0BE5  2BE8               	goto	l5396
  4673  0BE6                     u6360:
  4674  0BE6                     l5394:
  4675                           
  4676                           ;helper.c: 431:             cursor_pos--;
  4677  0BE6  3001               	movlw	1
  4678  0BE7  02E0               	subwf	set_time@cursor_pos,f
  4679  0BE8                     l5396:
  4680                           
  4681                           ;helper.c: 432:         if(cursor_pos > 7)
  4682  0BE8  3008               	movlw	8
  4683  0BE9  0260               	subwf	set_time@cursor_pos,w
  4684  0BEA  1C03               	skipc
  4685  0BEB  2BED               	goto	u6371
  4686  0BEC  2BEE               	goto	u6370
  4687  0BED                     u6371:
  4688  0BED  2BF2               	goto	l5400
  4689  0BEE                     u6370:
  4690  0BEE                     l5398:
  4691                           
  4692                           ;helper.c: 433:             cursor_pos = 7;
  4693  0BEE  3007               	movlw	7
  4694  0BEF  00AC               	movwf	??_set_time
  4695  0BF0  082C               	movf	??_set_time,w
  4696  0BF1  00E0               	movwf	set_time@cursor_pos
  4697  0BF2                     l5400:
  4698                           
  4699                           ;helper.c: 434:         display_time();
  4700  0BF2  160A  118A  23BD  120A  158A  	fcall	_display_time
  4701  0BF7                     l5402:
  4702                           
  4703                           ;helper.c: 436:     if (set_flag == 1)
  4704  0BF7  1683               	bsf	3,5	;RP0=1, select bank1
  4705  0BF8  1303               	bcf	3,6	;RP1=0, select bank1
  4706  0BF9  0333               	decf	set_time@set_flag^(0+128),w
  4707  0BFA  1D03               	btfss	3,2
  4708  0BFB  2BFD               	goto	u6381
  4709  0BFC  2BFE               	goto	u6380
  4710  0BFD                     u6381:
  4711  0BFD  2C68               	goto	l340
  4712  0BFE                     u6380:
  4713  0BFE                     l5404:
  4714                           
  4715                           ;helper.c: 437:     {;helper.c: 438:         set_flag = 0;
  4716  0BFE  01B3               	clrf	set_time@set_flag^(0+128)
  4717                           
  4718                           ;helper.c: 440:         clock_reg[0] = 0x00;
  4719  0BFF  1283               	bcf	3,5	;RP0=0, select bank0
  4720  0C00  1303               	bcf	3,6	;RP1=0, select bank0
  4721  0C01  01D5               	clrf	_clock_reg
  4722  0C02                     l5406:
  4723                           
  4724                           ;helper.c: 442:         clock_reg[0] |= ((time[0] - '0') << 4) | (time[1] - '0');
  4725  0C02  1683               	bsf	3,5	;RP0=1, select bank1
  4726  0C03  1303               	bcf	3,6	;RP1=0, select bank1
  4727  0C04  0841               	movf	_time^(0+128),w
  4728  0C05  1283               	bcf	3,5	;RP0=0, select bank0
  4729  0C06  1303               	bcf	3,6	;RP1=0, select bank0
  4730  0C07  00AC               	movwf	??_set_time
  4731  0C08  3004               	movlw	4
  4732  0C09                     u6395:
  4733  0C09  1003               	clrc
  4734  0C0A  0DAC               	rlf	??_set_time,f
  4735  0C0B  3EFF               	addlw	-1
  4736  0C0C  1D03               	skipz
  4737  0C0D  2C09               	goto	u6395
  4738  0C0E  1683               	bsf	3,5	;RP0=1, select bank1
  4739  0C0F  1303               	bcf	3,6	;RP1=0, select bank1
  4740  0C10  0842               	movf	(_time^(0+128)+1),w
  4741  0C11  3ED0               	addlw	208
  4742  0C12  1283               	bcf	3,5	;RP0=0, select bank0
  4743  0C13  1303               	bcf	3,6	;RP1=0, select bank0
  4744  0C14  042C               	iorwf	??_set_time,w
  4745  0C15  00AD               	movwf	??_set_time+1
  4746  0C16  082D               	movf	??_set_time+1,w
  4747  0C17  04D5               	iorwf	_clock_reg,f
  4748  0C18                     l5408:
  4749                           
  4750                           ;helper.c: 443:         write_ds1307(0x02, clock_reg[0]);
  4751  0C18  0855               	movf	_clock_reg,w
  4752  0C19  00AC               	movwf	??_set_time
  4753  0C1A  082C               	movf	??_set_time,w
  4754  0C1B  00A0               	movwf	write_ds1307@data
  4755  0C1C  3002               	movlw	2
  4756  0C1D  160A  158A  2423  120A  158A  	fcall	_write_ds1307
  4757  0C22                     l5410:
  4758                           
  4759                           ;helper.c: 446:         clock_reg[1] = 0x00;
  4760  0C22  1283               	bcf	3,5	;RP0=0, select bank0
  4761  0C23  1303               	bcf	3,6	;RP1=0, select bank0
  4762  0C24  01D6               	clrf	_clock_reg+1
  4763  0C25                     l5412:
  4764                           
  4765                           ;helper.c: 448:         clock_reg[1] |= ((time[2] - '0') << 4) | (time[3] - '0');
  4766  0C25  1683               	bsf	3,5	;RP0=1, select bank1
  4767  0C26  1303               	bcf	3,6	;RP1=0, select bank1
  4768  0C27  0843               	movf	(_time^(0+128)+2),w
  4769  0C28  1283               	bcf	3,5	;RP0=0, select bank0
  4770  0C29  1303               	bcf	3,6	;RP1=0, select bank0
  4771  0C2A  00AC               	movwf	??_set_time
  4772  0C2B  3004               	movlw	4
  4773  0C2C                     u6405:
  4774  0C2C  1003               	clrc
  4775  0C2D  0DAC               	rlf	??_set_time,f
  4776  0C2E  3EFF               	addlw	-1
  4777  0C2F  1D03               	skipz
  4778  0C30  2C2C               	goto	u6405
  4779  0C31  1683               	bsf	3,5	;RP0=1, select bank1
  4780  0C32  1303               	bcf	3,6	;RP1=0, select bank1
  4781  0C33  0844               	movf	(_time^(0+128)+3),w
  4782  0C34  3ED0               	addlw	208
  4783  0C35  1283               	bcf	3,5	;RP0=0, select bank0
  4784  0C36  1303               	bcf	3,6	;RP1=0, select bank0
  4785  0C37  042C               	iorwf	??_set_time,w
  4786  0C38  00AD               	movwf	??_set_time+1
  4787  0C39  082D               	movf	??_set_time+1,w
  4788  0C3A  04D6               	iorwf	_clock_reg+1,f
  4789                           
  4790                           ;helper.c: 449:         write_ds1307(0x01, clock_reg[1]);
  4791  0C3B  0856               	movf	_clock_reg+1,w
  4792  0C3C  00AC               	movwf	??_set_time
  4793  0C3D  082C               	movf	??_set_time,w
  4794  0C3E  00A0               	movwf	write_ds1307@data
  4795  0C3F  3001               	movlw	1
  4796  0C40  160A  158A  2423  120A  158A  	fcall	_write_ds1307
  4797  0C45                     l5414:
  4798                           
  4799                           ;helper.c: 452:         clock_reg[2] = 0x00;
  4800  0C45  1283               	bcf	3,5	;RP0=0, select bank0
  4801  0C46  1303               	bcf	3,6	;RP1=0, select bank0
  4802  0C47  01D7               	clrf	_clock_reg+2
  4803  0C48                     l5416:
  4804                           
  4805                           ;helper.c: 454:         clock_reg[2] |= ((time[4] - '0') << 4) | (time[5] - '0');
  4806  0C48  1683               	bsf	3,5	;RP0=1, select bank1
  4807  0C49  1303               	bcf	3,6	;RP1=0, select bank1
  4808  0C4A  0845               	movf	(_time^(0+128)+4),w
  4809  0C4B  1283               	bcf	3,5	;RP0=0, select bank0
  4810  0C4C  1303               	bcf	3,6	;RP1=0, select bank0
  4811  0C4D  00AC               	movwf	??_set_time
  4812  0C4E  3004               	movlw	4
  4813  0C4F                     u6415:
  4814  0C4F  1003               	clrc
  4815  0C50  0DAC               	rlf	??_set_time,f
  4816  0C51  3EFF               	addlw	-1
  4817  0C52  1D03               	skipz
  4818  0C53  2C4F               	goto	u6415
  4819  0C54  1683               	bsf	3,5	;RP0=1, select bank1
  4820  0C55  1303               	bcf	3,6	;RP1=0, select bank1
  4821  0C56  0846               	movf	(_time^(0+128)+5),w
  4822  0C57  3ED0               	addlw	208
  4823  0C58  1283               	bcf	3,5	;RP0=0, select bank0
  4824  0C59  1303               	bcf	3,6	;RP1=0, select bank0
  4825  0C5A  042C               	iorwf	??_set_time,w
  4826  0C5B  00AD               	movwf	??_set_time+1
  4827  0C5C  082D               	movf	??_set_time+1,w
  4828  0C5D  04D7               	iorwf	_clock_reg+2,f
  4829  0C5E                     l5418:
  4830                           
  4831                           ;helper.c: 455:         write_ds1307(0x00, clock_reg[2]);
  4832  0C5E  0857               	movf	_clock_reg+2,w
  4833  0C5F  00AC               	movwf	??_set_time
  4834  0C60  082C               	movf	??_set_time,w
  4835  0C61  00A0               	movwf	write_ds1307@data
  4836  0C62  3000               	movlw	0
  4837  0C63  160A  158A  2423  120A  158A  	fcall	_write_ds1307
  4838  0C68                     l340:
  4839  0C68  0008               	return
  4840  0C69                     __end_of_set_time:
  4841                           
  4842                           	psect	text4
  4843  1220                     __ptext4:	
  4844 ;; *************** function _read_digital_keypad *****************
  4845 ;; Defined at:
  4846 ;;		line 11 in file "digital_keypad.c"
  4847 ;; Parameters:    Size  Location     Type
  4848 ;;  mode            1    wreg     unsigned char 
  4849 ;; Auto vars:     Size  Location     Type
  4850 ;;  mode            1    4[COMMON] unsigned char 
  4851 ;; Return value:  Size  Location     Type
  4852 ;;                  1    wreg      unsigned char 
  4853 ;; Registers used:
  4854 ;;		wreg, status,2, status,0
  4855 ;; Tracked objects:
  4856 ;;		On entry : 0/0
  4857 ;;		On exit  : 0/0
  4858 ;;		Unchanged: 0/0
  4859 ;; Data sizes:     COMMON   BANK0   BANK1   BANK3   BANK2
  4860 ;;      Params:         0       0       0       0       0
  4861 ;;      Locals:         1       0       0       0       0
  4862 ;;      Temps:          1       0       0       0       0
  4863 ;;      Totals:         2       0       0       0       0
  4864 ;;Total ram usage:        2 bytes
  4865 ;; Hardware stack levels used: 1
  4866 ;; Hardware stack levels required when called: 1
  4867 ;; This function calls:
  4868 ;;		Nothing
  4869 ;; This function is called by:
  4870 ;;		_main
  4871 ;; This function uses a non-reentrant model
  4872 ;;
  4873                           
  4874                           
  4875                           ;psect for function _read_digital_keypad
  4876  1220                     _read_digital_keypad:
  4877                           
  4878                           ;incstack = 0
  4879                           ; Regs used in _read_digital_keypad: [wreg+status,2+status,0]
  4880                           ;read_digital_keypad@mode stored from wreg
  4881  1220  00F4               	movwf	read_digital_keypad@mode
  4882  1221                     l4976:
  4883                           
  4884                           ;digital_keypad.c: 11: unsigned char read_digital_keypad(unsigned char mode);digital_key
      +                          pad.c: 12: {;digital_keypad.c: 13:     static unsigned char once = 1;;digital_keypad.c: 
      +                          14:     static unsigned char pre_key;;digital_keypad.c: 15:     static unsigned char lon
      +                          gpress;;digital_keypad.c: 17:     if (mode == 0)
  4885  1221  0874               	movf	read_digital_keypad@mode,w
  4886  1222  1D03               	btfss	3,2
  4887  1223  2A25               	goto	u5661
  4888  1224  2A26               	goto	u5660
  4889  1225                     u5661:
  4890  1225  2A2B               	goto	l4984
  4891  1226                     u5660:
  4892  1226                     l4978:
  4893                           
  4894                           ;digital_keypad.c: 18:     {;digital_keypad.c: 19:         return PORTB & 0x3F;
  4895  1226  1283               	bcf	3,5	;RP0=0, select bank0
  4896  1227  1303               	bcf	3,6	;RP1=0, select bank0
  4897  1228  0806               	movf	6,w	;volatile
  4898  1229  393F               	andlw	63
  4899  122A  2A80               	goto	l108
  4900  122B                     l4984:
  4901                           
  4902                           ;digital_keypad.c: 22:     {;digital_keypad.c: 24:         if (((PORTB & 0x3F) != 0x3F) 
      +                          && once)
  4903  122B  303F               	movlw	63
  4904  122C  1283               	bcf	3,5	;RP0=0, select bank0
  4905  122D  1303               	bcf	3,6	;RP1=0, select bank0
  4906  122E  0506               	andwf	6,w	;volatile
  4907  122F  00F3               	movwf	??_read_digital_keypad
  4908  1230  303F               	movlw	63
  4909  1231  0673               	xorwf	??_read_digital_keypad,w
  4910  1232  1903               	btfsc	3,2
  4911  1233  2A35               	goto	u5671
  4912  1234  2A36               	goto	u5670
  4913  1235                     u5671:
  4914  1235  2A43               	goto	l4992
  4915  1236                     u5670:
  4916  1236                     l4986:
  4917  1236  087A               	movf	read_digital_keypad@once,w
  4918  1237  1903               	btfsc	3,2
  4919  1238  2A3A               	goto	u5681
  4920  1239  2A3B               	goto	u5680
  4921  123A                     u5681:
  4922  123A  2A43               	goto	l4992
  4923  123B                     u5680:
  4924  123B                     l4988:
  4925                           
  4926                           ;digital_keypad.c: 25:         {;digital_keypad.c: 26:             once = 0;
  4927  123B  01FA               	clrf	read_digital_keypad@once
  4928                           
  4929                           ;digital_keypad.c: 27:             longpress = 0;
  4930  123C  01E3               	clrf	read_digital_keypad@longpress
  4931  123D                     l4990:
  4932                           
  4933                           ;digital_keypad.c: 28:             pre_key = PORTB & 0x3F;
  4934  123D  0806               	movf	6,w	;volatile
  4935  123E  393F               	andlw	63
  4936  123F  00F3               	movwf	??_read_digital_keypad
  4937  1240  0873               	movf	??_read_digital_keypad,w
  4938  1241  00F9               	movwf	read_digital_keypad@pre_key
  4939                           
  4940                           ;digital_keypad.c: 29:         }
  4941  1242  2A7F               	goto	l5022
  4942  1243                     l4992:
  4943  1243  087A               	movf	read_digital_keypad@once,w
  4944  1244  1D03               	btfss	3,2
  4945  1245  2A47               	goto	u5691
  4946  1246  2A48               	goto	u5690
  4947  1247                     u5691:
  4948  1247  2A5A               	goto	l5000
  4949  1248                     u5690:
  4950  1248                     l4994:
  4951  1248  0806               	movf	6,w	;volatile
  4952  1249  393F               	andlw	63
  4953  124A  0679               	xorwf	read_digital_keypad@pre_key,w
  4954  124B  1D03               	skipz
  4955  124C  2A4E               	goto	u5701
  4956  124D  2A4F               	goto	u5700
  4957  124E                     u5701:
  4958  124E  2A5A               	goto	l5000
  4959  124F                     u5700:
  4960  124F                     l4996:
  4961  124F  3032               	movlw	50
  4962  1250  0263               	subwf	read_digital_keypad@longpress,w
  4963  1251  1803               	skipnc
  4964  1252  2A54               	goto	u5711
  4965  1253  2A55               	goto	u5710
  4966  1254                     u5711:
  4967  1254  2A5A               	goto	l5000
  4968  1255                     u5710:
  4969  1255                     l4998:
  4970                           
  4971                           ;digital_keypad.c: 31:         {;digital_keypad.c: 32:             longpress++;
  4972  1255  3001               	movlw	1
  4973  1256  00F3               	movwf	??_read_digital_keypad
  4974  1257  0873               	movf	??_read_digital_keypad,w
  4975  1258  07E3               	addwf	read_digital_keypad@longpress,f
  4976                           
  4977                           ;digital_keypad.c: 33:         }
  4978  1259  2A7F               	goto	l5022
  4979  125A                     l5000:
  4980  125A  3032               	movlw	50
  4981  125B  0663               	xorwf	read_digital_keypad@longpress,w
  4982  125C  1D03               	btfss	3,2
  4983  125D  2A5F               	goto	u5721
  4984  125E  2A60               	goto	u5720
  4985  125F                     u5721:
  4986  125F  2A67               	goto	l5010
  4987  1260                     u5720:
  4988  1260                     l5002:
  4989                           
  4990                           ;digital_keypad.c: 35:   {;digital_keypad.c: 36:    longpress++;
  4991  1260  3001               	movlw	1
  4992  1261  00F3               	movwf	??_read_digital_keypad
  4993  1262  0873               	movf	??_read_digital_keypad,w
  4994  1263  07E3               	addwf	read_digital_keypad@longpress,f
  4995  1264                     l5004:
  4996                           
  4997                           ;digital_keypad.c: 38:    return 0x80 | pre_key;
  4998  1264  0879               	movf	read_digital_keypad@pre_key,w
  4999  1265  3880               	iorlw	128
  5000  1266  2A80               	goto	l108
  5001  1267                     l5010:
  5002  1267  303F               	movlw	63
  5003  1268  0506               	andwf	6,w	;volatile
  5004  1269  00F3               	movwf	??_read_digital_keypad
  5005  126A  303F               	movlw	63
  5006  126B  0673               	xorwf	??_read_digital_keypad,w
  5007  126C  1D03               	btfss	3,2
  5008  126D  2A6F               	goto	u5731
  5009  126E  2A70               	goto	u5730
  5010  126F                     u5731:
  5011  126F  2A7F               	goto	l5022
  5012  1270                     u5730:
  5013  1270                     l5012:
  5014  1270  087A               	movf	read_digital_keypad@once,w
  5015  1271  1D03               	btfss	3,2
  5016  1272  2A74               	goto	u5741
  5017  1273  2A75               	goto	u5740
  5018  1274                     u5741:
  5019  1274  2A7F               	goto	l5022
  5020  1275                     u5740:
  5021  1275                     l5014:
  5022                           
  5023                           ;digital_keypad.c: 41:         {;digital_keypad.c: 42:             once = 1;
  5024  1275  01FA               	clrf	read_digital_keypad@once
  5025  1276  0AFA               	incf	read_digital_keypad@once,f
  5026  1277                     l5016:
  5027                           
  5028                           ;digital_keypad.c: 43:             if ( longpress < 50 )
  5029  1277  3032               	movlw	50
  5030  1278  0263               	subwf	read_digital_keypad@longpress,w
  5031  1279  1803               	skipnc
  5032  127A  2A7C               	goto	u5751
  5033  127B  2A7D               	goto	u5750
  5034  127C                     u5751:
  5035  127C  2A7F               	goto	l113
  5036  127D                     u5750:
  5037  127D                     l5018:
  5038                           
  5039                           ;digital_keypad.c: 44:             {;digital_keypad.c: 45:     return pre_key;
  5040  127D  0879               	movf	read_digital_keypad@pre_key,w
  5041  127E  2A80               	goto	l108
  5042  127F                     l113:
  5043  127F                     l5022:
  5044                           
  5045                           ;digital_keypad.c: 50:     return 0x3F;
  5046  127F  303F               	movlw	63
  5047  1280                     l108:
  5048  1280  0008               	return
  5049  1281                     __end_of_read_digital_keypad:
  5050                           
  5051                           	psect	text5
  5052  1B09                     __ptext5:	
  5053 ;; *************** function _read_adc *****************
  5054 ;; Defined at:
  5055 ;;		line 29 in file "adc.c"
  5056 ;; Parameters:    Size  Location     Type
  5057 ;;		None
  5058 ;; Auto vars:     Size  Location     Type
  5059 ;;  reg_val         2    5[COMMON] unsigned short 
  5060 ;; Return value:  Size  Location     Type
  5061 ;;                  2    3[COMMON] unsigned short 
  5062 ;; Registers used:
  5063 ;;		wreg
  5064 ;; Tracked objects:
  5065 ;;		On entry : 0/0
  5066 ;;		On exit  : 0/0
  5067 ;;		Unchanged: 0/0
  5068 ;; Data sizes:     COMMON   BANK0   BANK1   BANK3   BANK2
  5069 ;;      Params:         2       0       0       0       0
  5070 ;;      Locals:         2       0       0       0       0
  5071 ;;      Temps:          0       0       0       0       0
  5072 ;;      Totals:         4       0       0       0       0
  5073 ;;Total ram usage:        4 bytes
  5074 ;; Hardware stack levels used: 1
  5075 ;; Hardware stack levels required when called: 1
  5076 ;; This function calls:
  5077 ;;		Nothing
  5078 ;; This function is called by:
  5079 ;;		_main
  5080 ;; This function uses a non-reentrant model
  5081 ;;
  5082                           
  5083                           
  5084                           ;psect for function _read_adc
  5085  1B09                     _read_adc:
  5086  1B09                     l4970:	
  5087                           ;incstack = 0
  5088                           ; Regs used in _read_adc: [wreg]
  5089                           
  5090                           
  5091                           ;adc.c: 31:  unsigned short reg_val;;adc.c: 34:  GO = 1;
  5092  1B09  1283               	bcf	3,5	;RP0=0, select bank0
  5093  1B0A  1303               	bcf	3,6	;RP1=0, select bank0
  5094  1B0B  151F               	bsf	31,2	;volatile
  5095  1B0C                     l22:	
  5096                           ;adc.c: 35:  while (GO);
  5097                           
  5098  1B0C  191F               	btfsc	31,2	;volatile
  5099  1B0D  2B0F               	goto	u5651
  5100  1B0E  2B10               	goto	u5650
  5101  1B0F                     u5651:
  5102  1B0F  2B0C               	goto	l22
  5103  1B10                     u5650:
  5104  1B10                     l4972:
  5105                           
  5106                           ;adc.c: 36:  reg_val = (ADRESH << 8) | ADRESL;
  5107  1B10  081E               	movf	30,w	;volatile
  5108  1B11  00F6               	movwf	read_adc@reg_val+1
  5109  1B12  1683               	bsf	3,5	;RP0=1, select bank1
  5110  1B13  1303               	bcf	3,6	;RP1=0, select bank1
  5111  1B14  081E               	movf	30,w	;volatile
  5112  1B15  00F5               	movwf	read_adc@reg_val
  5113                           
  5114                           ;adc.c: 38:  return reg_val;
  5115  1B16  0876               	movf	read_adc@reg_val+1,w
  5116  1B17  00F4               	movwf	?_read_adc+1
  5117  1B18  0875               	movf	read_adc@reg_val,w
  5118  1B19  00F3               	movwf	?_read_adc
  5119  1B1A                     l25:
  5120  1B1A  0008               	return
  5121  1B1B                     __end_of_read_adc:
  5122                           
  5123                           	psect	text6
  5124  083C                     __ptext6:	
  5125 ;; *************** function _login_menu *****************
  5126 ;; Defined at:
  5127 ;;		line 176 in file "helper.c"
  5128 ;; Parameters:    Size  Location     Type
  5129 ;;  key             1    wreg     unsigned char 
  5130 ;;  reset_menu      1    6[BANK0 ] unsigned char 
  5131 ;; Auto vars:     Size  Location     Type
  5132 ;;  key             1   11[BANK0 ] unsigned char 
  5133 ;; Return value:  Size  Location     Type
  5134 ;;                  2    6[BANK0 ] int 
  5135 ;; Registers used:
  5136 ;;		wreg, fsr0l, fsr0h, status,2, status,0, btemp+1, pclath, cstack
  5137 ;; Tracked objects:
  5138 ;;		On entry : 0/0
  5139 ;;		On exit  : 0/0
  5140 ;;		Unchanged: 0/0
  5141 ;; Data sizes:     COMMON   BANK0   BANK1   BANK3   BANK2
  5142 ;;      Params:         0       2       0       0       0
  5143 ;;      Locals:         0       1       0       0       0
  5144 ;;      Temps:          0       3       0       0       0
  5145 ;;      Totals:         0       6       0       0       0
  5146 ;;Total ram usage:        6 bytes
  5147 ;; Hardware stack levels used: 1
  5148 ;; Hardware stack levels required when called: 3
  5149 ;; This function calls:
  5150 ;;		_clcd_print
  5151 ;;		_clcd_putch
  5152 ;;		_clcd_write
  5153 ;; This function is called by:
  5154 ;;		_main
  5155 ;; This function uses a non-reentrant model
  5156 ;;
  5157                           
  5158                           
  5159                           ;psect for function _login_menu
  5160  083C                     _login_menu:
  5161                           
  5162                           ;incstack = 0
  5163                           ; Regs used in _login_menu: [wreg-fsr0h+status,2+status,0+btemp+1+pclath+cstack]
  5164                           ;login_menu@key stored from wreg
  5165  083C  1283               	bcf	3,5	;RP0=0, select bank0
  5166  083D  1303               	bcf	3,6	;RP1=0, select bank0
  5167  083E  00AB               	movwf	login_menu@key
  5168  083F                     l5134:
  5169                           
  5170                           ;helper.c: 176: int login_menu(unsigned char key, unsigned char reset_menu);helper.c: 17
      +                          7: {;helper.c: 178:  static int menu_pos = 0, select_pos = 1;;helper.c: 179:     if (res
      +                          et_menu == 0x02)
  5171  083F  3002               	movlw	2
  5172  0840  0626               	xorwf	login_menu@reset_menu,w
  5173  0841  1D03               	btfss	3,2
  5174  0842  2844               	goto	u5871
  5175  0843  2845               	goto	u5870
  5176  0844                     u5871:
  5177  0844  284D               	goto	l5140
  5178  0845                     u5870:
  5179  0845                     l5136:
  5180                           
  5181                           ;helper.c: 180:     {;helper.c: 181:         menu_pos = 0;
  5182  0845  01DC               	clrf	login_menu@menu_pos
  5183  0846  01DD               	clrf	login_menu@menu_pos+1
  5184  0847                     l5138:
  5185                           
  5186                           ;helper.c: 182:         select_pos = 1;
  5187  0847  3001               	movlw	1
  5188  0848  1683               	bsf	3,5	;RP0=1, select bank1
  5189  0849  1303               	bcf	3,6	;RP1=0, select bank1
  5190  084A  00E8               	movwf	login_menu@select_pos^(0+128)
  5191  084B  3000               	movlw	0
  5192  084C  00E9               	movwf	(login_menu@select_pos^(0+128)+1)
  5193  084D                     l5140:
  5194                           
  5195                           ;helper.c: 184:     if (key == 0x2F && menu_pos < 4)
  5196  084D  302F               	movlw	47
  5197  084E  1283               	bcf	3,5	;RP0=0, select bank0
  5198  084F  062B               	xorwf	login_menu@key,w
  5199  0850  1D03               	btfss	3,2
  5200  0851  2853               	goto	u5881
  5201  0852  2854               	goto	u5880
  5202  0853                     u5881:
  5203  0853  2887               	goto	l5152
  5204  0854                     u5880:
  5205  0854                     l5142:
  5206  0854  085D               	movf	login_menu@menu_pos+1,w
  5207  0855  3A80               	xorlw	128
  5208  0856  00FF               	movwf	btemp+1
  5209  0857  3080               	movlw	128
  5210  0858  027F               	subwf	btemp+1,w
  5211  0859  1D03               	skipz
  5212  085A  285D               	goto	u5895
  5213  085B  3004               	movlw	4
  5214  085C  025C               	subwf	login_menu@menu_pos,w
  5215  085D                     u5895:
  5216  085D  1803               	skipnc
  5217  085E  2860               	goto	u5891
  5218  085F  2861               	goto	u5890
  5219  0860                     u5891:
  5220  0860  2887               	goto	l5152
  5221  0861                     u5890:
  5222  0861                     l5144:
  5223                           
  5224                           ;helper.c: 185:     {;helper.c: 186:         menu_pos++;
  5225  0861  3001               	movlw	1
  5226  0862  1283               	bcf	3,5	;RP0=0, select bank0
  5227  0863  1303               	bcf	3,6	;RP1=0, select bank0
  5228  0864  07DC               	addwf	login_menu@menu_pos,f
  5229  0865  1803               	skipnc
  5230  0866  0ADD               	incf	login_menu@menu_pos+1,f
  5231  0867  3000               	movlw	0
  5232  0868  07DD               	addwf	login_menu@menu_pos+1,f
  5233  0869                     l5146:
  5234                           
  5235                           ;helper.c: 187:         if (select_pos < 2)
  5236  0869  1683               	bsf	3,5	;RP0=1, select bank1
  5237  086A  1303               	bcf	3,6	;RP1=0, select bank1
  5238  086B  0869               	movf	(login_menu@select_pos+1)^(0+128),w
  5239  086C  3A80               	xorlw	128
  5240  086D  00FF               	movwf	btemp+1
  5241  086E  3080               	movlw	128
  5242  086F  027F               	subwf	btemp+1,w
  5243  0870  1D03               	skipz
  5244  0871  2874               	goto	u5905
  5245  0872  3002               	movlw	2
  5246  0873  0268               	subwf	login_menu@select_pos^(0+128),w
  5247  0874                     u5905:
  5248  0874  1803               	skipnc
  5249  0875  2877               	goto	u5901
  5250  0876  2878               	goto	u5900
  5251  0877                     u5901:
  5252  0877  2880               	goto	l5150
  5253  0878                     u5900:
  5254  0878                     l5148:
  5255                           
  5256                           ;helper.c: 188:             select_pos++;
  5257  0878  3001               	movlw	1
  5258  0879  1683               	bsf	3,5	;RP0=1, select bank1
  5259  087A  1303               	bcf	3,6	;RP1=0, select bank1
  5260  087B  07E8               	addwf	login_menu@select_pos^(0+128),f
  5261  087C  1803               	skipnc
  5262  087D  0AE9               	incf	(login_menu@select_pos+1)^(0+128),f
  5263  087E  3000               	movlw	0
  5264  087F  07E9               	addwf	(login_menu@select_pos+1)^(0+128),f
  5265  0880                     l5150:
  5266                           
  5267                           ;helper.c: 189:         clcd_write(0x01, 0);
  5268  0880  01F3               	clrf	clcd_write@mode
  5269  0881  3001               	movlw	1
  5270  0882  160A  158A  23E0  120A  158A  	fcall	_clcd_write
  5271  0887                     l5152:
  5272                           
  5273                           ;helper.c: 191:     if (key == 0x37 && menu_pos > 0)
  5274  0887  3037               	movlw	55
  5275  0888  1283               	bcf	3,5	;RP0=0, select bank0
  5276  0889  1303               	bcf	3,6	;RP1=0, select bank0
  5277  088A  062B               	xorwf	login_menu@key,w
  5278  088B  1D03               	btfss	3,2
  5279  088C  288E               	goto	u5911
  5280  088D  288F               	goto	u5910
  5281  088E                     u5911:
  5282  088E  28C2               	goto	l5164
  5283  088F                     u5910:
  5284  088F                     l5154:
  5285  088F  085D               	movf	login_menu@menu_pos+1,w
  5286  0890  3A80               	xorlw	128
  5287  0891  00FF               	movwf	btemp+1
  5288  0892  3080               	movlw	128
  5289  0893  027F               	subwf	btemp+1,w
  5290  0894  1D03               	skipz
  5291  0895  2898               	goto	u5925
  5292  0896  3001               	movlw	1
  5293  0897  025C               	subwf	login_menu@menu_pos,w
  5294  0898                     u5925:
  5295  0898  1C03               	skipc
  5296  0899  289B               	goto	u5921
  5297  089A  289C               	goto	u5920
  5298  089B                     u5921:
  5299  089B  28C2               	goto	l5164
  5300  089C                     u5920:
  5301  089C                     l5156:
  5302                           
  5303                           ;helper.c: 192:     {;helper.c: 193:         menu_pos--;
  5304  089C  30FF               	movlw	255
  5305  089D  1283               	bcf	3,5	;RP0=0, select bank0
  5306  089E  1303               	bcf	3,6	;RP1=0, select bank0
  5307  089F  07DC               	addwf	login_menu@menu_pos,f
  5308  08A0  1803               	skipnc
  5309  08A1  0ADD               	incf	login_menu@menu_pos+1,f
  5310  08A2  30FF               	movlw	255
  5311  08A3  07DD               	addwf	login_menu@menu_pos+1,f
  5312  08A4                     l5158:
  5313                           
  5314                           ;helper.c: 194:          if (select_pos > 1)
  5315  08A4  1683               	bsf	3,5	;RP0=1, select bank1
  5316  08A5  1303               	bcf	3,6	;RP1=0, select bank1
  5317  08A6  0869               	movf	(login_menu@select_pos+1)^(0+128),w
  5318  08A7  3A80               	xorlw	128
  5319  08A8  00FF               	movwf	btemp+1
  5320  08A9  3080               	movlw	128
  5321  08AA  027F               	subwf	btemp+1,w
  5322  08AB  1D03               	skipz
  5323  08AC  28AF               	goto	u5935
  5324  08AD  3002               	movlw	2
  5325  08AE  0268               	subwf	login_menu@select_pos^(0+128),w
  5326  08AF                     u5935:
  5327  08AF  1C03               	skipc
  5328  08B0  28B2               	goto	u5931
  5329  08B1  28B3               	goto	u5930
  5330  08B2                     u5931:
  5331  08B2  28BB               	goto	l5162
  5332  08B3                     u5930:
  5333  08B3                     l5160:
  5334                           
  5335                           ;helper.c: 195:             select_pos--;
  5336  08B3  30FF               	movlw	255
  5337  08B4  1683               	bsf	3,5	;RP0=1, select bank1
  5338  08B5  1303               	bcf	3,6	;RP1=0, select bank1
  5339  08B6  07E8               	addwf	login_menu@select_pos^(0+128),f
  5340  08B7  1803               	skipnc
  5341  08B8  0AE9               	incf	(login_menu@select_pos+1)^(0+128),f
  5342  08B9  30FF               	movlw	255
  5343  08BA  07E9               	addwf	(login_menu@select_pos+1)^(0+128),f
  5344  08BB                     l5162:
  5345                           
  5346                           ;helper.c: 196:         clcd_write(0x01, 0);
  5347  08BB  01F3               	clrf	clcd_write@mode
  5348  08BC  3001               	movlw	1
  5349  08BD  160A  158A  23E0  120A  158A  	fcall	_clcd_write
  5350  08C2                     l5164:
  5351                           
  5352                           ;helper.c: 198:     if (select_pos == 1)
  5353  08C2  1683               	bsf	3,5	;RP0=1, select bank1
  5354  08C3  1303               	bcf	3,6	;RP1=0, select bank1
  5355  08C4  0368               	decf	login_menu@select_pos^(0+128),w
  5356  08C5  0469               	iorwf	(login_menu@select_pos+1)^(0+128),w
  5357  08C6  1D03               	btfss	3,2
  5358  08C7  28C9               	goto	u5941
  5359  08C8  28CA               	goto	u5940
  5360  08C9                     u5941:
  5361  08C9  2905               	goto	l5172
  5362  08CA                     u5940:
  5363  08CA                     l5166:
  5364                           
  5365                           ;helper.c: 199:     {;helper.c: 200:         clcd_putch('*', (0x80 + (0)));
  5366  08CA  3080               	movlw	128
  5367  08CB  1283               	bcf	3,5	;RP0=0, select bank0
  5368  08CC  1303               	bcf	3,6	;RP1=0, select bank0
  5369  08CD  00A8               	movwf	??_login_menu
  5370  08CE  0828               	movf	??_login_menu,w
  5371  08CF  00A4               	movwf	clcd_putch@addr
  5372  08D0  302A               	movlw	42
  5373  08D1  160A  158A  2355  120A  158A  	fcall	_clcd_putch
  5374  08D6                     l5168:
  5375                           
  5376                           ;helper.c: 201:         clcd_print(menu[menu_pos], (0x80 + (2)));
  5377  08D6  1283               	bcf	3,5	;RP0=0, select bank0
  5378  08D7  1303               	bcf	3,6	;RP1=0, select bank0
  5379  08D8  085C               	movf	login_menu@menu_pos,w
  5380  08D9  00A8               	movwf	??_login_menu
  5381  08DA  0728               	addwf	??_login_menu,w
  5382  08DB  3EDB               	addlw	(low (_menu| 0))& (0+255)
  5383  08DC  0084               	movwf	4
  5384  08DD  1383               	bcf	3,7	;select IRP bank1
  5385  08DE  0800               	movf	0,w
  5386  08DF  00A0               	movwf	clcd_print@data
  5387  08E0  0A84               	incf	4,f
  5388  08E1  0800               	movf	0,w
  5389  08E2  0384               	decf	4,f
  5390  08E3  00A1               	movwf	clcd_print@data+1
  5391  08E4  3082               	movlw	130
  5392  08E5  00AA               	movwf	??_login_menu+2
  5393  08E6  082A               	movf	??_login_menu+2,w
  5394  08E7  00A2               	movwf	clcd_print@addr
  5395  08E8  160A  158A  256E  120A  158A  	fcall	_clcd_print
  5396  08ED                     l5170:
  5397                           
  5398                           ;helper.c: 202:         clcd_print(menu[menu_pos + 1], (0xC0 + (2)));
  5399  08ED  1283               	bcf	3,5	;RP0=0, select bank0
  5400  08EE  1303               	bcf	3,6	;RP1=0, select bank0
  5401  08EF  085C               	movf	login_menu@menu_pos,w
  5402  08F0  00A8               	movwf	??_login_menu
  5403  08F1  0728               	addwf	??_login_menu,w
  5404  08F2  3EDD               	addlw	(low ((_menu| 0+2)))& (0+255)
  5405  08F3  0084               	movwf	4
  5406  08F4  1383               	bcf	3,7	;select IRP bank1
  5407  08F5  0800               	movf	0,w
  5408  08F6  00A0               	movwf	clcd_print@data
  5409  08F7  0A84               	incf	4,f
  5410  08F8  0800               	movf	0,w
  5411  08F9  0384               	decf	4,f
  5412  08FA  00A1               	movwf	clcd_print@data+1
  5413  08FB  30C2               	movlw	194
  5414  08FC  00AA               	movwf	??_login_menu+2
  5415  08FD  082A               	movf	??_login_menu+2,w
  5416  08FE  00A2               	movwf	clcd_print@addr
  5417  08FF  160A  158A  256E  120A  158A  	fcall	_clcd_print
  5418                           
  5419                           ;helper.c: 203:     }
  5420  0904  2946               	goto	l5180
  5421  0905                     l5172:
  5422  0905  3002               	movlw	2
  5423  0906  0668               	xorwf	login_menu@select_pos^(0+128),w
  5424  0907  0469               	iorwf	(login_menu@select_pos+1)^(0+128),w
  5425  0908  1D03               	btfss	3,2
  5426  0909  290B               	goto	u5951
  5427  090A  290C               	goto	u5950
  5428  090B                     u5951:
  5429  090B  2946               	goto	l5180
  5430  090C                     u5950:
  5431  090C                     l5174:
  5432                           
  5433                           ;helper.c: 205:     {;helper.c: 206:         clcd_putch('*', (0xC0 + (0)));
  5434  090C  30C0               	movlw	192
  5435  090D  1283               	bcf	3,5	;RP0=0, select bank0
  5436  090E  1303               	bcf	3,6	;RP1=0, select bank0
  5437  090F  00A8               	movwf	??_login_menu
  5438  0910  0828               	movf	??_login_menu,w
  5439  0911  00A4               	movwf	clcd_putch@addr
  5440  0912  302A               	movlw	42
  5441  0913  160A  158A  2355  120A  158A  	fcall	_clcd_putch
  5442  0918                     l5176:
  5443                           
  5444                           ;helper.c: 207:         clcd_print(menu[menu_pos - 1], (0x80 + (2)));
  5445  0918  1283               	bcf	3,5	;RP0=0, select bank0
  5446  0919  1303               	bcf	3,6	;RP1=0, select bank0
  5447  091A  085C               	movf	login_menu@menu_pos,w
  5448  091B  00A8               	movwf	??_login_menu
  5449  091C  0728               	addwf	??_login_menu,w
  5450  091D  3ED9               	addlw	(low ((_menu| 0+254)))& (0+255)
  5451  091E  0084               	movwf	4
  5452  091F  1383               	bcf	3,7	;select IRP bank1
  5453  0920  0800               	movf	0,w
  5454  0921  00A0               	movwf	clcd_print@data
  5455  0922  0A84               	incf	4,f
  5456  0923  0800               	movf	0,w
  5457  0924  0384               	decf	4,f
  5458  0925  00A1               	movwf	clcd_print@data+1
  5459  0926  3082               	movlw	130
  5460  0927  00AA               	movwf	??_login_menu+2
  5461  0928  082A               	movf	??_login_menu+2,w
  5462  0929  00A2               	movwf	clcd_print@addr
  5463  092A  160A  158A  256E  120A  158A  	fcall	_clcd_print
  5464  092F                     l5178:
  5465                           
  5466                           ;helper.c: 208:         clcd_print(menu[menu_pos], (0xC0 + (2)));
  5467  092F  1283               	bcf	3,5	;RP0=0, select bank0
  5468  0930  1303               	bcf	3,6	;RP1=0, select bank0
  5469  0931  085C               	movf	login_menu@menu_pos,w
  5470  0932  00A8               	movwf	??_login_menu
  5471  0933  0728               	addwf	??_login_menu,w
  5472  0934  3EDB               	addlw	(low (_menu| 0))& (0+255)
  5473  0935  0084               	movwf	4
  5474  0936  1383               	bcf	3,7	;select IRP bank1
  5475  0937  0800               	movf	0,w
  5476  0938  00A0               	movwf	clcd_print@data
  5477  0939  0A84               	incf	4,f
  5478  093A  0800               	movf	0,w
  5479  093B  0384               	decf	4,f
  5480  093C  00A1               	movwf	clcd_print@data+1
  5481  093D  30C2               	movlw	194
  5482  093E  00AA               	movwf	??_login_menu+2
  5483  093F  082A               	movf	??_login_menu+2,w
  5484  0940  00A2               	movwf	clcd_print@addr
  5485  0941  160A  158A  256E  120A  158A  	fcall	_clcd_print
  5486  0946                     l5180:
  5487                           
  5488                           ;helper.c: 210:     return menu_pos;
  5489  0946  1283               	bcf	3,5	;RP0=0, select bank0
  5490  0947  1303               	bcf	3,6	;RP1=0, select bank0
  5491  0948  085D               	movf	login_menu@menu_pos+1,w
  5492  0949  00A7               	movwf	?_login_menu+1
  5493  094A  085C               	movf	login_menu@menu_pos,w
  5494  094B  00A6               	movwf	?_login_menu
  5495  094C                     l247:
  5496  094C  0008               	return
  5497  094D                     __end_of_login_menu:
  5498                           
  5499                           	psect	text7
  5500  0C69                     __ptext7:	
  5501 ;; *************** function _login *****************
  5502 ;; Defined at:
  5503 ;;		line 82 in file "helper.c"
  5504 ;; Parameters:    Size  Location     Type
  5505 ;;  key             1    wreg     unsigned char 
  5506 ;;  reset_passwo    1   12[BANK0 ] unsigned char 
  5507 ;; Auto vars:     Size  Location     Type
  5508 ;;  key             1   14[BANK0 ] unsigned char 
  5509 ;; Return value:  Size  Location     Type
  5510 ;;                  1    wreg      unsigned char 
  5511 ;; Registers used:
  5512 ;;		wreg, fsr0l, fsr0h, status,2, status,0, btemp+1, pclath, cstack
  5513 ;; Tracked objects:
  5514 ;;		On entry : 0/0
  5515 ;;		On exit  : 0/0
  5516 ;;		Unchanged: 0/0
  5517 ;; Data sizes:     COMMON   BANK0   BANK1   BANK3   BANK2
  5518 ;;      Params:         0       1       0       0       0
  5519 ;;      Locals:         0       1       0       0       0
  5520 ;;      Temps:          0       1       0       0       0
  5521 ;;      Totals:         0       3       0       0       0
  5522 ;;Total ram usage:        3 bytes
  5523 ;; Hardware stack levels used: 1
  5524 ;; Hardware stack levels required when called: 5
  5525 ;; This function calls:
  5526 ;;		___awdiv
  5527 ;;		___awmod
  5528 ;;		_clcd_print
  5529 ;;		_clcd_putch
  5530 ;;		_clcd_write
  5531 ;;		_get_password
  5532 ;;		_strncmp
  5533 ;; This function is called by:
  5534 ;;		_main
  5535 ;; This function uses a non-reentrant model
  5536 ;;
  5537                           
  5538                           
  5539                           ;psect for function _login
  5540  0C69                     _login:
  5541                           
  5542                           ;incstack = 0
  5543                           ; Regs used in _login: [wreg-fsr0h+status,2+status,0+btemp+1+pclath+cstack]
  5544                           ;login@key stored from wreg
  5545  0C69  1283               	bcf	3,5	;RP0=0, select bank0
  5546  0C6A  1303               	bcf	3,6	;RP1=0, select bank0
  5547  0C6B  00AE               	movwf	login@key
  5548  0C6C                     l6230:
  5549                           
  5550                           ;helper.c: 82: char login(unsigned char key, char reset_password);helper.c: 83: {;helper
      +                          .c: 85:     static char npassword[4];;helper.c: 86:     static unsigned char i;;helper.c
      +                          : 87:     static unsigned char attempt_remaining;;helper.c: 88:     if (reset_password =
      +                          = 0x01)
  5551  0C6C  032C               	decf	login@reset_password,w
  5552  0C6D  1D03               	btfss	3,2
  5553  0C6E  2C70               	goto	u7511
  5554  0C6F  2C71               	goto	u7510
  5555  0C70                     u7511:
  5556  0C70  2C90               	goto	l6242
  5557  0C71                     u7510:
  5558  0C71                     l6232:
  5559                           
  5560                           ;helper.c: 89:     {;helper.c: 90:         npassword[0] = 0;
  5561  0C71  1683               	bsf	3,5	;RP0=1, select bank1
  5562  0C72  1303               	bcf	3,6	;RP1=0, select bank1
  5563  0C73  01D7               	clrf	login@npassword^(0+128)
  5564                           
  5565                           ;helper.c: 91:         npassword[1] = 0;
  5566  0C74  01D8               	clrf	(login@npassword^(0+128)+1)
  5567                           
  5568                           ;helper.c: 92:         npassword[2] = 0;
  5569  0C75  01D9               	clrf	(login@npassword^(0+128)+2)
  5570                           
  5571                           ;helper.c: 93:         npassword[3] = 0;
  5572  0C76  01DA               	clrf	(login@npassword^(0+128)+3)
  5573                           
  5574                           ;helper.c: 94:         i = 0;
  5575  0C77  1283               	bcf	3,5	;RP0=0, select bank0
  5576  0C78  1303               	bcf	3,6	;RP1=0, select bank0
  5577  0C79  01E2               	clrf	login@i
  5578  0C7A                     l6234:
  5579                           
  5580                           ;helper.c: 95:         attempt_remaining = '3';
  5581  0C7A  3033               	movlw	51
  5582  0C7B  00AD               	movwf	??_login
  5583  0C7C  082D               	movf	??_login,w
  5584  0C7D  1683               	bsf	3,5	;RP0=1, select bank1
  5585  0C7E  1303               	bcf	3,6	;RP1=0, select bank1
  5586  0C7F  00B4               	movwf	login@attempt_remaining^(0+128)
  5587  0C80                     l6236:
  5588                           
  5589                           ;helper.c: 97:         return_time = 5;
  5590  0C80  3005               	movlw	5
  5591  0C81  00AE               	movwf	_return_time^(0+128)
  5592  0C82  3000               	movlw	0
  5593  0C83  00AF               	movwf	(_return_time^(0+128)+1)
  5594                           
  5595                           ;helper.c: 98:         sec = 0;
  5596  0C84  1283               	bcf	3,5	;RP0=0, select bank0
  5597  0C85  1303               	bcf	3,6	;RP1=0, select bank0
  5598  0C86  01DE               	clrf	_sec
  5599  0C87  01DF               	clrf	_sec+1
  5600  0C88                     l6238:
  5601                           
  5602                           ;helper.c: 100:         get_password();
  5603  0C88  120A  118A  27D7  120A  158A  	fcall	_get_password
  5604  0C8D                     l6240:
  5605                           
  5606                           ;helper.c: 101:         key = 0x00;
  5607  0C8D  1283               	bcf	3,5	;RP0=0, select bank0
  5608  0C8E  1303               	bcf	3,6	;RP1=0, select bank0
  5609  0C8F  01AE               	clrf	login@key
  5610  0C90                     l6242:
  5611                           
  5612                           ;helper.c: 105:     if (!return_time)
  5613  0C90  1683               	bsf	3,5	;RP0=1, select bank1
  5614  0C91  1303               	bcf	3,6	;RP1=0, select bank1
  5615  0C92  082E               	movf	_return_time^(0+128),w
  5616  0C93  042F               	iorwf	(_return_time+1)^(0+128),w
  5617  0C94  1D03               	btfss	3,2
  5618  0C95  2C97               	goto	u7521
  5619  0C96  2C98               	goto	u7520
  5620  0C97                     u7521:
  5621  0C97  2C9A               	goto	l6248
  5622  0C98                     u7520:
  5623  0C98                     l6244:
  5624                           
  5625                           ;helper.c: 106:     {;helper.c: 107:         return 0x02;
  5626  0C98  3002               	movlw	2
  5627  0C99  2E00               	goto	l217
  5628  0C9A                     l6248:
  5629                           
  5630                           ;helper.c: 110:     if (i < 4 && key == 0x37)
  5631  0C9A  3004               	movlw	4
  5632  0C9B  1283               	bcf	3,5	;RP0=0, select bank0
  5633  0C9C  1303               	bcf	3,6	;RP1=0, select bank0
  5634  0C9D  0262               	subwf	login@i,w
  5635  0C9E  1803               	skipnc
  5636  0C9F  2CA1               	goto	u7531
  5637  0CA0  2CA2               	goto	u7530
  5638  0CA1                     u7531:
  5639  0CA1  2CCA               	goto	l6260
  5640  0CA2                     u7530:
  5641  0CA2                     l6250:
  5642  0CA2  3037               	movlw	55
  5643  0CA3  062E               	xorwf	login@key,w
  5644  0CA4  1D03               	btfss	3,2
  5645  0CA5  2CA7               	goto	u7541
  5646  0CA6  2CA8               	goto	u7540
  5647  0CA7                     u7541:
  5648  0CA7  2CCA               	goto	l6260
  5649  0CA8                     u7540:
  5650  0CA8                     l6252:
  5651                           
  5652                           ;helper.c: 111:     {;helper.c: 112:         return_time = 5;
  5653  0CA8  3005               	movlw	5
  5654  0CA9  1683               	bsf	3,5	;RP0=1, select bank1
  5655  0CAA  1303               	bcf	3,6	;RP1=0, select bank1
  5656  0CAB  00AE               	movwf	_return_time^(0+128)
  5657  0CAC  3000               	movlw	0
  5658  0CAD  00AF               	movwf	(_return_time^(0+128)+1)
  5659  0CAE                     l6254:
  5660                           
  5661                           ;helper.c: 113:         npassword[i] = '0';
  5662  0CAE  3030               	movlw	48
  5663  0CAF  1283               	bcf	3,5	;RP0=0, select bank0
  5664  0CB0  1303               	bcf	3,6	;RP1=0, select bank0
  5665  0CB1  00AD               	movwf	??_login
  5666  0CB2  0862               	movf	login@i,w
  5667  0CB3  3ED7               	addlw	(low (login@npassword| 0))& (0+255)
  5668  0CB4  0084               	movwf	4
  5669  0CB5  082D               	movf	??_login,w
  5670  0CB6  1383               	bcf	3,7	;select IRP bank1
  5671  0CB7  0080               	movwf	0
  5672  0CB8                     l6256:
  5673                           
  5674                           ;helper.c: 114:         clcd_putch('*', (0xC0 + (i+6)));
  5675  0CB8  0862               	movf	login@i,w
  5676  0CB9  3EC6               	addlw	198
  5677  0CBA  00AD               	movwf	??_login
  5678  0CBB  082D               	movf	??_login,w
  5679  0CBC  00A4               	movwf	clcd_putch@addr
  5680  0CBD  302A               	movlw	42
  5681  0CBE  160A  158A  2355  120A  158A  	fcall	_clcd_putch
  5682  0CC3                     l6258:
  5683                           
  5684                           ;helper.c: 115:         i++;
  5685  0CC3  3001               	movlw	1
  5686  0CC4  1283               	bcf	3,5	;RP0=0, select bank0
  5687  0CC5  1303               	bcf	3,6	;RP1=0, select bank0
  5688  0CC6  00AD               	movwf	??_login
  5689  0CC7  082D               	movf	??_login,w
  5690  0CC8  07E2               	addwf	login@i,f
  5691                           
  5692                           ;helper.c: 116:     }
  5693  0CC9  2DFF               	goto	l6324
  5694  0CCA                     l6260:
  5695  0CCA  3004               	movlw	4
  5696  0CCB  0262               	subwf	login@i,w
  5697  0CCC  1803               	skipnc
  5698  0CCD  2CCF               	goto	u7551
  5699  0CCE  2CD0               	goto	u7550
  5700  0CCF                     u7551:
  5701  0CCF  2CF2               	goto	l6272
  5702  0CD0                     u7550:
  5703  0CD0                     l6262:
  5704  0CD0  302F               	movlw	47
  5705  0CD1  062E               	xorwf	login@key,w
  5706  0CD2  1D03               	btfss	3,2
  5707  0CD3  2CD5               	goto	u7561
  5708  0CD4  2CD6               	goto	u7560
  5709  0CD5                     u7561:
  5710  0CD5  2CF2               	goto	l6272
  5711  0CD6                     u7560:
  5712  0CD6                     l6264:
  5713                           
  5714                           ;helper.c: 118:     {;helper.c: 119:         return_time = 5;
  5715  0CD6  3005               	movlw	5
  5716  0CD7  1683               	bsf	3,5	;RP0=1, select bank1
  5717  0CD8  1303               	bcf	3,6	;RP1=0, select bank1
  5718  0CD9  00AE               	movwf	_return_time^(0+128)
  5719  0CDA  3000               	movlw	0
  5720  0CDB  00AF               	movwf	(_return_time^(0+128)+1)
  5721  0CDC                     l6266:
  5722                           
  5723                           ;helper.c: 120:         npassword[i] = '1';
  5724  0CDC  3031               	movlw	49
  5725  0CDD  1283               	bcf	3,5	;RP0=0, select bank0
  5726  0CDE  1303               	bcf	3,6	;RP1=0, select bank0
  5727  0CDF  00AD               	movwf	??_login
  5728  0CE0  0862               	movf	login@i,w
  5729  0CE1  3ED7               	addlw	(low (login@npassword| 0))& (0+255)
  5730  0CE2  0084               	movwf	4
  5731  0CE3  082D               	movf	??_login,w
  5732  0CE4  1383               	bcf	3,7	;select IRP bank1
  5733  0CE5  0080               	movwf	0
  5734  0CE6                     l6268:
  5735                           
  5736                           ;helper.c: 121:         clcd_putch('*', (0xC0 + (i+6)));
  5737  0CE6  0862               	movf	login@i,w
  5738  0CE7  3EC6               	addlw	198
  5739  0CE8  00AD               	movwf	??_login
  5740  0CE9  082D               	movf	??_login,w
  5741  0CEA  00A4               	movwf	clcd_putch@addr
  5742  0CEB  302A               	movlw	42
  5743  0CEC  160A  158A  2355  120A  158A  	fcall	_clcd_putch
  5744  0CF1  2CC3               	goto	l6258
  5745  0CF2                     l6272:
  5746  0CF2  3004               	movlw	4
  5747  0CF3  0662               	xorwf	login@i,w
  5748  0CF4  1D03               	btfss	3,2
  5749  0CF5  2CF7               	goto	u7571
  5750  0CF6  2CF8               	goto	u7570
  5751  0CF7                     u7571:
  5752  0CF7  2DFF               	goto	l6324
  5753  0CF8                     u7570:
  5754  0CF8                     l6274:
  5755                           
  5756                           ;helper.c: 126:     {;helper.c: 127:         get_password();
  5757  0CF8  120A  118A  27D7  120A  158A  	fcall	_get_password
  5758  0CFD                     l6276:
  5759                           
  5760                           ;helper.c: 128:         if (strncmp(spassword, npassword, 4) == 0)
  5761  0CFD  30D7               	movlw	(low (login@npassword| 0))& (0+255)
  5762  0CFE  1283               	bcf	3,5	;RP0=0, select bank0
  5763  0CFF  1303               	bcf	3,6	;RP1=0, select bank0
  5764  0D00  00AD               	movwf	??_login
  5765  0D01  082D               	movf	??_login,w
  5766  0D02  00F3               	movwf	strncmp@s2
  5767  0D03  3004               	movlw	4
  5768  0D04  00F4               	movwf	strncmp@len
  5769  0D05  3000               	movlw	0
  5770  0D06  00F5               	movwf	strncmp@len+1
  5771  0D07  30D2               	movlw	(low (_spassword| 0))& (0+255)
  5772  0D08  160A  158A  2641  120A  158A  	fcall	_strncmp
  5773  0D0D  0873               	movf	?_strncmp,w
  5774  0D0E  0474               	iorwf	?_strncmp+1,w
  5775  0D0F  1D03               	btfss	3,2
  5776  0D10  2D12               	goto	u7581
  5777  0D11  2D13               	goto	u7580
  5778  0D12                     u7581:
  5779  0D12  2D1C               	goto	l6286
  5780  0D13                     u7580:
  5781  0D13                     l6278:
  5782                           
  5783                           ;helper.c: 129:         {;helper.c: 130:             clcd_write(0x01, 0);
  5784  0D13  01F3               	clrf	clcd_write@mode
  5785  0D14  3001               	movlw	1
  5786  0D15  160A  158A  23E0  120A  158A  	fcall	_clcd_write
  5787  0D1A                     l6280:
  5788                           
  5789                           ;helper.c: 131:             return 0x01;
  5790  0D1A  3001               	movlw	1
  5791  0D1B  2E00               	goto	l217
  5792  0D1C                     l6286:
  5793                           
  5794                           ;helper.c: 135:         {;helper.c: 137:             if (--attempt_remaining == '0')
  5795  0D1C  3001               	movlw	1
  5796  0D1D  1683               	bsf	3,5	;RP0=1, select bank1
  5797  0D1E  1303               	bcf	3,6	;RP1=0, select bank1
  5798  0D1F  02B4               	subwf	login@attempt_remaining^(0+128),f
  5799  0D20  3030               	movlw	48
  5800  0D21  0634               	xorwf	login@attempt_remaining^(0+128),w
  5801  0D22  1D03               	btfss	3,2
  5802  0D23  2D25               	goto	u7591
  5803  0D24  2D26               	goto	u7590
  5804  0D25                     u7591:
  5805  0D25  2DA1               	goto	l6306
  5806  0D26                     u7590:
  5807  0D26                     l6288:
  5808                           
  5809                           ;helper.c: 138:             {;helper.c: 139:                 clcd_write(0x01, 0);
  5810  0D26  01F3               	clrf	clcd_write@mode
  5811  0D27  3001               	movlw	1
  5812  0D28  160A  158A  23E0  120A  158A  	fcall	_clcd_write
  5813  0D2D                     l6290:
  5814                           
  5815                           ;helper.c: 140:                 clcd_print("You are locked", (0x80 + (0)));
  5816  0D2D  30BB               	movlw	low (STR_7| (0+32768))
  5817  0D2E  1283               	bcf	3,5	;RP0=0, select bank0
  5818  0D2F  1303               	bcf	3,6	;RP1=0, select bank0
  5819  0D30  00A0               	movwf	clcd_print@data
  5820  0D31  3090               	movlw	high (STR_7| (0+32768))
  5821  0D32  00A1               	movwf	clcd_print@data+1
  5822  0D33  3080               	movlw	128
  5823  0D34  00AD               	movwf	??_login
  5824  0D35  082D               	movf	??_login,w
  5825  0D36  00A2               	movwf	clcd_print@addr
  5826  0D37  160A  158A  256E  120A  158A  	fcall	_clcd_print
  5827  0D3C                     l6292:
  5828                           
  5829                           ;helper.c: 141:                 clcd_print("Wait .. 60 sec", (0xC0 + (0)));
  5830  0D3C  30AC               	movlw	low (STR_8| (0+32768))
  5831  0D3D  1283               	bcf	3,5	;RP0=0, select bank0
  5832  0D3E  1303               	bcf	3,6	;RP1=0, select bank0
  5833  0D3F  00A0               	movwf	clcd_print@data
  5834  0D40  3090               	movlw	high (STR_8| (0+32768))
  5835  0D41  00A1               	movwf	clcd_print@data+1
  5836  0D42  30C0               	movlw	192
  5837  0D43  00AD               	movwf	??_login
  5838  0D44  082D               	movf	??_login,w
  5839  0D45  00A2               	movwf	clcd_print@addr
  5840  0D46  160A  158A  256E  120A  158A  	fcall	_clcd_print
  5841  0D4B                     l6294:
  5842                           
  5843                           ;helper.c: 142:                 sec = 60;
  5844  0D4B  303C               	movlw	60
  5845  0D4C  1283               	bcf	3,5	;RP0=0, select bank0
  5846  0D4D  1303               	bcf	3,6	;RP1=0, select bank0
  5847  0D4E  00DE               	movwf	_sec
  5848  0D4F  3000               	movlw	0
  5849  0D50  00DF               	movwf	_sec+1
  5850  0D51                     l6296:
  5851                           
  5852                           ;helper.c: 144:                 clcd_write(0x0C, 0);
  5853  0D51  01F3               	clrf	clcd_write@mode
  5854  0D52  300C               	movlw	12
  5855  0D53  160A  158A  23E0  120A  158A  	fcall	_clcd_write
  5856                           
  5857                           ;helper.c: 145:                 while (sec)
  5858  0D58  2D8B               	goto	l6300
  5859  0D59                     l6298:
  5860                           
  5861                           ;helper.c: 146:                 {;helper.c: 147:                     clcd_putch('0' + (s
      +                          ec / 10), (0xC0 + (8)));
  5862  0D59  30C8               	movlw	200
  5863  0D5A  00AD               	movwf	??_login
  5864  0D5B  082D               	movf	??_login,w
  5865  0D5C  00A4               	movwf	clcd_putch@addr
  5866  0D5D  300A               	movlw	10
  5867  0D5E  00F3               	movwf	___awdiv@divisor
  5868  0D5F  3000               	movlw	0
  5869  0D60  00F4               	movwf	___awdiv@divisor+1
  5870  0D61  085F               	movf	_sec+1,w
  5871  0D62  00F6               	movwf	___awdiv@dividend+1
  5872  0D63  085E               	movf	_sec,w
  5873  0D64  00F5               	movwf	___awdiv@dividend
  5874  0D65  160A  118A  22E9  120A  158A  	fcall	___awdiv
  5875  0D6A  0873               	movf	?___awdiv,w
  5876  0D6B  3E30               	addlw	48
  5877  0D6C  160A  158A  2355  120A  158A  	fcall	_clcd_putch
  5878                           
  5879                           ;helper.c: 148:                     clcd_putch('0' + (sec % 10), (0xC0 + (9)));
  5880  0D71  30C9               	movlw	201
  5881  0D72  1283               	bcf	3,5	;RP0=0, select bank0
  5882  0D73  1303               	bcf	3,6	;RP1=0, select bank0
  5883  0D74  00AD               	movwf	??_login
  5884  0D75  082D               	movf	??_login,w
  5885  0D76  00A4               	movwf	clcd_putch@addr
  5886  0D77  300A               	movlw	10
  5887  0D78  00F3               	movwf	___awmod@divisor
  5888  0D79  3000               	movlw	0
  5889  0D7A  00F4               	movwf	___awmod@divisor+1
  5890  0D7B  085F               	movf	_sec+1,w
  5891  0D7C  00F6               	movwf	___awmod@dividend+1
  5892  0D7D  085E               	movf	_sec,w
  5893  0D7E  00F5               	movwf	___awmod@dividend
  5894  0D7F  160A  118A  21C5  120A  158A  	fcall	___awmod
  5895  0D84  0873               	movf	?___awmod,w
  5896  0D85  3E30               	addlw	48
  5897  0D86  160A  158A  2355  120A  158A  	fcall	_clcd_putch
  5898  0D8B                     l6300:
  5899                           
  5900                           ;helper.c: 145:                 while (sec)
  5901  0D8B  1283               	bcf	3,5	;RP0=0, select bank0
  5902  0D8C  1303               	bcf	3,6	;RP1=0, select bank0
  5903  0D8D  085E               	movf	_sec,w
  5904  0D8E  045F               	iorwf	_sec+1,w
  5905  0D8F  1D03               	btfss	3,2
  5906  0D90  2D92               	goto	u7601
  5907  0D91  2D93               	goto	u7600
  5908  0D92                     u7601:
  5909  0D92  2D59               	goto	l6298
  5910  0D93                     u7600:
  5911  0D93                     l6302:
  5912                           
  5913                           ;helper.c: 151:                 attempt_remaining = '3';
  5914  0D93  3033               	movlw	51
  5915  0D94  00AD               	movwf	??_login
  5916  0D95  082D               	movf	??_login,w
  5917  0D96  1683               	bsf	3,5	;RP0=1, select bank1
  5918  0D97  1303               	bcf	3,6	;RP1=0, select bank1
  5919  0D98  00B4               	movwf	login@attempt_remaining^(0+128)
  5920  0D99                     l6304:
  5921                           
  5922                           ;helper.c: 153:                 clcd_write(0x0F, 0);
  5923  0D99  01F3               	clrf	clcd_write@mode
  5924  0D9A  300F               	movlw	15
  5925  0D9B  160A  158A  23E0  120A  158A  	fcall	_clcd_write
  5926                           
  5927                           ;helper.c: 154:             }
  5928  0DA0  2DE0               	goto	l6316
  5929  0DA1                     l6306:
  5930                           
  5931                           ;helper.c: 156:             {;helper.c: 157:                 clcd_write(0x01, 0);
  5932  0DA1  01F3               	clrf	clcd_write@mode
  5933  0DA2  3001               	movlw	1
  5934  0DA3  160A  158A  23E0  120A  158A  	fcall	_clcd_write
  5935  0DA8                     l6308:
  5936                           
  5937                           ;helper.c: 158:                 clcd_print("WRONG PASSWORD", (0x80 + (1)));
  5938  0DA8  309D               	movlw	low (STR_9| (0+32768))
  5939  0DA9  1283               	bcf	3,5	;RP0=0, select bank0
  5940  0DAA  1303               	bcf	3,6	;RP1=0, select bank0
  5941  0DAB  00A0               	movwf	clcd_print@data
  5942  0DAC  3090               	movlw	high (STR_9| (0+32768))
  5943  0DAD  00A1               	movwf	clcd_print@data+1
  5944  0DAE  3081               	movlw	129
  5945  0DAF  00AD               	movwf	??_login
  5946  0DB0  082D               	movf	??_login,w
  5947  0DB1  00A2               	movwf	clcd_print@addr
  5948  0DB2  160A  158A  256E  120A  158A  	fcall	_clcd_print
  5949  0DB7                     l6310:
  5950                           
  5951                           ;helper.c: 159:                 clcd_putch(attempt_remaining, (0xC0 + (0)));
  5952  0DB7  30C0               	movlw	192
  5953  0DB8  1283               	bcf	3,5	;RP0=0, select bank0
  5954  0DB9  1303               	bcf	3,6	;RP1=0, select bank0
  5955  0DBA  00AD               	movwf	??_login
  5956  0DBB  082D               	movf	??_login,w
  5957  0DBC  00A4               	movwf	clcd_putch@addr
  5958  0DBD  1683               	bsf	3,5	;RP0=1, select bank1
  5959  0DBE  1303               	bcf	3,6	;RP1=0, select bank1
  5960  0DBF  0834               	movf	login@attempt_remaining^(0+128),w
  5961  0DC0  160A  158A  2355  120A  158A  	fcall	_clcd_putch
  5962                           
  5963                           ;helper.c: 160:                 clcd_print("Attempt Left", (0xC0 + (2)));
  5964  0DC5  300E               	movlw	low (STR_10| (0+32768))
  5965  0DC6  1283               	bcf	3,5	;RP0=0, select bank0
  5966  0DC7  1303               	bcf	3,6	;RP1=0, select bank0
  5967  0DC8  00A0               	movwf	clcd_print@data
  5968  0DC9  3091               	movlw	high (STR_10| (0+32768))
  5969  0DCA  00A1               	movwf	clcd_print@data+1
  5970  0DCB  30C2               	movlw	194
  5971  0DCC  00AD               	movwf	??_login
  5972  0DCD  082D               	movf	??_login,w
  5973  0DCE  00A2               	movwf	clcd_print@addr
  5974  0DCF  160A  158A  256E  120A  158A  	fcall	_clcd_print
  5975  0DD4                     l6312:
  5976                           
  5977                           ;helper.c: 162:                 sec = 3;
  5978  0DD4  3003               	movlw	3
  5979  0DD5  1283               	bcf	3,5	;RP0=0, select bank0
  5980  0DD6  1303               	bcf	3,6	;RP1=0, select bank0
  5981  0DD7  00DE               	movwf	_sec
  5982  0DD8  3000               	movlw	0
  5983  0DD9  00DF               	movwf	_sec+1
  5984  0DDA                     l6314:	
  5985                           ;helper.c: 163:                 while(sec);
  5986                           
  5987  0DDA  085E               	movf	_sec,w
  5988  0DDB  045F               	iorwf	_sec+1,w
  5989  0DDC  1D03               	btfss	3,2
  5990  0DDD  2DDF               	goto	u7611
  5991  0DDE  2DE0               	goto	u7610
  5992  0DDF                     u7611:
  5993  0DDF  2DDA               	goto	l6314
  5994  0DE0                     u7610:
  5995  0DE0                     l6316:
  5996                           
  5997                           ;helper.c: 165:             clcd_write(0x01, 0);
  5998  0DE0  01F3               	clrf	clcd_write@mode
  5999  0DE1  3001               	movlw	1
  6000  0DE2  160A  158A  23E0  120A  158A  	fcall	_clcd_write
  6001  0DE7                     l6318:
  6002                           
  6003                           ;helper.c: 166:             clcd_print("Enter Password", (0x80 + (1)));
  6004  0DE7  30CA               	movlw	low (STR_11| (0+32768))
  6005  0DE8  1283               	bcf	3,5	;RP0=0, select bank0
  6006  0DE9  1303               	bcf	3,6	;RP1=0, select bank0
  6007  0DEA  00A0               	movwf	clcd_print@data
  6008  0DEB  3090               	movlw	high (STR_11| (0+32768))
  6009  0DEC  00A1               	movwf	clcd_print@data+1
  6010  0DED  3081               	movlw	129
  6011  0DEE  00AD               	movwf	??_login
  6012  0DEF  082D               	movf	??_login,w
  6013  0DF0  00A2               	movwf	clcd_print@addr
  6014  0DF1  160A  158A  256E  120A  158A  	fcall	_clcd_print
  6015  0DF6                     l6320:
  6016                           
  6017                           ;helper.c: 167:             return_time = 5;
  6018  0DF6  3005               	movlw	5
  6019  0DF7  1683               	bsf	3,5	;RP0=1, select bank1
  6020  0DF8  1303               	bcf	3,6	;RP1=0, select bank1
  6021  0DF9  00AE               	movwf	_return_time^(0+128)
  6022  0DFA  3000               	movlw	0
  6023  0DFB  00AF               	movwf	(_return_time^(0+128)+1)
  6024  0DFC                     l6322:
  6025                           
  6026                           ;helper.c: 168:             i = 0;
  6027  0DFC  1283               	bcf	3,5	;RP0=0, select bank0
  6028  0DFD  1303               	bcf	3,6	;RP1=0, select bank0
  6029  0DFE  01E2               	clrf	login@i
  6030  0DFF                     l6324:
  6031                           
  6032                           ;helper.c: 171:     return 0x10;
  6033  0DFF  3010               	movlw	16
  6034  0E00                     l217:
  6035  0E00  0008               	return
  6036  0E01                     __end_of_login:
  6037                           
  6038                           	psect	text8
  6039  1FA6                     __ptext8:	
  6040 ;; *************** function _log_car_event *****************
  6041 ;; Defined at:
  6042 ;;		line 235 in file "helper.c"
  6043 ;; Parameters:    Size  Location     Type
  6044 ;;  event           2   11[BANK0 ] PTR unsigned char 
  6045 ;;		 -> STR_37(3), main@event(3), 
  6046 ;;  speed           2   13[BANK0 ] unsigned short 
  6047 ;; Auto vars:     Size  Location     Type
  6048 ;;		None
  6049 ;; Return value:  Size  Location     Type
  6050 ;;                  1    wreg      void 
  6051 ;; Registers used:
  6052 ;;		wreg, fsr0l, fsr0h, status,2, status,0, btemp+1, pclath, cstack
  6053 ;; Tracked objects:
  6054 ;;		On entry : 0/0
  6055 ;;		On exit  : 0/0
  6056 ;;		Unchanged: 0/0
  6057 ;; Data sizes:     COMMON   BANK0   BANK1   BANK3   BANK2
  6058 ;;      Params:         0       4       0       0       0
  6059 ;;      Locals:         0       0       0       0       0
  6060 ;;      Temps:          0       1       0       0       0
  6061 ;;      Totals:         0       5       0       0       0
  6062 ;;Total ram usage:        5 bytes
  6063 ;; Hardware stack levels used: 1
  6064 ;; Hardware stack levels required when called: 6
  6065 ;; This function calls:
  6066 ;;		___lwdiv
  6067 ;;		___lwmod
  6068 ;;		_get_time
  6069 ;;		_log_event
  6070 ;;		_strncpy
  6071 ;; This function is called by:
  6072 ;;		_main
  6073 ;; This function uses a non-reentrant model
  6074 ;;
  6075                           
  6076                           
  6077                           ;psect for function _log_car_event
  6078  1FA6                     _log_car_event:
  6079  1FA6                     l5184:	
  6080                           ;incstack = 0
  6081                           ; Regs used in _log_car_event: [wreg-fsr0h+status,2+status,0+btemp+1+pclath+cstack]
  6082                           
  6083                           
  6084                           ;helper.c: 235: void log_car_event (char *event ,unsigned short speed);helper.c: 236: {;
      +                          helper.c: 238:     get_time();
  6085  1FA6  160A  118A  251C  160A  158A  	fcall	_get_time
  6086  1FAB                     l5186:
  6087                           
  6088                           ;helper.c: 240:     strncpy(log, time, 6);
  6089  1FAB  30C1               	movlw	(low (_time| 0))& (0+255)
  6090  1FAC  00F3               	movwf	strncpy@from
  6091  1FAD  3000               	movlw	0
  6092  1FAE  00F4               	movwf	strncpy@from+1
  6093  1FAF  3006               	movlw	6
  6094  1FB0  00F5               	movwf	strncpy@size
  6095  1FB1  3000               	movlw	0
  6096  1FB2  00F6               	movwf	strncpy@size+1
  6097  1FB3  30B6               	movlw	(low (_log| 0))& (0+255)
  6098  1FB4  160A  118A  217B  160A  158A  	fcall	_strncpy
  6099  1FB9                     l5188:
  6100                           
  6101                           ;helper.c: 242:     strncpy(&log[6], event, 2);
  6102  1FB9  1283               	bcf	3,5	;RP0=0, select bank0
  6103  1FBA  1303               	bcf	3,6	;RP1=0, select bank0
  6104  1FBB  082B               	movf	log_car_event@event,w
  6105  1FBC  00F3               	movwf	strncpy@from
  6106  1FBD  082C               	movf	log_car_event@event+1,w
  6107  1FBE  00F4               	movwf	strncpy@from+1
  6108  1FBF  3002               	movlw	2
  6109  1FC0  00F5               	movwf	strncpy@size
  6110  1FC1  3000               	movlw	0
  6111  1FC2  00F6               	movwf	strncpy@size+1
  6112  1FC3  30BC               	movlw	(low ((_log| 0+6)))& (0+255)
  6113  1FC4  160A  118A  217B  160A  158A  	fcall	_strncpy
  6114                           
  6115                           ;helper.c: 245:     log[8] = (speed/10) + '0';
  6116  1FC9  300A               	movlw	10
  6117  1FCA  00F3               	movwf	___lwdiv@divisor
  6118  1FCB  3000               	movlw	0
  6119  1FCC  00F4               	movwf	___lwdiv@divisor+1
  6120  1FCD  1283               	bcf	3,5	;RP0=0, select bank0
  6121  1FCE  1303               	bcf	3,6	;RP1=0, select bank0
  6122  1FCF  082E               	movf	log_car_event@speed+1,w
  6123  1FD0  00F6               	movwf	___lwdiv@dividend+1
  6124  1FD1  082D               	movf	log_car_event@speed,w
  6125  1FD2  00F5               	movwf	___lwdiv@dividend
  6126  1FD3  160A  158A  26BE  160A  158A  	fcall	___lwdiv
  6127  1FD8  0873               	movf	?___lwdiv,w
  6128  1FD9  3E30               	addlw	48
  6129  1FDA  1283               	bcf	3,5	;RP0=0, select bank0
  6130  1FDB  1303               	bcf	3,6	;RP1=0, select bank0
  6131  1FDC  00AF               	movwf	??_log_car_event
  6132  1FDD  082F               	movf	??_log_car_event,w
  6133  1FDE  1683               	bsf	3,5	;RP0=1, select bank1
  6134  1FDF  1303               	bcf	3,6	;RP1=0, select bank1
  6135  1FE0  00BE               	movwf	(_log^(0+128)+8)
  6136                           
  6137                           ;helper.c: 246:     log[9] = (speed % 10) + '0';
  6138  1FE1  300A               	movlw	10
  6139  1FE2  00F3               	movwf	___lwmod@divisor
  6140  1FE3  3000               	movlw	0
  6141  1FE4  00F4               	movwf	___lwmod@divisor+1
  6142  1FE5  1283               	bcf	3,5	;RP0=0, select bank0
  6143  1FE6  1303               	bcf	3,6	;RP1=0, select bank0
  6144  1FE7  082E               	movf	log_car_event@speed+1,w
  6145  1FE8  00F6               	movwf	___lwmod@dividend+1
  6146  1FE9  082D               	movf	log_car_event@speed,w
  6147  1FEA  00F5               	movwf	___lwmod@dividend
  6148  1FEB  120A  158A  2002  160A  158A  	fcall	___lwmod
  6149  1FF0  0873               	movf	?___lwmod,w
  6150  1FF1  3E30               	addlw	48
  6151  1FF2  1283               	bcf	3,5	;RP0=0, select bank0
  6152  1FF3  1303               	bcf	3,6	;RP1=0, select bank0
  6153  1FF4  00AF               	movwf	??_log_car_event
  6154  1FF5  082F               	movf	??_log_car_event,w
  6155  1FF6  1683               	bsf	3,5	;RP0=1, select bank1
  6156  1FF7  1303               	bcf	3,6	;RP1=0, select bank1
  6157  1FF8  00BF               	movwf	(_log^(0+128)+9)
  6158  1FF9                     l5190:
  6159                           
  6160                           ;helper.c: 247:     log[10] = '\0';
  6161  1FF9  01C0               	clrf	(_log^(0+128)+10)
  6162  1FFA                     l5192:
  6163                           
  6164                           ;helper.c: 250:     log_event();
  6165  1FFA  160A  158A  2704  160A  158A  	fcall	_log_event
  6166  1FFF                     l255:
  6167  1FFF  0008               	return
  6168  2000                     __end_of_log_car_event:
  6169                           
  6170                           	psect	text9
  6171  117B                     __ptext9:	
  6172 ;; *************** function _strncpy *****************
  6173 ;; Defined at:
  6174 ;;		line 8 in file "/opt/microchip/xc8/v2.32/pic/sources/c90/common/strncpy.c"
  6175 ;; Parameters:    Size  Location     Type
  6176 ;;  to              1    wreg     PTR unsigned char 
  6177 ;;		 -> log(11), 
  6178 ;;  from            2    3[COMMON] PTR const unsigned char 
  6179 ;;		 -> STR_37(3), main@event(3), time(7), 
  6180 ;;  size            2    5[COMMON] unsigned int 
  6181 ;; Auto vars:     Size  Location     Type
  6182 ;;  to              1    7[COMMON] PTR unsigned char 
  6183 ;;		 -> log(11), 
  6184 ;;  cp              1    8[COMMON] PTR unsigned char 
  6185 ;;		 -> log(11), 
  6186 ;; Return value:  Size  Location     Type
  6187 ;;                  1    wreg      PTR unsigned char 
  6188 ;; Registers used:
  6189 ;;		wreg, fsr0l, fsr0h, status,2, status,0, btemp+1, pclath
  6190 ;; Tracked objects:
  6191 ;;		On entry : 0/0
  6192 ;;		On exit  : 0/0
  6193 ;;		Unchanged: 0/0
  6194 ;; Data sizes:     COMMON   BANK0   BANK1   BANK3   BANK2
  6195 ;;      Params:         4       0       0       0       0
  6196 ;;      Locals:         2       0       0       0       0
  6197 ;;      Temps:          0       3       0       0       0
  6198 ;;      Totals:         6       3       0       0       0
  6199 ;;Total ram usage:        9 bytes
  6200 ;; Hardware stack levels used: 2
  6201 ;; Hardware stack levels required when called: 1
  6202 ;; This function calls:
  6203 ;;		Nothing
  6204 ;; This function is called by:
  6205 ;;		_log_car_event
  6206 ;; This function uses a non-reentrant model
  6207 ;;
  6208                           
  6209                           
  6210                           ;psect for function _strncpy
  6211  117B                     _strncpy:
  6212                           
  6213                           ;incstack = 0
  6214                           ; Regs used in _strncpy: [wreg-fsr0h+status,2+status,0+btemp+1+pclath]
  6215                           ;strncpy@to stored from wreg
  6216  117B  00F7               	movwf	strncpy@to
  6217  117C                     l4726:
  6218  117C  0877               	movf	strncpy@to,w
  6219  117D  1283               	bcf	3,5	;RP0=0, select bank0
  6220  117E  1303               	bcf	3,6	;RP1=0, select bank0
  6221  117F  00A0               	movwf	??_strncpy
  6222  1180  0820               	movf	??_strncpy,w
  6223  1181  00F8               	movwf	strncpy@cp
  6224  1182  29A7               	goto	l4734
  6225  1183                     l4728:
  6226  1183  3001               	movlw	1
  6227  1184  02F5               	subwf	strncpy@size,f
  6228  1185  3000               	movlw	0
  6229  1186  1C03               	skipc
  6230  1187  03F6               	decf	strncpy@size+1,f
  6231  1188  02F6               	subwf	strncpy@size+1,f
  6232  1189                     l4730:
  6233  1189  0874               	movf	strncpy@from+1,w
  6234  118A  00A1               	movwf	??_strncpy+1
  6235  118B  0873               	movf	strncpy@from,w
  6236  118C  00A0               	movwf	??_strncpy
  6237  118D  0AF3               	incf	strncpy@from,f
  6238  118E  1903               	skipnz
  6239  118F  0AF4               	incf	strncpy@from+1,f
  6240  1190  0821               	movf	??_strncpy+1,w
  6241  1191  00FF               	movwf	btemp+1
  6242  1192  0820               	movf	??_strncpy,w
  6243  1193  0084               	movwf	4
  6244  1194  160A  158A  2000  160A  118A  	fcall	stringtab
  6245  1199  00A2               	movwf	??_strncpy+2
  6246  119A  0878               	movf	strncpy@cp,w
  6247  119B  0084               	movwf	4
  6248  119C  3001               	movlw	1
  6249  119D  07F8               	addwf	strncpy@cp,f
  6250  119E  0822               	movf	??_strncpy+2,w
  6251  119F  1383               	bcf	3,7	;select IRP bank0
  6252  11A0  0080               	movwf	0
  6253  11A1  0800               	movf	0,w
  6254  11A2  1D03               	btfss	3,2
  6255  11A3  29A5               	goto	u5281
  6256  11A4  29A6               	goto	u5280
  6257  11A5                     u5281:
  6258  11A5  29A7               	goto	l4734
  6259  11A6                     u5280:
  6260  11A6  29B6               	goto	l4740
  6261  11A7                     l4734:
  6262  11A7  0875               	movf	strncpy@size,w
  6263  11A8  0476               	iorwf	strncpy@size+1,w
  6264  11A9  1D03               	btfss	3,2
  6265  11AA  29AC               	goto	u5291
  6266  11AB  29AD               	goto	u5290
  6267  11AC                     u5291:
  6268  11AC  2983               	goto	l4728
  6269  11AD                     u5290:
  6270  11AD  29B6               	goto	l4740
  6271  11AE                     l4736:
  6272  11AE  0878               	movf	strncpy@cp,w
  6273  11AF  0084               	movwf	4
  6274  11B0  1383               	bcf	3,7	;select IRP bank0
  6275  11B1  0180               	clrf	0
  6276  11B2                     l4738:
  6277  11B2  3001               	movlw	1
  6278  11B3  00A0               	movwf	??_strncpy
  6279  11B4  0820               	movf	??_strncpy,w
  6280  11B5  07F8               	addwf	strncpy@cp,f
  6281  11B6                     l4740:
  6282  11B6  3001               	movlw	1
  6283  11B7  02F5               	subwf	strncpy@size,f
  6284  11B8  3000               	movlw	0
  6285  11B9  1C03               	skipc
  6286  11BA  03F6               	decf	strncpy@size+1,f
  6287  11BB  02F6               	subwf	strncpy@size+1,f
  6288  11BC  0A75               	incf	strncpy@size,w
  6289  11BD  1D03               	skipz
  6290  11BE  29C3               	goto	u5301
  6291  11BF  0A76               	incf	strncpy@size+1,w
  6292  11C0  1D03               	btfss	3,2
  6293  11C1  29C3               	goto	u5301
  6294  11C2  29C4               	goto	u5300
  6295  11C3                     u5301:
  6296  11C3  29AE               	goto	l4736
  6297  11C4                     u5300:
  6298  11C4                     l1182:
  6299  11C4  0008               	return
  6300  11C5                     __end_of_strncpy:
  6301                           
  6302                           	psect	text10
  6303  1F04                     __ptext10:	
  6304 ;; *************** function _log_event *****************
  6305 ;; Defined at:
  6306 ;;		line 213 in file "helper.c"
  6307 ;; Parameters:    Size  Location     Type
  6308 ;;		None
  6309 ;; Auto vars:     Size  Location     Type
  6310 ;;  addr            1    7[BANK0 ] unsigned char 
  6311 ;; Return value:  Size  Location     Type
  6312 ;;                  1    wreg      void 
  6313 ;; Registers used:
  6314 ;;		wreg, fsr0l, fsr0h, status,2, status,0, btemp+1, pclath, cstack
  6315 ;; Tracked objects:
  6316 ;;		On entry : 0/0
  6317 ;;		On exit  : 0/0
  6318 ;;		Unchanged: 0/0
  6319 ;; Data sizes:     COMMON   BANK0   BANK1   BANK3   BANK2
  6320 ;;      Params:         0       0       0       0       0
  6321 ;;      Locals:         0       1       0       0       0
  6322 ;;      Temps:          0       2       0       0       0
  6323 ;;      Totals:         0       3       0       0       0
  6324 ;;Total ram usage:        3 bytes
  6325 ;; Hardware stack levels used: 1
  6326 ;; Hardware stack levels required when called: 5
  6327 ;; This function calls:
  6328 ;;		___bmul
  6329 ;;		_eeprom_at24c04_str_write
  6330 ;; This function is called by:
  6331 ;;		_log_car_event
  6332 ;; This function uses a non-reentrant model
  6333 ;;
  6334                           
  6335                           
  6336                           ;psect for function _log_event
  6337  1F04                     _log_event:
  6338  1F04                     l4712:	
  6339                           ;incstack = 0
  6340                           ; Regs used in _log_event: [wreg-fsr0h+status,2+status,0+btemp+1+pclath+cstack]
  6341                           
  6342                           
  6343                           ;helper.c: 215:     char addr;;helper.c: 217:     if (++pos == 10)
  6344  1F04  3001               	movlw	1
  6345  1F05  1683               	bsf	3,5	;RP0=1, select bank1
  6346  1F06  1303               	bcf	3,6	;RP1=0, select bank1
  6347  1F07  07EC               	addwf	_pos^(0+128),f
  6348  1F08  1803               	skipnc
  6349  1F09  0AED               	incf	(_pos+1)^(0+128),f
  6350  1F0A  3000               	movlw	0
  6351  1F0B  07ED               	addwf	(_pos+1)^(0+128),f
  6352  1F0C  300A               	movlw	10
  6353  1F0D  066C               	xorwf	_pos^(0+128),w
  6354  1F0E  046D               	iorwf	(_pos+1)^(0+128),w
  6355  1F0F  1D03               	btfss	3,2
  6356  1F10  2F12               	goto	u5261
  6357  1F11  2F13               	goto	u5260
  6358  1F12                     u5261:
  6359  1F12  2F17               	goto	l4718
  6360  1F13                     u5260:
  6361  1F13                     l4714:
  6362                           
  6363                           ;helper.c: 218:     {;helper.c: 219:         pos = 0;
  6364  1F13  01EC               	clrf	_pos^(0+128)
  6365  1F14  01ED               	clrf	(_pos+1)^(0+128)
  6366  1F15                     l4716:
  6367                           
  6368                           ;helper.c: 220:         overflow = 1;
  6369  1F15  01B5               	clrf	_overflow^(0+128)
  6370  1F16  0AB5               	incf	_overflow^(0+128),f
  6371  1F17                     l4718:
  6372                           
  6373                           ;helper.c: 223:     addr = (pos * 10) + 5;
  6374  1F17  300A               	movlw	10
  6375  1F18  1283               	bcf	3,5	;RP0=0, select bank0
  6376  1F19  1303               	bcf	3,6	;RP1=0, select bank0
  6377  1F1A  00A5               	movwf	??_log_event
  6378  1F1B  0825               	movf	??_log_event,w
  6379  1F1C  00F3               	movwf	___bmul@multiplicand
  6380  1F1D  1683               	bsf	3,5	;RP0=1, select bank1
  6381  1F1E  1303               	bcf	3,6	;RP1=0, select bank1
  6382  1F1F  086C               	movf	_pos^(0+128),w
  6383  1F20  160A  158A  237F  160A  158A  	fcall	___bmul
  6384  1F25  3E05               	addlw	5
  6385  1F26  1283               	bcf	3,5	;RP0=0, select bank0
  6386  1F27  1303               	bcf	3,6	;RP1=0, select bank0
  6387  1F28  00A6               	movwf	??_log_event+1
  6388  1F29  0826               	movf	??_log_event+1,w
  6389  1F2A  00A7               	movwf	log_event@addr
  6390  1F2B                     l4720:
  6391                           
  6392                           ;helper.c: 225:     eeprom_at24c04_str_write(addr, log);
  6393  1F2B  30B6               	movlw	(low (_log| 0))& (0+255)
  6394  1F2C  00A5               	movwf	??_log_event
  6395  1F2D  0825               	movf	??_log_event,w
  6396  1F2E  00A2               	movwf	eeprom_at24c04_str_write@data
  6397  1F2F  0827               	movf	log_event@addr,w
  6398  1F30  160A  158A  2400  160A  158A  	fcall	_eeprom_at24c04_str_write
  6399  1F35                     l4722:
  6400                           
  6401                           ;helper.c: 227:     if (access < 9)
  6402  1F35  1683               	bsf	3,5	;RP0=1, select bank1
  6403  1F36  1303               	bcf	3,6	;RP1=0, select bank1
  6404  1F37  086B               	movf	(_access+1)^(0+128),w
  6405  1F38  3A80               	xorlw	128
  6406  1F39  00FF               	movwf	btemp+1
  6407  1F3A  3080               	movlw	128
  6408  1F3B  027F               	subwf	btemp+1,w
  6409  1F3C  1D03               	skipz
  6410  1F3D  2F40               	goto	u5275
  6411  1F3E  3009               	movlw	9
  6412  1F3F  026A               	subwf	_access^(0+128),w
  6413  1F40                     u5275:
  6414  1F40  1803               	skipnc
  6415  1F41  2F43               	goto	u5271
  6416  1F42  2F44               	goto	u5270
  6417  1F43                     u5271:
  6418  1F43  2F4C               	goto	l252
  6419  1F44                     u5270:
  6420  1F44                     l4724:
  6421                           
  6422                           ;helper.c: 228:     {;helper.c: 229:         access++;
  6423  1F44  3001               	movlw	1
  6424  1F45  1683               	bsf	3,5	;RP0=1, select bank1
  6425  1F46  1303               	bcf	3,6	;RP1=0, select bank1
  6426  1F47  07EA               	addwf	_access^(0+128),f
  6427  1F48  1803               	skipnc
  6428  1F49  0AEB               	incf	(_access+1)^(0+128),f
  6429  1F4A  3000               	movlw	0
  6430  1F4B  07EB               	addwf	(_access+1)^(0+128),f
  6431  1F4C                     l252:
  6432  1F4C  0008               	return
  6433  1F4D                     __end_of_log_event:
  6434                           
  6435                           	psect	text11
  6436  1B7F                     __ptext11:	
  6437 ;; *************** function ___bmul *****************
  6438 ;; Defined at:
  6439 ;;		line 4 in file "/opt/microchip/xc8/v2.32/pic/sources/c90/common/Umul8.c"
  6440 ;; Parameters:    Size  Location     Type
  6441 ;;  multiplier      1    wreg     unsigned char 
  6442 ;;  multiplicand    1    3[COMMON] unsigned char 
  6443 ;; Auto vars:     Size  Location     Type
  6444 ;;  multiplier      1    6[COMMON] unsigned char 
  6445 ;;  product         1    5[COMMON] unsigned char 
  6446 ;; Return value:  Size  Location     Type
  6447 ;;                  1    wreg      unsigned char 
  6448 ;; Registers used:
  6449 ;;		wreg, status,2, status,0
  6450 ;; Tracked objects:
  6451 ;;		On entry : 0/0
  6452 ;;		On exit  : 0/0
  6453 ;;		Unchanged: 0/0
  6454 ;; Data sizes:     COMMON   BANK0   BANK1   BANK3   BANK2
  6455 ;;      Params:         1       0       0       0       0
  6456 ;;      Locals:         2       0       0       0       0
  6457 ;;      Temps:          1       0       0       0       0
  6458 ;;      Totals:         4       0       0       0       0
  6459 ;;Total ram usage:        4 bytes
  6460 ;; Hardware stack levels used: 1
  6461 ;; Hardware stack levels required when called: 1
  6462 ;; This function calls:
  6463 ;;		Nothing
  6464 ;; This function is called by:
  6465 ;;		_log_event
  6466 ;;		_view_log
  6467 ;; This function uses a non-reentrant model
  6468 ;;
  6469                           
  6470                           
  6471                           ;psect for function ___bmul
  6472  1B7F                     ___bmul:
  6473                           
  6474                           ;incstack = 0
  6475                           ; Regs used in ___bmul: [wreg+status,2+status,0]
  6476                           ;___bmul@multiplier stored from wreg
  6477  1B7F  00F6               	movwf	___bmul@multiplier
  6478  1B80                     l4550:
  6479  1B80  01F5               	clrf	___bmul@product
  6480  1B81                     l4552:
  6481  1B81  1C76               	btfss	___bmul@multiplier,0
  6482  1B82  2B84               	goto	u4921
  6483  1B83  2B85               	goto	u4920
  6484  1B84                     u4921:
  6485  1B84  2B89               	goto	l4556
  6486  1B85                     u4920:
  6487  1B85                     l4554:
  6488  1B85  0873               	movf	___bmul@multiplicand,w
  6489  1B86  00F4               	movwf	??___bmul
  6490  1B87  0874               	movf	??___bmul,w
  6491  1B88  07F5               	addwf	___bmul@product,f
  6492  1B89                     l4556:
  6493  1B89  1003               	clrc
  6494  1B8A  0DF3               	rlf	___bmul@multiplicand,f
  6495  1B8B                     l4558:
  6496  1B8B  1003               	clrc
  6497  1B8C  0CF6               	rrf	___bmul@multiplier,f
  6498  1B8D  0876               	movf	___bmul@multiplier,w
  6499  1B8E  1D03               	btfss	3,2
  6500  1B8F  2B91               	goto	u4931
  6501  1B90  2B92               	goto	u4930
  6502  1B91                     u4931:
  6503  1B91  2B81               	goto	l4552
  6504  1B92                     u4930:
  6505  1B92                     l4560:
  6506  1B92  0875               	movf	___bmul@product,w
  6507  1B93                     l735:
  6508  1B93  0008               	return
  6509  1B94                     __end_of___bmul:
  6510                           
  6511                           	psect	text12
  6512  1D0C                     __ptext12:	
  6513 ;; *************** function _init_config *****************
  6514 ;; Defined at:
  6515 ;;		line 24 in file "main.c"
  6516 ;; Parameters:    Size  Location     Type
  6517 ;;		None
  6518 ;; Auto vars:     Size  Location     Type
  6519 ;;		None
  6520 ;; Return value:  Size  Location     Type
  6521 ;;                  1    wreg      void 
  6522 ;; Registers used:
  6523 ;;		wreg, status,2, status,0, pclath, cstack
  6524 ;; Tracked objects:
  6525 ;;		On entry : 0/0
  6526 ;;		On exit  : 0/0
  6527 ;;		Unchanged: 0/0
  6528 ;; Data sizes:     COMMON   BANK0   BANK1   BANK3   BANK2
  6529 ;;      Params:         0       0       0       0       0
  6530 ;;      Locals:         0       0       0       0       0
  6531 ;;      Temps:          0       0       0       0       0
  6532 ;;      Totals:         0       0       0       0       0
  6533 ;;Total ram usage:        0 bytes
  6534 ;; Hardware stack levels used: 1
  6535 ;; Hardware stack levels required when called: 5
  6536 ;; This function calls:
  6537 ;;		_init_adc
  6538 ;;		_init_clcd
  6539 ;;		_init_digital_keypad
  6540 ;;		_init_ds1307
  6541 ;;		_init_i2c
  6542 ;;		_init_timer2
  6543 ;;		_init_uart
  6544 ;; This function is called by:
  6545 ;;		_main
  6546 ;; This function uses a non-reentrant model
  6547 ;;
  6548                           
  6549                           
  6550                           ;psect for function _init_config
  6551  1D0C                     _init_config:
  6552  1D0C                     l5476:	
  6553                           ;incstack = 0
  6554                           ; Regs used in _init_config: [wreg+status,2+status,0+pclath+cstack]
  6555                           
  6556                           
  6557                           ;main.c: 26:   char event[3] = "ON";
  6558  1D0C  160A  158A  22E5  160A  158A  	fcall	_init_clcd
  6559                           
  6560                           ;main.c: 27:  int gr = 0;
  6561  1D11  160A  158A  22A6  160A  158A  	fcall	_init_digital_keypad
  6562                           
  6563                           ;main.c: 28:  unsigned short speed = 0;
  6564  1D16  160A  158A  2341  160A  158A  	fcall	_init_i2c
  6565                           
  6566                           ;main.c: 29:  char control_flag = 0x01;
  6567  1D1B  160A  158A  2394  160A  158A  	fcall	_init_ds1307
  6568  1D20                     l5478:
  6569                           
  6570                           ;main.c: 30:  char reset_flag = 0x00 ;
  6571  1D20  160A  158A  236A  160A  158A  	fcall	_init_adc
  6572  1D25                     l5480:
  6573                           
  6574                           ;main.c: 31:  int menu_pos = 0;
  6575  1D25  160A  158A  22FC  160A  158A  	fcall	_init_timer2
  6576  1D2A                     l5482:
  6577                           
  6578                           ;main.c: 32:     int wait_time = 0;
  6579  1D2A  3000               	movlw	0
  6580  1D2B  1283               	bcf	3,5	;RP0=0, select bank0
  6581  1D2C  1303               	bcf	3,6	;RP1=0, select bank0
  6582  1D2D  00AB               	movwf	init_uart@baud+3
  6583  1D2E  3000               	movlw	0
  6584  1D2F  00AA               	movwf	init_uart@baud+2
  6585  1D30  3025               	movlw	37
  6586  1D31  00A9               	movwf	init_uart@baud+1
  6587  1D32  3080               	movlw	128
  6588  1D33  00A8               	movwf	init_uart@baud
  6589  1D34  160A  158A  253C  160A  158A  	fcall	_init_uart
  6590  1D39                     l5484:
  6591                           
  6592                           ;main.c: 35:     {
  6593  1D39  170B               	bsf	11,6	;volatile
  6594  1D3A                     l5486:
  6595                           
  6596                           ;main.c: 38:          for (unsigned int wait = 3000; wait--;);
  6597  1D3A  178B               	bsf	11,7	;volatile
  6598  1D3B                     l521:
  6599  1D3B  0008               	return
  6600  1D3C                     __end_of_init_config:
  6601                           
  6602                           	psect	text13
  6603  1D3C                     __ptext13:	
  6604 ;; *************** function _init_uart *****************
  6605 ;; Defined at:
  6606 ;;		line 3 in file "uart.c"
  6607 ;; Parameters:    Size  Location     Type
  6608 ;;  baud            4    8[BANK0 ] unsigned long 
  6609 ;; Auto vars:     Size  Location     Type
  6610 ;;		None
  6611 ;; Return value:  Size  Location     Type
  6612 ;;                  1    wreg      void 
  6613 ;; Registers used:
  6614 ;;		wreg, status,2, status,0, pclath, cstack
  6615 ;; Tracked objects:
  6616 ;;		On entry : 0/0
  6617 ;;		On exit  : 0/0
  6618 ;;		Unchanged: 0/0
  6619 ;; Data sizes:     COMMON   BANK0   BANK1   BANK3   BANK2
  6620 ;;      Params:         0       4       0       0       0
  6621 ;;      Locals:         0       0       0       0       0
  6622 ;;      Temps:          0       4       0       0       0
  6623 ;;      Totals:         0       8       0       0       0
  6624 ;;Total ram usage:        8 bytes
  6625 ;; Hardware stack levels used: 1
  6626 ;; Hardware stack levels required when called: 2
  6627 ;; This function calls:
  6628 ;;		___lldiv
  6629 ;; This function is called by:
  6630 ;;		_init_config
  6631 ;; This function uses a non-reentrant model
  6632 ;;
  6633                           
  6634                           
  6635                           ;psect for function _init_uart
  6636  1D3C                     _init_uart:
  6637  1D3C                     l4890:	
  6638                           ;incstack = 0
  6639                           ; Regs used in _init_uart: [wreg+status,2+status,0+pclath+cstack]
  6640                           
  6641                           
  6642                           ;uart.c: 3: void init_uart(unsigned long baud);uart.c: 4: {;uart.c: 6:     SPEN = 1;
  6643  1D3C  1283               	bcf	3,5	;RP0=0, select bank0
  6644  1D3D  1303               	bcf	3,6	;RP1=0, select bank0
  6645  1D3E  1798               	bsf	24,7	;volatile
  6646                           
  6647                           ;uart.c: 8:     CREN = 1;
  6648  1D3F  1618               	bsf	24,4	;volatile
  6649  1D40                     l4892:
  6650                           
  6651                           ;uart.c: 11:     SPBRG = (20000000/(baud * 16)) - 1;
  6652  1D40  0828               	movf	init_uart@baud,w
  6653  1D41  00AC               	movwf	??_init_uart
  6654  1D42  0829               	movf	init_uart@baud+1,w
  6655  1D43  00AD               	movwf	??_init_uart+1
  6656  1D44  082A               	movf	init_uart@baud+2,w
  6657  1D45  00AE               	movwf	??_init_uart+2
  6658  1D46  082B               	movf	init_uart@baud+3,w
  6659  1D47  00AF               	movwf	??_init_uart+3
  6660  1D48  3004               	movlw	4
  6661  1D49                     u5445:
  6662  1D49  1003               	clrc
  6663  1D4A  0DAC               	rlf	??_init_uart,f
  6664  1D4B  0DAD               	rlf	??_init_uart+1,f
  6665  1D4C  0DAE               	rlf	??_init_uart+2,f
  6666  1D4D  0DAF               	rlf	??_init_uart+3,f
  6667  1D4E                     u5440:
  6668  1D4E  3EFF               	addlw	-1
  6669  1D4F  1D03               	skipz
  6670  1D50  2D49               	goto	u5445
  6671  1D51  082F               	movf	??_init_uart+3,w
  6672  1D52  00A3               	movwf	___lldiv@divisor+3
  6673  1D53  082E               	movf	??_init_uart+2,w
  6674  1D54  00A2               	movwf	___lldiv@divisor+2
  6675  1D55  082D               	movf	??_init_uart+1,w
  6676  1D56  00A1               	movwf	___lldiv@divisor+1
  6677  1D57  082C               	movf	??_init_uart,w
  6678  1D58  00A0               	movwf	___lldiv@divisor
  6679  1D59  3001               	movlw	1
  6680  1D5A  00A7               	movwf	___lldiv@dividend+3
  6681  1D5B  3031               	movlw	49
  6682  1D5C  00A6               	movwf	___lldiv@dividend+2
  6683  1D5D  302D               	movlw	45
  6684  1D5E  00A5               	movwf	___lldiv@dividend+1
  6685  1D5F  3000               	movlw	0
  6686  1D60  00A4               	movwf	___lldiv@dividend
  6687  1D61  160A  118A  2281  160A  158A  	fcall	___lldiv
  6688  1D66  1283               	bcf	3,5	;RP0=0, select bank0
  6689  1D67  1303               	bcf	3,6	;RP1=0, select bank0
  6690  1D68  0820               	movf	?___lldiv,w
  6691  1D69  3EFF               	addlw	255
  6692  1D6A  1683               	bsf	3,5	;RP0=1, select bank1
  6693  1D6B  1303               	bcf	3,6	;RP1=0, select bank1
  6694  1D6C  0099               	movwf	25	;volatile
  6695  1D6D                     l606:
  6696  1D6D  0008               	return
  6697  1D6E                     __end_of_init_uart:
  6698                           
  6699                           	psect	text14
  6700  1281                     __ptext14:	
  6701 ;; *************** function ___lldiv *****************
  6702 ;; Defined at:
  6703 ;;		line 5 in file "/opt/microchip/xc8/v2.32/pic/sources/c90/common/__lldiv.c"
  6704 ;; Parameters:    Size  Location     Type
  6705 ;;  divisor         4    0[BANK0 ] unsigned long 
  6706 ;;  dividend        4    4[BANK0 ] unsigned long 
  6707 ;; Auto vars:     Size  Location     Type
  6708 ;;  quotient        4    4[COMMON] unsigned long 
  6709 ;;  counter         1    8[COMMON] unsigned char 
  6710 ;; Return value:  Size  Location     Type
  6711 ;;                  4    0[BANK0 ] unsigned long 
  6712 ;; Registers used:
  6713 ;;		wreg, status,2, status,0
  6714 ;; Tracked objects:
  6715 ;;		On entry : 0/0
  6716 ;;		On exit  : 0/0
  6717 ;;		Unchanged: 0/0
  6718 ;; Data sizes:     COMMON   BANK0   BANK1   BANK3   BANK2
  6719 ;;      Params:         0       8       0       0       0
  6720 ;;      Locals:         5       0       0       0       0
  6721 ;;      Temps:          1       0       0       0       0
  6722 ;;      Totals:         6       8       0       0       0
  6723 ;;Total ram usage:       14 bytes
  6724 ;; Hardware stack levels used: 1
  6725 ;; Hardware stack levels required when called: 1
  6726 ;; This function calls:
  6727 ;;		Nothing
  6728 ;; This function is called by:
  6729 ;;		_init_uart
  6730 ;; This function uses a non-reentrant model
  6731 ;;
  6732                           
  6733                           
  6734                           ;psect for function ___lldiv
  6735  1281                     ___lldiv:
  6736  1281                     l4564:	
  6737                           ;incstack = 0
  6738                           ; Regs used in ___lldiv: [wreg+status,2+status,0]
  6739                           
  6740  1281  3000               	movlw	0
  6741  1282  00F7               	movwf	___lldiv@quotient+3
  6742  1283  3000               	movlw	0
  6743  1284  00F6               	movwf	___lldiv@quotient+2
  6744  1285  3000               	movlw	0
  6745  1286  00F5               	movwf	___lldiv@quotient+1
  6746  1287  3000               	movlw	0
  6747  1288  00F4               	movwf	___lldiv@quotient
  6748  1289  1283               	bcf	3,5	;RP0=0, select bank0
  6749  128A  1303               	bcf	3,6	;RP1=0, select bank0
  6750  128B  0823               	movf	___lldiv@divisor+3,w
  6751  128C  0422               	iorwf	___lldiv@divisor+2,w
  6752  128D  0421               	iorwf	___lldiv@divisor+1,w
  6753  128E  0420               	iorwf	___lldiv@divisor,w
  6754  128F  1903               	skipnz
  6755  1290  2A92               	goto	u4941
  6756  1291  2A93               	goto	u4940
  6757  1292                     u4941:
  6758  1292  2AE0               	goto	l4584
  6759  1293                     u4940:
  6760  1293                     l4566:
  6761  1293  01F8               	clrf	___lldiv@counter
  6762  1294  0AF8               	incf	___lldiv@counter,f
  6763  1295  2AA3               	goto	l4570
  6764  1296                     l4568:
  6765  1296  3001               	movlw	1
  6766  1297  00F3               	movwf	??___lldiv
  6767  1298                     u4955:
  6768  1298  1003               	clrc
  6769  1299  0DA0               	rlf	___lldiv@divisor,f
  6770  129A  0DA1               	rlf	___lldiv@divisor+1,f
  6771  129B  0DA2               	rlf	___lldiv@divisor+2,f
  6772  129C  0DA3               	rlf	___lldiv@divisor+3,f
  6773  129D  0BF3               	decfsz	??___lldiv,f
  6774  129E  2A98               	goto	u4955
  6775  129F  3001               	movlw	1
  6776  12A0  00F3               	movwf	??___lldiv
  6777  12A1  0873               	movf	??___lldiv,w
  6778  12A2  07F8               	addwf	___lldiv@counter,f
  6779  12A3                     l4570:
  6780  12A3  1FA3               	btfss	___lldiv@divisor+3,7
  6781  12A4  2AA6               	goto	u4961
  6782  12A5  2AA7               	goto	u4960
  6783  12A6                     u4961:
  6784  12A6  2A96               	goto	l4568
  6785  12A7                     u4960:
  6786  12A7                     l4572:
  6787  12A7  3001               	movlw	1
  6788  12A8  00F3               	movwf	??___lldiv
  6789  12A9                     u4975:
  6790  12A9  1003               	clrc
  6791  12AA  0DF4               	rlf	___lldiv@quotient,f
  6792  12AB  0DF5               	rlf	___lldiv@quotient+1,f
  6793  12AC  0DF6               	rlf	___lldiv@quotient+2,f
  6794  12AD  0DF7               	rlf	___lldiv@quotient+3,f
  6795  12AE  0BF3               	decfsz	??___lldiv,f
  6796  12AF  2AA9               	goto	u4975
  6797  12B0                     l4574:
  6798  12B0  0823               	movf	___lldiv@divisor+3,w
  6799  12B1  0227               	subwf	___lldiv@dividend+3,w
  6800  12B2  1D03               	skipz
  6801  12B3  2ABE               	goto	u4985
  6802  12B4  0822               	movf	___lldiv@divisor+2,w
  6803  12B5  0226               	subwf	___lldiv@dividend+2,w
  6804  12B6  1D03               	skipz
  6805  12B7  2ABE               	goto	u4985
  6806  12B8  0821               	movf	___lldiv@divisor+1,w
  6807  12B9  0225               	subwf	___lldiv@dividend+1,w
  6808  12BA  1D03               	skipz
  6809  12BB  2ABE               	goto	u4985
  6810  12BC  0820               	movf	___lldiv@divisor,w
  6811  12BD  0224               	subwf	___lldiv@dividend,w
  6812  12BE                     u4985:
  6813  12BE  1C03               	skipc
  6814  12BF  2AC1               	goto	u4981
  6815  12C0  2AC2               	goto	u4980
  6816  12C1                     u4981:
  6817  12C1  2AD1               	goto	l4580
  6818  12C2                     u4980:
  6819  12C2                     l4576:
  6820  12C2  0820               	movf	___lldiv@divisor,w
  6821  12C3  02A4               	subwf	___lldiv@dividend,f
  6822  12C4  0821               	movf	___lldiv@divisor+1,w
  6823  12C5  1C03               	skipc
  6824  12C6  0F21               	incfsz	___lldiv@divisor+1,w
  6825  12C7  02A5               	subwf	___lldiv@dividend+1,f
  6826  12C8  0822               	movf	___lldiv@divisor+2,w
  6827  12C9  1C03               	skipc
  6828  12CA  0F22               	incfsz	___lldiv@divisor+2,w
  6829  12CB  02A6               	subwf	___lldiv@dividend+2,f
  6830  12CC  0823               	movf	___lldiv@divisor+3,w
  6831  12CD  1C03               	skipc
  6832  12CE  0F23               	incfsz	___lldiv@divisor+3,w
  6833  12CF  02A7               	subwf	___lldiv@dividend+3,f
  6834  12D0                     l4578:
  6835  12D0  1474               	bsf	___lldiv@quotient,0
  6836  12D1                     l4580:
  6837  12D1  3001               	movlw	1
  6838  12D2                     u4995:
  6839  12D2  1003               	clrc
  6840  12D3  0CA3               	rrf	___lldiv@divisor+3,f
  6841  12D4  0CA2               	rrf	___lldiv@divisor+2,f
  6842  12D5  0CA1               	rrf	___lldiv@divisor+1,f
  6843  12D6  0CA0               	rrf	___lldiv@divisor,f
  6844  12D7  3EFF               	addlw	-1
  6845  12D8  1D03               	skipz
  6846  12D9  2AD2               	goto	u4995
  6847  12DA                     l4582:
  6848  12DA  3001               	movlw	1
  6849  12DB  02F8               	subwf	___lldiv@counter,f
  6850  12DC  1D03               	btfss	3,2
  6851  12DD  2ADF               	goto	u5001
  6852  12DE  2AE0               	goto	u5000
  6853  12DF                     u5001:
  6854  12DF  2AA7               	goto	l4572
  6855  12E0                     u5000:
  6856  12E0                     l4584:
  6857  12E0  0877               	movf	___lldiv@quotient+3,w
  6858  12E1  00A3               	movwf	?___lldiv+3
  6859  12E2  0876               	movf	___lldiv@quotient+2,w
  6860  12E3  00A2               	movwf	?___lldiv+2
  6861  12E4  0875               	movf	___lldiv@quotient+1,w
  6862  12E5  00A1               	movwf	?___lldiv+1
  6863  12E6  0874               	movf	___lldiv@quotient,w
  6864  12E7  00A0               	movwf	?___lldiv
  6865  12E8                     l745:
  6866  12E8  0008               	return
  6867  12E9                     __end_of___lldiv:
  6868                           
  6869                           	psect	text15
  6870  1AFC                     __ptext15:	
  6871 ;; *************** function _init_timer2 *****************
  6872 ;; Defined at:
  6873 ;;		line 3 in file "timers.c"
  6874 ;; Parameters:    Size  Location     Type
  6875 ;;		None
  6876 ;; Auto vars:     Size  Location     Type
  6877 ;;		None
  6878 ;; Return value:  Size  Location     Type
  6879 ;;                  1    wreg      void 
  6880 ;; Registers used:
  6881 ;;		wreg
  6882 ;; Tracked objects:
  6883 ;;		On entry : 0/0
  6884 ;;		On exit  : 0/0
  6885 ;;		Unchanged: 0/0
  6886 ;; Data sizes:     COMMON   BANK0   BANK1   BANK3   BANK2
  6887 ;;      Params:         0       0       0       0       0
  6888 ;;      Locals:         0       0       0       0       0
  6889 ;;      Temps:          0       0       0       0       0
  6890 ;;      Totals:         0       0       0       0       0
  6891 ;;Total ram usage:        0 bytes
  6892 ;; Hardware stack levels used: 1
  6893 ;; Hardware stack levels required when called: 1
  6894 ;; This function calls:
  6895 ;;		Nothing
  6896 ;; This function is called by:
  6897 ;;		_init_config
  6898 ;; This function uses a non-reentrant model
  6899 ;;
  6900                           
  6901                           
  6902                           ;psect for function _init_timer2
  6903  1AFC                     _init_timer2:
  6904  1AFC                     l4882:	
  6905                           ;incstack = 0
  6906                           ; Regs used in _init_timer2: [wreg]
  6907                           
  6908                           
  6909                           ;timers.c: 6:     T2CKPS0 = 1;
  6910  1AFC  1283               	bcf	3,5	;RP0=0, select bank0
  6911  1AFD  1303               	bcf	3,6	;RP1=0, select bank0
  6912  1AFE  1412               	bsf	18,0	;volatile
  6913                           
  6914                           ;timers.c: 7:     T2CKPS1 = 1;
  6915  1AFF  1492               	bsf	18,1	;volatile
  6916  1B00                     l4884:
  6917                           
  6918                           ;timers.c: 10:     PR2 = 250;
  6919  1B00  30FA               	movlw	250
  6920  1B01  1683               	bsf	3,5	;RP0=1, select bank1
  6921  1B02  1303               	bcf	3,6	;RP1=0, select bank1
  6922  1B03  0092               	movwf	18	;volatile
  6923  1B04                     l4886:
  6924                           
  6925                           ;timers.c: 13:     TMR2IE = 1;
  6926  1B04  148C               	bsf	12,1	;volatile
  6927  1B05                     l4888:
  6928                           
  6929                           ;timers.c: 16:     TMR2ON = 0;
  6930  1B05  1283               	bcf	3,5	;RP0=0, select bank0
  6931  1B06  1303               	bcf	3,6	;RP1=0, select bank0
  6932  1B07  1112               	bcf	18,2	;volatile
  6933  1B08                     l589:
  6934  1B08  0008               	return
  6935  1B09                     __end_of_init_timer2:
  6936                           
  6937                           	psect	text16
  6938  1B41                     __ptext16:	
  6939 ;; *************** function _init_i2c *****************
  6940 ;; Defined at:
  6941 ;;		line 4 in file "i2c.c"
  6942 ;; Parameters:    Size  Location     Type
  6943 ;;		None
  6944 ;; Auto vars:     Size  Location     Type
  6945 ;;		None
  6946 ;; Return value:  Size  Location     Type
  6947 ;;                  1    wreg      void 
  6948 ;; Registers used:
  6949 ;;		wreg, status,2
  6950 ;; Tracked objects:
  6951 ;;		On entry : 0/0
  6952 ;;		On exit  : 0/0
  6953 ;;		Unchanged: 0/0
  6954 ;; Data sizes:     COMMON   BANK0   BANK1   BANK3   BANK2
  6955 ;;      Params:         0       0       0       0       0
  6956 ;;      Locals:         0       0       0       0       0
  6957 ;;      Temps:          0       0       0       0       0
  6958 ;;      Totals:         0       0       0       0       0
  6959 ;;Total ram usage:        0 bytes
  6960 ;; Hardware stack levels used: 1
  6961 ;; Hardware stack levels required when called: 1
  6962 ;; This function calls:
  6963 ;;		Nothing
  6964 ;; This function is called by:
  6965 ;;		_init_config
  6966 ;; This function uses a non-reentrant model
  6967 ;;
  6968                           
  6969                           
  6970                           ;psect for function _init_i2c
  6971  1B41                     _init_i2c:
  6972  1B41                     l4866:	
  6973                           ;incstack = 0
  6974                           ; Regs used in _init_i2c: [wreg+status,2]
  6975                           
  6976                           
  6977                           ;i2c.c: 7:  TRISC3 = 1;
  6978  1B41  1683               	bsf	3,5	;RP0=1, select bank1
  6979  1B42  1303               	bcf	3,6	;RP1=0, select bank1
  6980  1B43  1587               	bsf	7,3	;volatile
  6981                           
  6982                           ;i2c.c: 8:  TRISC4 = 1;
  6983  1B44  1607               	bsf	7,4	;volatile
  6984  1B45                     l4868:
  6985                           
  6986                           ;i2c.c: 10:  SSPCON = 0x38;
  6987  1B45  3038               	movlw	56
  6988  1B46  1283               	bcf	3,5	;RP0=0, select bank0
  6989  1B47  1303               	bcf	3,6	;RP1=0, select bank0
  6990  1B48  0094               	movwf	20	;volatile
  6991  1B49                     l4870:
  6992                           
  6993                           ;i2c.c: 11:  SSPCON2 = 0x00;
  6994  1B49  1683               	bsf	3,5	;RP0=1, select bank1
  6995  1B4A  1303               	bcf	3,6	;RP1=0, select bank1
  6996  1B4B  0191               	clrf	17	;volatile
  6997  1B4C                     l4872:
  6998                           
  6999                           ;i2c.c: 13:  SSPADD = 0x30;
  7000  1B4C  3030               	movlw	48
  7001  1B4D  0093               	movwf	19	;volatile
  7002  1B4E                     l4874:
  7003                           
  7004                           ;i2c.c: 15:  CKE = 1;
  7005  1B4E  1714               	bsf	20,6	;volatile
  7006  1B4F                     l4876:
  7007                           
  7008                           ;i2c.c: 17:  SMP = 1;
  7009  1B4F  1794               	bsf	20,7	;volatile
  7010  1B50                     l4878:
  7011                           
  7012                           ;i2c.c: 19:  SSPIF = 0;
  7013  1B50  1283               	bcf	3,5	;RP0=0, select bank0
  7014  1B51  1303               	bcf	3,6	;RP1=0, select bank0
  7015  1B52  118C               	bcf	12,3	;volatile
  7016  1B53                     l4880:
  7017                           
  7018                           ;i2c.c: 21:  BCLIF = 0;
  7019  1B53  118D               	bcf	13,3	;volatile
  7020  1B54                     l422:
  7021  1B54  0008               	return
  7022  1B55                     __end_of_init_i2c:
  7023                           
  7024                           	psect	text17
  7025  1B94                     __ptext17:	
  7026 ;; *************** function _init_ds1307 *****************
  7027 ;; Defined at:
  7028 ;;		line 11 in file "ds1307.c"
  7029 ;; Parameters:    Size  Location     Type
  7030 ;;		None
  7031 ;; Auto vars:     Size  Location     Type
  7032 ;;  dummy           1   10[BANK0 ] unsigned char 
  7033 ;; Return value:  Size  Location     Type
  7034 ;;                  1    wreg      void 
  7035 ;; Registers used:
  7036 ;;		wreg, status,2, status,0, pclath, cstack
  7037 ;; Tracked objects:
  7038 ;;		On entry : 0/0
  7039 ;;		On exit  : 0/0
  7040 ;;		Unchanged: 0/0
  7041 ;; Data sizes:     COMMON   BANK0   BANK1   BANK3   BANK2
  7042 ;;      Params:         0       0       0       0       0
  7043 ;;      Locals:         0       1       0       0       0
  7044 ;;      Temps:          0       1       0       0       0
  7045 ;;      Totals:         0       2       0       0       0
  7046 ;;Total ram usage:        2 bytes
  7047 ;; Hardware stack levels used: 1
  7048 ;; Hardware stack levels required when called: 4
  7049 ;; This function calls:
  7050 ;;		_read_ds1307
  7051 ;;		_write_ds1307
  7052 ;; This function is called by:
  7053 ;;		_init_config
  7054 ;; This function uses a non-reentrant model
  7055 ;;
  7056                           
  7057                           
  7058                           ;psect for function _init_ds1307
  7059  1B94                     _init_ds1307:
  7060  1B94                     l4686:	
  7061                           ;incstack = 0
  7062                           ; Regs used in _init_ds1307: [wreg+status,2+status,0+pclath+cstack]
  7063                           
  7064                           
  7065                           ;ds1307.c: 13:  unsigned char dummy;;ds1307.c: 15:  dummy = read_ds1307(0x00);
  7066  1B94  3000               	movlw	0
  7067  1B95  160A  158A  260B  160A  158A  	fcall	_read_ds1307
  7068  1B9A  1283               	bcf	3,5	;RP0=0, select bank0
  7069  1B9B  1303               	bcf	3,6	;RP1=0, select bank0
  7070  1B9C  00A9               	movwf	??_init_ds1307
  7071  1B9D  0829               	movf	??_init_ds1307,w
  7072  1B9E  00AA               	movwf	init_ds1307@dummy
  7073                           
  7074                           ;ds1307.c: 17:  write_ds1307(0x00, dummy & 0x7F);
  7075  1B9F  082A               	movf	init_ds1307@dummy,w
  7076  1BA0  397F               	andlw	127
  7077  1BA1  00A9               	movwf	??_init_ds1307
  7078  1BA2  0829               	movf	??_init_ds1307,w
  7079  1BA3  00A0               	movwf	write_ds1307@data
  7080  1BA4  3000               	movlw	0
  7081  1BA5  160A  158A  2423  160A  158A  	fcall	_write_ds1307
  7082  1BAA                     l134:
  7083  1BAA  0008               	return
  7084  1BAB                     __end_of_init_ds1307:
  7085                           
  7086                           	psect	text18
  7087  1C23                     __ptext18:	
  7088 ;; *************** function _write_ds1307 *****************
  7089 ;; Defined at:
  7090 ;;		line 21 in file "ds1307.c"
  7091 ;; Parameters:    Size  Location     Type
  7092 ;;  address         1    wreg     unsigned char 
  7093 ;;  data            1    0[BANK0 ] unsigned char 
  7094 ;; Auto vars:     Size  Location     Type
  7095 ;;  address         1    1[BANK0 ] unsigned char 
  7096 ;; Return value:  Size  Location     Type
  7097 ;;                  1    wreg      void 
  7098 ;; Registers used:
  7099 ;;		wreg, status,2, status,0, pclath, cstack
  7100 ;; Tracked objects:
  7101 ;;		On entry : 0/0
  7102 ;;		On exit  : 0/0
  7103 ;;		Unchanged: 0/0
  7104 ;; Data sizes:     COMMON   BANK0   BANK1   BANK3   BANK2
  7105 ;;      Params:         0       1       0       0       0
  7106 ;;      Locals:         0       1       0       0       0
  7107 ;;      Temps:          0       0       0       0       0
  7108 ;;      Totals:         0       2       0       0       0
  7109 ;;Total ram usage:        2 bytes
  7110 ;; Hardware stack levels used: 1
  7111 ;; Hardware stack levels required when called: 3
  7112 ;; This function calls:
  7113 ;;		_i2c_start
  7114 ;;		_i2c_stop
  7115 ;;		_i2c_write
  7116 ;; This function is called by:
  7117 ;;		_init_ds1307
  7118 ;;		_set_time
  7119 ;; This function uses a non-reentrant model
  7120 ;;
  7121                           
  7122                           
  7123                           ;psect for function _write_ds1307
  7124  1C23                     _write_ds1307:
  7125                           
  7126                           ;incstack = 0
  7127                           ; Regs used in _write_ds1307: [wreg+status,2+status,0+pclath+cstack]
  7128                           ;write_ds1307@address stored from wreg
  7129  1C23  1283               	bcf	3,5	;RP0=0, select bank0
  7130  1C24  1303               	bcf	3,6	;RP1=0, select bank0
  7131  1C25  00A1               	movwf	write_ds1307@address
  7132  1C26                     l4528:
  7133                           
  7134                           ;ds1307.c: 21: void write_ds1307(unsigned char address, unsigned char data);ds1307.c: 22
      +                          : {;ds1307.c: 23:  i2c_start();
  7135  1C26  160A  158A  22B4  160A  158A  	fcall	_i2c_start
  7136                           
  7137                           ;ds1307.c: 24:  i2c_write(0xD0);
  7138  1C2B  30D0               	movlw	208
  7139  1C2C  160A  158A  22CF  160A  158A  	fcall	_i2c_write
  7140                           
  7141                           ;ds1307.c: 25:  i2c_write(address);
  7142  1C31  1283               	bcf	3,5	;RP0=0, select bank0
  7143  1C32  1303               	bcf	3,6	;RP1=0, select bank0
  7144  1C33  0821               	movf	write_ds1307@address,w
  7145  1C34  160A  158A  22CF  160A  158A  	fcall	_i2c_write
  7146                           
  7147                           ;ds1307.c: 26:  i2c_write(data);
  7148  1C39  1283               	bcf	3,5	;RP0=0, select bank0
  7149  1C3A  1303               	bcf	3,6	;RP1=0, select bank0
  7150  1C3B  0820               	movf	write_ds1307@data,w
  7151  1C3C  160A  158A  22CF  160A  158A  	fcall	_i2c_write
  7152                           
  7153                           ;ds1307.c: 27:  i2c_stop();
  7154  1C41  160A  158A  22BD  160A  158A  	fcall	_i2c_stop
  7155  1C46                     l137:
  7156  1C46  0008               	return
  7157  1C47                     __end_of_write_ds1307:
  7158                           
  7159                           	psect	text19
  7160  1AA6                     __ptext19:	
  7161 ;; *************** function _init_digital_keypad *****************
  7162 ;; Defined at:
  7163 ;;		line 5 in file "digital_keypad.c"
  7164 ;; Parameters:    Size  Location     Type
  7165 ;;		None
  7166 ;; Auto vars:     Size  Location     Type
  7167 ;;		None
  7168 ;; Return value:  Size  Location     Type
  7169 ;;                  1    wreg      void 
  7170 ;; Registers used:
  7171 ;;		wreg, status,2
  7172 ;; Tracked objects:
  7173 ;;		On entry : 0/0
  7174 ;;		On exit  : 0/0
  7175 ;;		Unchanged: 0/0
  7176 ;; Data sizes:     COMMON   BANK0   BANK1   BANK3   BANK2
  7177 ;;      Params:         0       0       0       0       0
  7178 ;;      Locals:         0       0       0       0       0
  7179 ;;      Temps:          0       0       0       0       0
  7180 ;;      Totals:         0       0       0       0       0
  7181 ;;Total ram usage:        0 bytes
  7182 ;; Hardware stack levels used: 1
  7183 ;; Hardware stack levels required when called: 1
  7184 ;; This function calls:
  7185 ;;		Nothing
  7186 ;; This function is called by:
  7187 ;;		_init_config
  7188 ;; This function uses a non-reentrant model
  7189 ;;
  7190                           
  7191                           
  7192                           ;psect for function _init_digital_keypad
  7193  1AA6                     _init_digital_keypad:
  7194  1AA6                     l4684:	
  7195                           ;incstack = 0
  7196                           ; Regs used in _init_digital_keypad: [wreg+status,2]
  7197                           
  7198                           
  7199                           ;digital_keypad.c: 8:     TRISB = TRISB | 0x3F;
  7200  1AA6  1683               	bsf	3,5	;RP0=1, select bank1
  7201  1AA7  1303               	bcf	3,6	;RP1=0, select bank1
  7202  1AA8  0806               	movf	6,w	;volatile
  7203  1AA9  383F               	iorlw	63
  7204  1AAA  0086               	movwf	6	;volatile
  7205  1AAB                     l98:
  7206  1AAB  0008               	return
  7207  1AAC                     __end_of_init_digital_keypad:
  7208                           
  7209                           	psect	text20
  7210  1AE5                     __ptext20:	
  7211 ;; *************** function _init_clcd *****************
  7212 ;; Defined at:
  7213 ;;		line 36 in file "clcd.c"
  7214 ;; Parameters:    Size  Location     Type
  7215 ;;		None
  7216 ;; Auto vars:     Size  Location     Type
  7217 ;;		None
  7218 ;; Return value:  Size  Location     Type
  7219 ;;                  1    wreg      void 
  7220 ;; Registers used:
  7221 ;;		wreg, status,2, status,0, pclath, cstack
  7222 ;; Tracked objects:
  7223 ;;		On entry : 0/0
  7224 ;;		On exit  : 0/0
  7225 ;;		Unchanged: 0/0
  7226 ;; Data sizes:     COMMON   BANK0   BANK1   BANK3   BANK2
  7227 ;;      Params:         0       0       0       0       0
  7228 ;;      Locals:         0       0       0       0       0
  7229 ;;      Temps:          0       0       0       0       0
  7230 ;;      Totals:         0       0       0       0       0
  7231 ;;Total ram usage:        0 bytes
  7232 ;; Hardware stack levels used: 1
  7233 ;; Hardware stack levels required when called: 3
  7234 ;; This function calls:
  7235 ;;		_init_display_controller
  7236 ;; This function is called by:
  7237 ;;		_init_config
  7238 ;; This function uses a non-reentrant model
  7239 ;;
  7240                           
  7241                           
  7242                           ;psect for function _init_clcd
  7243  1AE5                     _init_clcd:
  7244  1AE5                     l4676:	
  7245                           ;incstack = 0
  7246                           ; Regs used in _init_clcd: [wreg+status,2+status,0+pclath+cstack]
  7247                           
  7248                           
  7249                           ;clcd.c: 39:     TRISD = 0x00;
  7250  1AE5  1683               	bsf	3,5	;RP0=1, select bank1
  7251  1AE6  1303               	bcf	3,6	;RP1=0, select bank1
  7252  1AE7  0188               	clrf	8	;volatile
  7253  1AE8                     l4678:
  7254                           
  7255                           ;clcd.c: 41:     TRISE2 = 0;
  7256  1AE8  1109               	bcf	9,2	;volatile
  7257  1AE9                     l4680:
  7258                           
  7259                           ;clcd.c: 42:     TRISE1 = 0;
  7260  1AE9  1089               	bcf	9,1	;volatile
  7261  1AEA                     l4682:
  7262                           
  7263                           ;clcd.c: 44:     init_display_controller();
  7264  1AEA  160A  118A  2352  160A  158A  	fcall	_init_display_controller
  7265  1AEF                     l72:
  7266  1AEF  0008               	return
  7267  1AF0                     __end_of_init_clcd:
  7268                           
  7269                           	psect	text21
  7270  1352                     __ptext21:	
  7271 ;; *************** function _init_display_controller *****************
  7272 ;; Defined at:
  7273 ;;		line 16 in file "clcd.c"
  7274 ;; Parameters:    Size  Location     Type
  7275 ;;		None
  7276 ;; Auto vars:     Size  Location     Type
  7277 ;;		None
  7278 ;; Return value:  Size  Location     Type
  7279 ;;                  1    wreg      void 
  7280 ;; Registers used:
  7281 ;;		wreg, status,2, status,0, pclath, cstack
  7282 ;; Tracked objects:
  7283 ;;		On entry : 0/0
  7284 ;;		On exit  : 0/0
  7285 ;;		Unchanged: 0/0
  7286 ;; Data sizes:     COMMON   BANK0   BANK1   BANK3   BANK2
  7287 ;;      Params:         0       0       0       0       0
  7288 ;;      Locals:         0       0       0       0       0
  7289 ;;      Temps:          0       3       0       0       0
  7290 ;;      Totals:         0       3       0       0       0
  7291 ;;Total ram usage:        3 bytes
  7292 ;; Hardware stack levels used: 1
  7293 ;; Hardware stack levels required when called: 2
  7294 ;; This function calls:
  7295 ;;		_clcd_write
  7296 ;; This function is called by:
  7297 ;;		_init_clcd
  7298 ;; This function uses a non-reentrant model
  7299 ;;
  7300                           
  7301                           
  7302                           ;psect for function _init_display_controller
  7303  1352                     _init_display_controller:
  7304  1352                     l4494:	
  7305                           ;incstack = 0
  7306                           ; Regs used in _init_display_controller: [wreg+status,2+status,0+pclath+cstack]
  7307                           
  7308                           
  7309                           ;clcd.c: 19:     _delay((unsigned long)((500)*(20000000/4000.0)));
  7310  1352  300D               	movlw	13
  7311  1353  1283               	bcf	3,5	;RP0=0, select bank0
  7312  1354  1303               	bcf	3,6	;RP1=0, select bank0
  7313  1355  00A2               	movwf	??_init_display_controller+2
  7314  1356  30AF               	movlw	175
  7315  1357  00A1               	movwf	??_init_display_controller+1
  7316  1358  30B5               	movlw	181
  7317  1359  00A0               	movwf	??_init_display_controller
  7318  135A                     u7877:
  7319  135A  0BA0               	decfsz	??_init_display_controller,f
  7320  135B  2B5A               	goto	u7877
  7321  135C  0BA1               	decfsz	??_init_display_controller+1,f
  7322  135D  2B5A               	goto	u7877
  7323  135E  0BA2               	decfsz	??_init_display_controller+2,f
  7324  135F  2B5A               	goto	u7877
  7325  1360  2B61               	nop2
  7326  1361                     l4496:
  7327                           
  7328                           ;clcd.c: 21:     clcd_write(0x33, 0);
  7329  1361  01F3               	clrf	clcd_write@mode
  7330  1362  3033               	movlw	51
  7331  1363  160A  158A  23E0  160A  118A  	fcall	_clcd_write
  7332  1368                     l4498:
  7333                           
  7334                           ;clcd.c: 22:     _delay((unsigned long)((4100)*(20000000/4000000.0)));
  7335  1368  301B               	movlw	27
  7336  1369  1283               	bcf	3,5	;RP0=0, select bank0
  7337  136A  1303               	bcf	3,6	;RP1=0, select bank0
  7338  136B  00A1               	movwf	??_init_display_controller+1
  7339  136C  309D               	movlw	157
  7340  136D  00A0               	movwf	??_init_display_controller
  7341  136E                     u7887:
  7342  136E  0BA0               	decfsz	??_init_display_controller,f
  7343  136F  2B6E               	goto	u7887
  7344  1370  0BA1               	decfsz	??_init_display_controller+1,f
  7345  1371  2B6E               	goto	u7887
  7346  1372  2B73               	nop2
  7347                           
  7348                           ;clcd.c: 23:     clcd_write(0x33, 0);
  7349  1373  01F3               	clrf	clcd_write@mode
  7350  1374  3033               	movlw	51
  7351  1375  160A  158A  23E0  160A  118A  	fcall	_clcd_write
  7352  137A                     l4500:
  7353                           
  7354                           ;clcd.c: 24:     _delay((unsigned long)((100)*(20000000/4000000.0)));
  7355  137A  30A5               	movlw	165
  7356  137B  1283               	bcf	3,5	;RP0=0, select bank0
  7357  137C  1303               	bcf	3,6	;RP1=0, select bank0
  7358  137D  00A0               	movwf	??_init_display_controller
  7359  137E                     u7897:
  7360  137E  0BA0               	decfsz	??_init_display_controller,f
  7361  137F  2B7E               	goto	u7897
  7362  1380  2B81               	nop2
  7363  1381                     l4502:
  7364                           
  7365                           ;clcd.c: 25:     clcd_write(0x33, 0);
  7366  1381  01F3               	clrf	clcd_write@mode
  7367  1382  3033               	movlw	51
  7368  1383  160A  158A  23E0  160A  118A  	fcall	_clcd_write
  7369                           
  7370                           ;clcd.c: 26:     _delay((unsigned long)((100)*(20000000/4000000.0)));
  7371  1388  30A5               	movlw	165
  7372  1389  1283               	bcf	3,5	;RP0=0, select bank0
  7373  138A  1303               	bcf	3,6	;RP1=0, select bank0
  7374  138B  00A0               	movwf	??_init_display_controller
  7375  138C                     u7907:
  7376  138C  0BA0               	decfsz	??_init_display_controller,f
  7377  138D  2B8C               	goto	u7907
  7378  138E  2B8F               	nop2
  7379  138F                     l4504:
  7380                           
  7381                           ;clcd.c: 28:     clcd_write(0x38, 0);
  7382  138F  01F3               	clrf	clcd_write@mode
  7383  1390  3038               	movlw	56
  7384  1391  160A  158A  23E0  160A  118A  	fcall	_clcd_write
  7385  1396                     l4506:
  7386                           
  7387                           ;clcd.c: 29:     _delay((unsigned long)((100)*(20000000/4000000.0)));
  7388  1396  30A5               	movlw	165
  7389  1397  1283               	bcf	3,5	;RP0=0, select bank0
  7390  1398  1303               	bcf	3,6	;RP1=0, select bank0
  7391  1399  00A0               	movwf	??_init_display_controller
  7392  139A                     u7917:
  7393  139A  0BA0               	decfsz	??_init_display_controller,f
  7394  139B  2B9A               	goto	u7917
  7395  139C  2B9D               	nop2
  7396                           
  7397                           ;clcd.c: 30:     clcd_write(0x01, 0);
  7398  139D  01F3               	clrf	clcd_write@mode
  7399  139E  3001               	movlw	1
  7400  139F  160A  158A  23E0  160A  118A  	fcall	_clcd_write
  7401  13A4                     l4508:
  7402                           
  7403                           ;clcd.c: 31:     _delay((unsigned long)((500)*(20000000/4000000.0)));
  7404  13A4  3004               	movlw	4
  7405  13A5  1283               	bcf	3,5	;RP0=0, select bank0
  7406  13A6  1303               	bcf	3,6	;RP1=0, select bank0
  7407  13A7  00A1               	movwf	??_init_display_controller+1
  7408  13A8  303D               	movlw	61
  7409  13A9  00A0               	movwf	??_init_display_controller
  7410  13AA                     u7927:
  7411  13AA  0BA0               	decfsz	??_init_display_controller,f
  7412  13AB  2BAA               	goto	u7927
  7413  13AC  0BA1               	decfsz	??_init_display_controller+1,f
  7414  13AD  2BAA               	goto	u7927
  7415  13AE                     l4510:
  7416                           
  7417                           ;clcd.c: 32:     clcd_write(0x0C, 0);
  7418  13AE  01F3               	clrf	clcd_write@mode
  7419  13AF  300C               	movlw	12
  7420  13B0  160A  158A  23E0  160A  118A  	fcall	_clcd_write
  7421                           
  7422                           ;clcd.c: 33:     _delay((unsigned long)((100)*(20000000/4000000.0)));
  7423  13B5  30A5               	movlw	165
  7424  13B6  1283               	bcf	3,5	;RP0=0, select bank0
  7425  13B7  1303               	bcf	3,6	;RP1=0, select bank0
  7426  13B8  00A0               	movwf	??_init_display_controller
  7427  13B9                     u7937:
  7428  13B9  0BA0               	decfsz	??_init_display_controller,f
  7429  13BA  2BB9               	goto	u7937
  7430  13BB  2BBC               	nop2
  7431  13BC                     l69:
  7432  13BC  0008               	return
  7433  13BD                     __end_of_init_display_controller:
  7434                           
  7435                           	psect	text22
  7436  1B6A                     __ptext22:	
  7437 ;; *************** function _init_adc *****************
  7438 ;; Defined at:
  7439 ;;		line 3 in file "adc.c"
  7440 ;; Parameters:    Size  Location     Type
  7441 ;;		None
  7442 ;; Auto vars:     Size  Location     Type
  7443 ;;		None
  7444 ;; Return value:  Size  Location     Type
  7445 ;;                  1    wreg      void 
  7446 ;; Registers used:
  7447 ;;		status,2
  7448 ;; Tracked objects:
  7449 ;;		On entry : 0/0
  7450 ;;		On exit  : 0/0
  7451 ;;		Unchanged: 0/0
  7452 ;; Data sizes:     COMMON   BANK0   BANK1   BANK3   BANK2
  7453 ;;      Params:         0       0       0       0       0
  7454 ;;      Locals:         0       0       0       0       0
  7455 ;;      Temps:          0       0       0       0       0
  7456 ;;      Totals:         0       0       0       0       0
  7457 ;;Total ram usage:        0 bytes
  7458 ;; Hardware stack levels used: 1
  7459 ;; Hardware stack levels required when called: 1
  7460 ;; This function calls:
  7461 ;;		Nothing
  7462 ;; This function is called by:
  7463 ;;		_init_config
  7464 ;; This function uses a non-reentrant model
  7465 ;;
  7466                           
  7467                           
  7468                           ;psect for function _init_adc
  7469  1B6A                     _init_adc:
  7470  1B6A                     l4670:	
  7471                           ;incstack = 0
  7472                           ; Regs used in _init_adc: [status,2]
  7473                           
  7474                           
  7475                           ;adc.c: 7:  ADFM = 1;
  7476  1B6A  1683               	bsf	3,5	;RP0=1, select bank1
  7477  1B6B  1303               	bcf	3,6	;RP1=0, select bank1
  7478  1B6C  179F               	bsf	31,7	;volatile
  7479                           
  7480                           ;adc.c: 13:  ADCS0 = 0;
  7481  1B6D  1283               	bcf	3,5	;RP0=0, select bank0
  7482  1B6E  1303               	bcf	3,6	;RP1=0, select bank0
  7483  1B6F  131F               	bcf	31,6	;volatile
  7484                           
  7485                           ;adc.c: 14:  ADCS1 = 1;
  7486  1B70  179F               	bsf	31,7	;volatile
  7487                           
  7488                           ;adc.c: 15:  ADCS2 = 0;
  7489  1B71  1683               	bsf	3,5	;RP0=1, select bank1
  7490  1B72  1303               	bcf	3,6	;RP1=0, select bank1
  7491  1B73  131F               	bcf	31,6	;volatile
  7492                           
  7493                           ;adc.c: 18:  GO = 0;
  7494  1B74  1283               	bcf	3,5	;RP0=0, select bank0
  7495  1B75  1303               	bcf	3,6	;RP1=0, select bank0
  7496  1B76  111F               	bcf	31,2	;volatile
  7497  1B77                     l4672:
  7498                           
  7499                           ;adc.c: 22:  ADRESH = 0;
  7500  1B77  019E               	clrf	30	;volatile
  7501                           
  7502                           ;adc.c: 23:  ADRESL = 0;
  7503  1B78  1683               	bsf	3,5	;RP0=1, select bank1
  7504  1B79  1303               	bcf	3,6	;RP1=0, select bank1
  7505  1B7A  019E               	clrf	30	;volatile
  7506  1B7B                     l4674:
  7507                           
  7508                           ;adc.c: 26:  ADON = 1;
  7509  1B7B  1283               	bcf	3,5	;RP0=0, select bank0
  7510  1B7C  1303               	bcf	3,6	;RP1=0, select bank0
  7511  1B7D  141F               	bsf	31,0	;volatile
  7512  1B7E                     l19:
  7513  1B7E  0008               	return
  7514  1B7F                     __end_of_init_adc:
  7515                           
  7516                           	psect	text23
  7517  1711                     __ptext23:	
  7518 ;; *************** function _download_log *****************
  7519 ;; Defined at:
  7520 ;;		line 331 in file "helper.c"
  7521 ;; Parameters:    Size  Location     Type
  7522 ;;  reset_downlo    1    wreg     unsigned char 
  7523 ;; Auto vars:     Size  Location     Type
  7524 ;;  reset_downlo    1   21[BANK0 ] unsigned char 
  7525 ;;  read_data      10   11[BANK0 ] unsigned char [10]
  7526 ;;  i               2   24[BANK0 ] int 
  7527 ;;  addr            2   22[BANK0 ] int 
  7528 ;; Return value:  Size  Location     Type
  7529 ;;                  1    wreg      unsigned char 
  7530 ;; Registers used:
  7531 ;;		wreg, fsr0l, fsr0h, status,2, status,0, btemp+1, pclath, cstack
  7532 ;; Tracked objects:
  7533 ;;		On entry : 0/0
  7534 ;;		On exit  : 0/0
  7535 ;;		Unchanged: 0/0
  7536 ;; Data sizes:     COMMON   BANK0   BANK1   BANK3   BANK2
  7537 ;;      Params:         0       0       0       0       0
  7538 ;;      Locals:         0      15       0       0       0
  7539 ;;      Temps:          0       2       0       0       0
  7540 ;;      Totals:         0      17       0       0       0
  7541 ;;Total ram usage:       17 bytes
  7542 ;; Hardware stack levels used: 1
  7543 ;; Hardware stack levels required when called: 4
  7544 ;; This function calls:
  7545 ;;		___wmul
  7546 ;;		_clcd_print
  7547 ;;		_clcd_write
  7548 ;;		_eeprom_at24c04_random_read
  7549 ;;		_putchar
  7550 ;;		_puts
  7551 ;; This function is called by:
  7552 ;;		_main
  7553 ;; This function uses a non-reentrant model
  7554 ;;
  7555                           
  7556                           
  7557                           ;psect for function _download_log
  7558  1711                     _download_log:
  7559                           
  7560                           ;incstack = 0
  7561                           ; Regs used in _download_log: [wreg-fsr0h+status,2+status,0+btemp+1+pclath+cstack]
  7562                           ;download_log@reset_download stored from wreg
  7563  1711  1283               	bcf	3,5	;RP0=0, select bank0
  7564  1712  1303               	bcf	3,6	;RP1=0, select bank0
  7565  1713  00B5               	movwf	download_log@reset_download
  7566  1714                     l5256:
  7567                           
  7568                           ;helper.c: 331: unsigned char download_log(unsigned char reset_download);helper.c: 332: 
      +                          {;helper.c: 333:     static unsigned int read_pos;;helper.c: 334:     unsigned char read
      +                          _data[10];;helper.c: 335:     int addr, i;;helper.c: 336:  if (reset_download == 0x03)
  7569  1714  3003               	movlw	3
  7570  1715  0635               	xorwf	download_log@reset_download,w
  7571  1716  1D03               	btfss	3,2
  7572  1717  2F19               	goto	u6061
  7573  1718  2F1A               	goto	u6060
  7574  1719                     u6061:
  7575  1719  2F27               	goto	l5262
  7576  171A                     u6060:
  7577  171A                     l5258:
  7578                           
  7579                           ;helper.c: 337:     {;helper.c: 338:         read_pos = 0;
  7580  171A  1683               	bsf	3,5	;RP0=1, select bank1
  7581  171B  1303               	bcf	3,6	;RP1=0, select bank1
  7582  171C  01A8               	clrf	download_log@read_pos^(0+128)
  7583  171D  01A9               	clrf	(download_log@read_pos+1)^(0+128)
  7584  171E                     l5260:
  7585                           
  7586                           ;helper.c: 340:         puts("\r\n# TIME   EVNT SP\n\r");
  7587  171E  3000               	movlw	low (STR_15| (0+32768))
  7588  171F  00F4               	movwf	puts@s
  7589  1720  3090               	movlw	high (STR_15| (0+32768))
  7590  1721  00F5               	movwf	puts@s+1
  7591  1722  160A  158A  246C  160A  118A  	fcall	_puts
  7592  1727                     l5262:
  7593                           
  7594                           ;helper.c: 342:     if (read_pos > access)
  7595  1727  1683               	bsf	3,5	;RP0=1, select bank1
  7596  1728  1303               	bcf	3,6	;RP1=0, select bank1
  7597  1729  0829               	movf	(download_log@read_pos+1)^(0+128),w
  7598  172A  026B               	subwf	(_access+1)^(0+128),w
  7599  172B  1D03               	skipz
  7600  172C  2F2F               	goto	u6075
  7601  172D  0828               	movf	download_log@read_pos^(0+128),w
  7602  172E  026A               	subwf	_access^(0+128),w
  7603  172F                     u6075:
  7604  172F  1803               	skipnc
  7605  1730  2F32               	goto	u6071
  7606  1731  2F33               	goto	u6070
  7607  1732                     u6071:
  7608  1732  2F58               	goto	l5276
  7609  1733                     u6070:
  7610  1733                     l5264:
  7611                           
  7612                           ;helper.c: 343:     {;helper.c: 344:         clcd_write(0x01, 0);
  7613  1733  01F3               	clrf	clcd_write@mode
  7614  1734  3001               	movlw	1
  7615  1735  160A  158A  23E0  160A  118A  	fcall	_clcd_write
  7616  173A                     l5266:
  7617                           
  7618                           ;helper.c: 345:         sec = 3;
  7619  173A  3003               	movlw	3
  7620  173B  1283               	bcf	3,5	;RP0=0, select bank0
  7621  173C  1303               	bcf	3,6	;RP1=0, select bank0
  7622  173D  00DE               	movwf	_sec
  7623  173E  3000               	movlw	0
  7624  173F  00DF               	movwf	_sec+1
  7625                           
  7626                           ;helper.c: 346:         while(sec)
  7627  1740  2F4E               	goto	l5270
  7628  1741                     l5268:
  7629                           
  7630                           ;helper.c: 347:         {;helper.c: 348:            clcd_print("Downloaded Logs", (0x80 
      +                          + (0)));
  7631  1741  308D               	movlw	low (STR_16| (0+32768))
  7632  1742  00A0               	movwf	clcd_print@data
  7633  1743  3090               	movlw	high (STR_16| (0+32768))
  7634  1744  00A1               	movwf	clcd_print@data+1
  7635  1745  3080               	movlw	128
  7636  1746  00A9               	movwf	??_download_log
  7637  1747  0829               	movf	??_download_log,w
  7638  1748  00A2               	movwf	clcd_print@addr
  7639  1749  160A  158A  256E  160A  118A  	fcall	_clcd_print
  7640  174E                     l5270:
  7641                           
  7642                           ;helper.c: 346:         while(sec)
  7643  174E  1283               	bcf	3,5	;RP0=0, select bank0
  7644  174F  1303               	bcf	3,6	;RP1=0, select bank0
  7645  1750  085E               	movf	_sec,w
  7646  1751  045F               	iorwf	_sec+1,w
  7647  1752  1D03               	btfss	3,2
  7648  1753  2F55               	goto	u6081
  7649  1754  2F56               	goto	u6080
  7650  1755                     u6081:
  7651  1755  2F41               	goto	l5268
  7652  1756                     u6080:
  7653  1756                     l5272:
  7654                           
  7655                           ;helper.c: 350:         return 0x11;
  7656  1756  3011               	movlw	17
  7657  1757  2FFF               	goto	l289
  7658  1758                     l5276:
  7659                           
  7660                           ;helper.c: 352:     for (i = 0; i < 10; i++)
  7661  1758  1283               	bcf	3,5	;RP0=0, select bank0
  7662  1759  1303               	bcf	3,6	;RP1=0, select bank0
  7663  175A  01B8               	clrf	download_log@i
  7664  175B  01B9               	clrf	download_log@i+1
  7665  175C                     l5282:
  7666                           
  7667                           ;helper.c: 353:     {;helper.c: 354:         addr = (read_pos * 10) + 5 + i;
  7668  175C  1683               	bsf	3,5	;RP0=1, select bank1
  7669  175D  1303               	bcf	3,6	;RP1=0, select bank1
  7670  175E  0829               	movf	(download_log@read_pos+1)^(0+128),w
  7671  175F  00F4               	movwf	___wmul@multiplier+1
  7672  1760  0828               	movf	download_log@read_pos^(0+128),w
  7673  1761  00F3               	movwf	___wmul@multiplier
  7674  1762  300A               	movlw	10
  7675  1763  00F5               	movwf	___wmul@multiplicand
  7676  1764  3000               	movlw	0
  7677  1765  00F6               	movwf	___wmul@multiplicand+1
  7678  1766  160A  158A  2447  160A  118A  	fcall	___wmul
  7679  176B  1283               	bcf	3,5	;RP0=0, select bank0
  7680  176C  1303               	bcf	3,6	;RP1=0, select bank0
  7681  176D  0838               	movf	download_log@i,w
  7682  176E  0773               	addwf	?___wmul,w
  7683  176F  00A9               	movwf	??_download_log
  7684  1770  0839               	movf	download_log@i+1,w
  7685  1771  1803               	skipnc
  7686  1772  0A39               	incf	download_log@i+1,w
  7687  1773  0774               	addwf	?___wmul+1,w
  7688  1774  00AA               	movwf	??_download_log+1
  7689  1775  0829               	movf	??_download_log,w
  7690  1776  3E05               	addlw	5
  7691  1777  00B6               	movwf	download_log@addr
  7692  1778  082A               	movf	??_download_log+1,w
  7693  1779  1803               	skipnc
  7694  177A  3E01               	addlw	1
  7695  177B  3E00               	addlw	0
  7696  177C  00B7               	movwf	download_log@addr+1
  7697  177D                     l5284:
  7698                           
  7699                           ;helper.c: 355:         if (i == 0)
  7700  177D  0838               	movf	download_log@i,w
  7701  177E  0439               	iorwf	download_log@i+1,w
  7702  177F  1D03               	btfss	3,2
  7703  1780  2F82               	goto	u6091
  7704  1781  2F83               	goto	u6090
  7705  1782                     u6091:
  7706  1782  2F92               	goto	l5288
  7707  1783                     u6090:
  7708  1783                     l5286:
  7709                           
  7710                           ;helper.c: 356:         {;helper.c: 357:             putchar(read_pos + '0');
  7711  1783  1683               	bsf	3,5	;RP0=1, select bank1
  7712  1784  1303               	bcf	3,6	;RP1=0, select bank1
  7713  1785  0828               	movf	download_log@read_pos^(0+128),w
  7714  1786  3E30               	addlw	48
  7715  1787  160A  158A  22DA  160A  118A  	fcall	_putchar
  7716                           
  7717                           ;helper.c: 358:             putchar(' ');
  7718  178C  3020               	movlw	32
  7719  178D  160A  158A  22DA  160A  118A  	fcall	_putchar
  7720  1792                     l5288:
  7721                           
  7722                           ;helper.c: 360:         if (i == 2 || i == 4)
  7723  1792  3002               	movlw	2
  7724  1793  1283               	bcf	3,5	;RP0=0, select bank0
  7725  1794  1303               	bcf	3,6	;RP1=0, select bank0
  7726  1795  0638               	xorwf	download_log@i,w
  7727  1796  0439               	iorwf	download_log@i+1,w
  7728  1797  1903               	btfsc	3,2
  7729  1798  2F9A               	goto	u6101
  7730  1799  2F9B               	goto	u6100
  7731  179A                     u6101:
  7732  179A  2FA2               	goto	l5292
  7733  179B                     u6100:
  7734  179B                     l5290:
  7735  179B  3004               	movlw	4
  7736  179C  0638               	xorwf	download_log@i,w
  7737  179D  0439               	iorwf	download_log@i+1,w
  7738  179E  1D03               	btfss	3,2
  7739  179F  2FA1               	goto	u6111
  7740  17A0  2FA2               	goto	u6110
  7741  17A1                     u6111:
  7742  17A1  2FA8               	goto	l5294
  7743  17A2                     u6110:
  7744  17A2                     l5292:
  7745                           
  7746                           ;helper.c: 361:             putchar(':');
  7747  17A2  303A               	movlw	58
  7748  17A3  160A  158A  22DA  160A  118A  	fcall	_putchar
  7749  17A8                     l5294:
  7750                           
  7751                           ;helper.c: 362:         if (i == 6 || i == 8)
  7752  17A8  3006               	movlw	6
  7753  17A9  1283               	bcf	3,5	;RP0=0, select bank0
  7754  17AA  1303               	bcf	3,6	;RP1=0, select bank0
  7755  17AB  0638               	xorwf	download_log@i,w
  7756  17AC  0439               	iorwf	download_log@i+1,w
  7757  17AD  1903               	btfsc	3,2
  7758  17AE  2FB0               	goto	u6121
  7759  17AF  2FB1               	goto	u6120
  7760  17B0                     u6121:
  7761  17B0  2FB8               	goto	l5298
  7762  17B1                     u6120:
  7763  17B1                     l5296:
  7764  17B1  3008               	movlw	8
  7765  17B2  0638               	xorwf	download_log@i,w
  7766  17B3  0439               	iorwf	download_log@i+1,w
  7767  17B4  1D03               	btfss	3,2
  7768  17B5  2FB7               	goto	u6131
  7769  17B6  2FB8               	goto	u6130
  7770  17B7                     u6131:
  7771  17B7  2FBE               	goto	l5300
  7772  17B8                     u6130:
  7773  17B8                     l5298:
  7774                           
  7775                           ;helper.c: 363:             putchar(' ');
  7776  17B8  3020               	movlw	32
  7777  17B9  160A  158A  22DA  160A  118A  	fcall	_putchar
  7778  17BE                     l5300:
  7779                           
  7780                           ;helper.c: 364:         read_data[i] = eeprom_at24c04_random_read(addr);
  7781  17BE  1283               	bcf	3,5	;RP0=0, select bank0
  7782  17BF  1303               	bcf	3,6	;RP1=0, select bank0
  7783  17C0  0836               	movf	download_log@addr,w
  7784  17C1  160A  158A  25D5  160A  118A  	fcall	_eeprom_at24c04_random_read
  7785  17C6  1283               	bcf	3,5	;RP0=0, select bank0
  7786  17C7  1303               	bcf	3,6	;RP1=0, select bank0
  7787  17C8  00A9               	movwf	??_download_log
  7788  17C9  0838               	movf	download_log@i,w
  7789  17CA  3E2B               	addlw	(low (download_log@read_data| 0))& (0+255)
  7790  17CB  0084               	movwf	4
  7791  17CC  0829               	movf	??_download_log,w
  7792  17CD  1383               	bcf	3,7	;select IRP bank0
  7793  17CE  0080               	movwf	0
  7794  17CF                     l5302:
  7795                           
  7796                           ;helper.c: 365:         putchar(read_data[i]);
  7797  17CF  0838               	movf	download_log@i,w
  7798  17D0  3E2B               	addlw	(low (download_log@read_data| 0))& (0+255)
  7799  17D1  0084               	movwf	4
  7800  17D2  0800               	movf	0,w
  7801  17D3  160A  158A  22DA  160A  118A  	fcall	_putchar
  7802  17D8                     l5304:
  7803                           
  7804                           ;helper.c: 366:     }
  7805  17D8  3001               	movlw	1
  7806  17D9  1283               	bcf	3,5	;RP0=0, select bank0
  7807  17DA  1303               	bcf	3,6	;RP1=0, select bank0
  7808  17DB  07B8               	addwf	download_log@i,f
  7809  17DC  1803               	skipnc
  7810  17DD  0AB9               	incf	download_log@i+1,f
  7811  17DE  3000               	movlw	0
  7812  17DF  07B9               	addwf	download_log@i+1,f
  7813  17E0                     l5306:
  7814  17E0  0839               	movf	download_log@i+1,w
  7815  17E1  3A80               	xorlw	128
  7816  17E2  00FF               	movwf	btemp+1
  7817  17E3  3080               	movlw	128
  7818  17E4  027F               	subwf	btemp+1,w
  7819  17E5  1D03               	skipz
  7820  17E6  2FE9               	goto	u6145
  7821  17E7  300A               	movlw	10
  7822  17E8  0238               	subwf	download_log@i,w
  7823  17E9                     u6145:
  7824  17E9  1C03               	skipc
  7825  17EA  2FEC               	goto	u6141
  7826  17EB  2FED               	goto	u6140
  7827  17EC                     u6141:
  7828  17EC  2F5C               	goto	l5282
  7829  17ED                     u6140:
  7830  17ED                     l5308:
  7831                           
  7832                           ;helper.c: 367:     puts("\n\r");
  7833  17ED  3012               	movlw	low ((STR_15+18)| (0+32768))
  7834  17EE  00F4               	movwf	puts@s
  7835  17EF  3090               	movlw	high ((STR_15+18)| (0+32768))
  7836  17F0  00F5               	movwf	puts@s+1
  7837  17F1  160A  158A  246C  160A  118A  	fcall	_puts
  7838  17F6                     l5310:
  7839                           
  7840                           ;helper.c: 368:     read_pos++;
  7841  17F6  3001               	movlw	1
  7842  17F7  1683               	bsf	3,5	;RP0=1, select bank1
  7843  17F8  1303               	bcf	3,6	;RP1=0, select bank1
  7844  17F9  07A8               	addwf	download_log@read_pos^(0+128),f
  7845  17FA  1803               	skipnc
  7846  17FB  0AA9               	incf	(download_log@read_pos+1)^(0+128),f
  7847  17FC  3000               	movlw	0
  7848  17FD  07A9               	addwf	(download_log@read_pos+1)^(0+128),f
  7849  17FE                     l5312:
  7850                           
  7851                           ;helper.c: 370:     return 0x10;
  7852  17FE  3010               	movlw	16
  7853  17FF                     l289:
  7854  17FF  0008               	return
  7855  1800                     __end_of_download_log:
  7856                           
  7857                           	psect	text24
  7858  1C6C                     __ptext24:	
  7859 ;; *************** function _puts *****************
  7860 ;; Defined at:
  7861 ;;		line 26 in file "uart.c"
  7862 ;; Parameters:    Size  Location     Type
  7863 ;;  s               2    4[COMMON] PTR const unsigned char 
  7864 ;;		 -> STR_17(3), STR_15(21), 
  7865 ;; Auto vars:     Size  Location     Type
  7866 ;;		None
  7867 ;; Return value:  Size  Location     Type
  7868 ;;                  1    wreg      void 
  7869 ;; Registers used:
  7870 ;;		wreg, fsr0l, fsr0h, status,2, status,0, btemp+1, pclath, cstack
  7871 ;; Tracked objects:
  7872 ;;		On entry : 0/0
  7873 ;;		On exit  : 0/0
  7874 ;;		Unchanged: 0/0
  7875 ;; Data sizes:     COMMON   BANK0   BANK1   BANK3   BANK2
  7876 ;;      Params:         2       0       0       0       0
  7877 ;;      Locals:         0       0       0       0       0
  7878 ;;      Temps:          0       0       0       0       0
  7879 ;;      Totals:         2       0       0       0       0
  7880 ;;Total ram usage:        2 bytes
  7881 ;; Hardware stack levels used: 1
  7882 ;; Hardware stack levels required when called: 2
  7883 ;; This function calls:
  7884 ;;		_putchar
  7885 ;; This function is called by:
  7886 ;;		_download_log
  7887 ;; This function uses a non-reentrant model
  7888 ;;
  7889                           
  7890                           
  7891                           ;psect for function _puts
  7892  1C6C                     _puts:
  7893  1C6C                     l4742:	
  7894                           ;incstack = 0
  7895                           ; Regs used in _puts: [wreg-fsr0h+status,2+status,0+btemp+1+pclath+cstack]
  7896                           
  7897                           
  7898                           ;uart.c: 26: void puts(const char* s);uart.c: 27: {;uart.c: 28:     while (*s != '\0')
  7899  1C6C  2C81               	goto	l4748
  7900  1C6D                     l4744:
  7901                           
  7902                           ;uart.c: 29:     {;uart.c: 30:         putchar(*s++);
  7903  1C6D  0875               	movf	puts@s+1,w
  7904  1C6E  00FF               	movwf	btemp+1
  7905  1C6F  0874               	movf	puts@s,w
  7906  1C70  0084               	movwf	4
  7907  1C71  160A  158A  2000  160A  158A  	fcall	stringtab
  7908  1C76  160A  158A  22DA  160A  158A  	fcall	_putchar
  7909  1C7B                     l4746:
  7910  1C7B  3001               	movlw	1
  7911  1C7C  07F4               	addwf	puts@s,f
  7912  1C7D  1803               	skipnc
  7913  1C7E  0AF5               	incf	puts@s+1,f
  7914  1C7F  3000               	movlw	0
  7915  1C80  07F5               	addwf	puts@s+1,f
  7916  1C81                     l4748:
  7917                           
  7918                           ;uart.c: 28:     while (*s != '\0')
  7919  1C81  0875               	movf	puts@s+1,w
  7920  1C82  1283               	bcf	3,5	;RP0=0, select bank0
  7921  1C83  1303               	bcf	3,6	;RP1=0, select bank0
  7922  1C84  00FF               	movwf	btemp+1
  7923  1C85  0874               	movf	puts@s,w
  7924  1C86  0084               	movwf	4
  7925  1C87  160A  158A  2000  160A  158A  	fcall	stringtab
  7926  1C8C  3A00               	xorlw	0
  7927  1C8D  1D03               	skipz
  7928  1C8E  2C90               	goto	u5311
  7929  1C8F  2C91               	goto	u5310
  7930  1C90                     u5311:
  7931  1C90  2C6D               	goto	l4744
  7932  1C91                     u5310:
  7933  1C91                     l617:
  7934  1C91  0008               	return
  7935  1C92                     __end_of_puts:
  7936                           
  7937                           	psect	text25
  7938  1ADA                     __ptext25:	
  7939 ;; *************** function _putchar *****************
  7940 ;; Defined at:
  7941 ;;		line 15 in file "uart.c"
  7942 ;; Parameters:    Size  Location     Type
  7943 ;;  data            1    wreg     unsigned char 
  7944 ;; Auto vars:     Size  Location     Type
  7945 ;;  data            1    3[COMMON] unsigned char 
  7946 ;; Return value:  Size  Location     Type
  7947 ;;                  1    wreg      void 
  7948 ;; Registers used:
  7949 ;;		wreg
  7950 ;; Tracked objects:
  7951 ;;		On entry : 0/0
  7952 ;;		On exit  : 0/0
  7953 ;;		Unchanged: 0/0
  7954 ;; Data sizes:     COMMON   BANK0   BANK1   BANK3   BANK2
  7955 ;;      Params:         0       0       0       0       0
  7956 ;;      Locals:         1       0       0       0       0
  7957 ;;      Temps:          0       0       0       0       0
  7958 ;;      Totals:         1       0       0       0       0
  7959 ;;Total ram usage:        1 bytes
  7960 ;; Hardware stack levels used: 1
  7961 ;; Hardware stack levels required when called: 1
  7962 ;; This function calls:
  7963 ;;		Nothing
  7964 ;; This function is called by:
  7965 ;;		_download_log
  7966 ;;		_puts
  7967 ;; This function uses a non-reentrant model
  7968 ;;
  7969                           
  7970                           
  7971                           ;psect for function _putchar
  7972  1ADA                     _putchar:
  7973                           
  7974                           ;incstack = 0
  7975                           ; Regs used in _putchar: [wreg]
  7976                           ;putchar@data stored from wreg
  7977  1ADA  00F3               	movwf	putchar@data
  7978  1ADB                     l4546:
  7979                           
  7980                           ;uart.c: 15: void putchar(unsigned char data);uart.c: 16: {;uart.c: 17:     TXREG = data
      +                          ;
  7981  1ADB  0873               	movf	putchar@data,w
  7982  1ADC  1283               	bcf	3,5	;RP0=0, select bank0
  7983  1ADD  1303               	bcf	3,6	;RP1=0, select bank0
  7984  1ADE  0099               	movwf	25	;volatile
  7985  1ADF                     l4548:
  7986                           
  7987                           ;uart.c: 19:     {;uart.c: 21:     }while (TXIF != 1);
  7988  1ADF  1E0C               	btfss	12,4	;volatile
  7989  1AE0  2AE2               	goto	u4911
  7990  1AE1  2AE3               	goto	u4910
  7991  1AE2                     u4911:
  7992  1AE2  2ADF               	goto	l4548
  7993  1AE3                     u4910:
  7994  1AE3                     l610:
  7995                           
  7996                           ;uart.c: 23:     TXIF = 0;
  7997  1AE3  120C               	bcf	12,4	;volatile
  7998  1AE4                     l611:
  7999  1AE4  0008               	return
  8000  1AE5                     __end_of_putchar:
  8001                           
  8002                           	psect	text26
  8003  1C47                     __ptext26:	
  8004 ;; *************** function ___wmul *****************
  8005 ;; Defined at:
  8006 ;;		line 15 in file "/opt/microchip/xc8/v2.32/pic/sources/c90/common/Umul16.c"
  8007 ;; Parameters:    Size  Location     Type
  8008 ;;  multiplier      2    3[COMMON] unsigned int 
  8009 ;;  multiplicand    2    5[COMMON] unsigned int 
  8010 ;; Auto vars:     Size  Location     Type
  8011 ;;  product         2    7[COMMON] unsigned int 
  8012 ;; Return value:  Size  Location     Type
  8013 ;;                  2    3[COMMON] unsigned int 
  8014 ;; Registers used:
  8015 ;;		wreg, status,2, status,0
  8016 ;; Tracked objects:
  8017 ;;		On entry : 0/0
  8018 ;;		On exit  : 0/0
  8019 ;;		Unchanged: 0/0
  8020 ;; Data sizes:     COMMON   BANK0   BANK1   BANK3   BANK2
  8021 ;;      Params:         4       0       0       0       0
  8022 ;;      Locals:         2       0       0       0       0
  8023 ;;      Temps:          0       0       0       0       0
  8024 ;;      Totals:         6       0       0       0       0
  8025 ;;Total ram usage:        6 bytes
  8026 ;; Hardware stack levels used: 1
  8027 ;; Hardware stack levels required when called: 1
  8028 ;; This function calls:
  8029 ;;		Nothing
  8030 ;; This function is called by:
  8031 ;;		_download_log
  8032 ;; This function uses a non-reentrant model
  8033 ;;
  8034                           
  8035                           
  8036                           ;psect for function ___wmul
  8037  1C47                     ___wmul:
  8038  1C47                     l4894:	
  8039                           ;incstack = 0
  8040                           ; Regs used in ___wmul: [wreg+status,2+status,0]
  8041                           
  8042  1C47  01F7               	clrf	___wmul@product
  8043  1C48  01F8               	clrf	___wmul@product+1
  8044  1C49                     l4896:
  8045  1C49  1C73               	btfss	___wmul@multiplier,0
  8046  1C4A  2C4C               	goto	u5451
  8047  1C4B  2C4D               	goto	u5450
  8048  1C4C                     u5451:
  8049  1C4C  2C53               	goto	l709
  8050  1C4D                     u5450:
  8051  1C4D                     l4898:
  8052  1C4D  0875               	movf	___wmul@multiplicand,w
  8053  1C4E  07F7               	addwf	___wmul@product,f
  8054  1C4F  1803               	skipnc
  8055  1C50  0AF8               	incf	___wmul@product+1,f
  8056  1C51  0876               	movf	___wmul@multiplicand+1,w
  8057  1C52  07F8               	addwf	___wmul@product+1,f
  8058  1C53                     l709:
  8059  1C53  3001               	movlw	1
  8060  1C54                     u5465:
  8061  1C54  1003               	clrc
  8062  1C55  0DF5               	rlf	___wmul@multiplicand,f
  8063  1C56  0DF6               	rlf	___wmul@multiplicand+1,f
  8064  1C57  3EFF               	addlw	-1
  8065  1C58  1D03               	skipz
  8066  1C59  2C54               	goto	u5465
  8067  1C5A                     l4900:
  8068  1C5A  3001               	movlw	1
  8069  1C5B                     u5475:
  8070  1C5B  1003               	clrc
  8071  1C5C  0CF4               	rrf	___wmul@multiplier+1,f
  8072  1C5D  0CF3               	rrf	___wmul@multiplier,f
  8073  1C5E  3EFF               	addlw	-1
  8074  1C5F  1D03               	skipz
  8075  1C60  2C5B               	goto	u5475
  8076  1C61                     l4902:
  8077  1C61  0873               	movf	___wmul@multiplier,w
  8078  1C62  0474               	iorwf	___wmul@multiplier+1,w
  8079  1C63  1D03               	btfss	3,2
  8080  1C64  2C66               	goto	u5481
  8081  1C65  2C67               	goto	u5480
  8082  1C66                     u5481:
  8083  1C66  2C49               	goto	l4896
  8084  1C67                     u5480:
  8085  1C67                     l4904:
  8086  1C67  0878               	movf	___wmul@product+1,w
  8087  1C68  00F4               	movwf	?___wmul+1
  8088  1C69  0877               	movf	___wmul@product,w
  8089  1C6A  00F3               	movwf	?___wmul
  8090  1C6B                     l711:
  8091  1C6B  0008               	return
  8092  1C6C                     __end_of___wmul:
  8093                           
  8094                           	psect	text27
  8095  142A                     __ptext27:	
  8096 ;; *************** function _display_dash_board *****************
  8097 ;; Defined at:
  8098 ;;		line 24 in file "helper.c"
  8099 ;; Parameters:    Size  Location     Type
  8100 ;;  event           1    wreg     PTR unsigned char 
  8101 ;;		 -> main@event(3), 
  8102 ;;  speed           2   11[BANK0 ] unsigned short 
  8103 ;; Auto vars:     Size  Location     Type
  8104 ;;  event           1   14[BANK0 ] PTR unsigned char 
  8105 ;;		 -> main@event(3), 
  8106 ;; Return value:  Size  Location     Type
  8107 ;;                  1    wreg      void 
  8108 ;; Registers used:
  8109 ;;		wreg, fsr0l, fsr0h, status,2, status,0, btemp+1, pclath, cstack
  8110 ;; Tracked objects:
  8111 ;;		On entry : 0/0
  8112 ;;		On exit  : 0/0
  8113 ;;		Unchanged: 0/0
  8114 ;; Data sizes:     COMMON   BANK0   BANK1   BANK3   BANK2
  8115 ;;      Params:         0       2       0       0       0
  8116 ;;      Locals:         0       1       0       0       0
  8117 ;;      Temps:          0       1       0       0       0
  8118 ;;      Totals:         0       4       0       0       0
  8119 ;;Total ram usage:        4 bytes
  8120 ;; Hardware stack levels used: 1
  8121 ;; Hardware stack levels required when called: 5
  8122 ;; This function calls:
  8123 ;;		___lwdiv
  8124 ;;		___lwmod
  8125 ;;		_clcd_print
  8126 ;;		_clcd_putch
  8127 ;;		_display_time
  8128 ;;		_get_time
  8129 ;; This function is called by:
  8130 ;;		_main
  8131 ;; This function uses a non-reentrant model
  8132 ;;
  8133                           
  8134                           
  8135                           ;psect for function _display_dash_board
  8136  142A                     _display_dash_board:
  8137                           
  8138                           ;incstack = 0
  8139                           ; Regs used in _display_dash_board: [wreg-fsr0h+status,2+status,0+btemp+1+pclath+cstack]
  8140                           ;display_dash_board@event stored from wreg
  8141  142A  1283               	bcf	3,5	;RP0=0, select bank0
  8142  142B  1303               	bcf	3,6	;RP1=0, select bank0
  8143  142C  00AE               	movwf	display_dash_board@event
  8144  142D                     l5026:
  8145                           
  8146                           ;helper.c: 24: void display_dash_board( char event[], unsigned short speed);helper.c: 25
      +                          : {;helper.c: 26:  clcd_print("  TIME  EVNT  SP", (0x80 + (0)));
  8147  142D  305B               	movlw	low (STR_6| (0+32768))
  8148  142E  00A0               	movwf	clcd_print@data
  8149  142F  3090               	movlw	high (STR_6| (0+32768))
  8150  1430  00A1               	movwf	clcd_print@data+1
  8151  1431  3080               	movlw	128
  8152  1432  00AD               	movwf	??_display_dash_board
  8153  1433  082D               	movf	??_display_dash_board,w
  8154  1434  00A2               	movwf	clcd_print@addr
  8155  1435  160A  158A  256E  160A  118A  	fcall	_clcd_print
  8156  143A                     l5028:
  8157                           
  8158                           ;helper.c: 27:     get_time();
  8159  143A  160A  118A  251C  160A  118A  	fcall	_get_time
  8160  143F                     l5030:
  8161                           
  8162                           ;helper.c: 28:     display_time();
  8163  143F  160A  118A  23BD  160A  118A  	fcall	_display_time
  8164  1444                     l5032:
  8165                           
  8166                           ;helper.c: 29:     clcd_putch(' ',(0xC0 + (8)));
  8167  1444  30C8               	movlw	200
  8168  1445  1283               	bcf	3,5	;RP0=0, select bank0
  8169  1446  1303               	bcf	3,6	;RP1=0, select bank0
  8170  1447  00AD               	movwf	??_display_dash_board
  8171  1448  082D               	movf	??_display_dash_board,w
  8172  1449  00A4               	movwf	clcd_putch@addr
  8173  144A  3020               	movlw	32
  8174  144B  160A  158A  2355  160A  118A  	fcall	_clcd_putch
  8175  1450                     l5034:
  8176                           
  8177                           ;helper.c: 30:     clcd_print(event, (0xC0 + (9)));
  8178  1450  1283               	bcf	3,5	;RP0=0, select bank0
  8179  1451  1303               	bcf	3,6	;RP1=0, select bank0
  8180  1452  082E               	movf	display_dash_board@event,w
  8181  1453  00A0               	movwf	clcd_print@data
  8182  1454  3001               	movlw	1
  8183  1455  00A1               	movwf	clcd_print@data+1
  8184  1456  30C9               	movlw	201
  8185  1457  00AD               	movwf	??_display_dash_board
  8186  1458  082D               	movf	??_display_dash_board,w
  8187  1459  00A2               	movwf	clcd_print@addr
  8188  145A  160A  158A  256E  160A  118A  	fcall	_clcd_print
  8189                           
  8190                           ;helper.c: 31:     clcd_putch(' ',(0xC0 + (12)));
  8191  145F  30CC               	movlw	204
  8192  1460  1283               	bcf	3,5	;RP0=0, select bank0
  8193  1461  1303               	bcf	3,6	;RP1=0, select bank0
  8194  1462  00AD               	movwf	??_display_dash_board
  8195  1463  082D               	movf	??_display_dash_board,w
  8196  1464  00A4               	movwf	clcd_putch@addr
  8197  1465  3020               	movlw	32
  8198  1466  160A  158A  2355  160A  118A  	fcall	_clcd_putch
  8199                           
  8200                           ;helper.c: 32:     clcd_putch('0' + (speed / 10), (0xC0 + (14)));
  8201  146B  30CE               	movlw	206
  8202  146C  1283               	bcf	3,5	;RP0=0, select bank0
  8203  146D  1303               	bcf	3,6	;RP1=0, select bank0
  8204  146E  00AD               	movwf	??_display_dash_board
  8205  146F  082D               	movf	??_display_dash_board,w
  8206  1470  00A4               	movwf	clcd_putch@addr
  8207  1471  300A               	movlw	10
  8208  1472  00F3               	movwf	___lwdiv@divisor
  8209  1473  3000               	movlw	0
  8210  1474  00F4               	movwf	___lwdiv@divisor+1
  8211  1475  082C               	movf	display_dash_board@speed+1,w
  8212  1476  00F6               	movwf	___lwdiv@dividend+1
  8213  1477  082B               	movf	display_dash_board@speed,w
  8214  1478  00F5               	movwf	___lwdiv@dividend
  8215  1479  160A  158A  26BE  160A  118A  	fcall	___lwdiv
  8216  147E  0873               	movf	?___lwdiv,w
  8217  147F  3E30               	addlw	48
  8218  1480  160A  158A  2355  160A  118A  	fcall	_clcd_putch
  8219                           
  8220                           ;helper.c: 33:     clcd_putch('0' + (speed % 10), (0xC0 + (15)));
  8221  1485  30CF               	movlw	207
  8222  1486  1283               	bcf	3,5	;RP0=0, select bank0
  8223  1487  1303               	bcf	3,6	;RP1=0, select bank0
  8224  1488  00AD               	movwf	??_display_dash_board
  8225  1489  082D               	movf	??_display_dash_board,w
  8226  148A  00A4               	movwf	clcd_putch@addr
  8227  148B  300A               	movlw	10
  8228  148C  00F3               	movwf	___lwmod@divisor
  8229  148D  3000               	movlw	0
  8230  148E  00F4               	movwf	___lwmod@divisor+1
  8231  148F  082C               	movf	display_dash_board@speed+1,w
  8232  1490  00F6               	movwf	___lwmod@dividend+1
  8233  1491  082B               	movf	display_dash_board@speed,w
  8234  1492  00F5               	movwf	___lwmod@dividend
  8235  1493  120A  158A  2002  160A  118A  	fcall	___lwmod
  8236  1498  0873               	movf	?___lwmod,w
  8237  1499  3E30               	addlw	48
  8238  149A  160A  158A  2355  160A  118A  	fcall	_clcd_putch
  8239  149F                     l193:
  8240  149F  0008               	return
  8241  14A0                     __end_of_display_dash_board:
  8242                           
  8243                           	psect	text28
  8244  151C                     __ptext28:	
  8245 ;; *************** function _get_time *****************
  8246 ;; Defined at:
  8247 ;;		line 49 in file "helper.c"
  8248 ;; Parameters:    Size  Location     Type
  8249 ;;		None
  8250 ;; Auto vars:     Size  Location     Type
  8251 ;;		None
  8252 ;; Return value:  Size  Location     Type
  8253 ;;                  1    wreg      void 
  8254 ;; Registers used:
  8255 ;;		wreg, status,2, status,0, pclath, cstack
  8256 ;; Tracked objects:
  8257 ;;		On entry : 0/0
  8258 ;;		On exit  : 0/0
  8259 ;;		Unchanged: 0/0
  8260 ;; Data sizes:     COMMON   BANK0   BANK1   BANK3   BANK2
  8261 ;;      Params:         0       0       0       0       0
  8262 ;;      Locals:         0       0       0       0       0
  8263 ;;      Temps:          0       2       0       0       0
  8264 ;;      Totals:         0       2       0       0       0
  8265 ;;Total ram usage:        2 bytes
  8266 ;; Hardware stack levels used: 1
  8267 ;; Hardware stack levels required when called: 4
  8268 ;; This function calls:
  8269 ;;		_read_ds1307
  8270 ;; This function is called by:
  8271 ;;		_display_dash_board
  8272 ;;		_log_car_event
  8273 ;;		_set_time
  8274 ;; This function uses a non-reentrant model
  8275 ;;
  8276                           
  8277                           
  8278                           ;psect for function _get_time
  8279  151C                     _get_time:
  8280  151C                     l4688:	
  8281                           ;incstack = 0
  8282                           ; Regs used in _get_time: [wreg+status,2+status,0+pclath+cstack]
  8283                           
  8284                           
  8285                           ;helper.c: 51:  clock_reg[0] = read_ds1307(0x02);
  8286  151C  3002               	movlw	2
  8287  151D  160A  158A  260B  160A  118A  	fcall	_read_ds1307
  8288  1522  1283               	bcf	3,5	;RP0=0, select bank0
  8289  1523  1303               	bcf	3,6	;RP1=0, select bank0
  8290  1524  00A9               	movwf	??_get_time
  8291  1525  0829               	movf	??_get_time,w
  8292  1526  00D5               	movwf	_clock_reg
  8293                           
  8294                           ;helper.c: 52:  clock_reg[1] = read_ds1307(0x01);
  8295  1527  3001               	movlw	1
  8296  1528  160A  158A  260B  160A  118A  	fcall	_read_ds1307
  8297  152D  1283               	bcf	3,5	;RP0=0, select bank0
  8298  152E  1303               	bcf	3,6	;RP1=0, select bank0
  8299  152F  00A9               	movwf	??_get_time
  8300  1530  0829               	movf	??_get_time,w
  8301  1531  00D6               	movwf	_clock_reg+1
  8302                           
  8303                           ;helper.c: 53:  clock_reg[2] = read_ds1307(0x00);
  8304  1532  3000               	movlw	0
  8305  1533  160A  158A  260B  160A  118A  	fcall	_read_ds1307
  8306  1538  1283               	bcf	3,5	;RP0=0, select bank0
  8307  1539  1303               	bcf	3,6	;RP1=0, select bank0
  8308  153A  00A9               	movwf	??_get_time
  8309  153B  0829               	movf	??_get_time,w
  8310  153C  00D7               	movwf	_clock_reg+2
  8311  153D                     l4690:
  8312                           
  8313                           ;helper.c: 55:  if (clock_reg[0] & 0x40)
  8314  153D  1F55               	btfss	_clock_reg,6
  8315  153E  2D40               	goto	u5201
  8316  153F  2D41               	goto	u5200
  8317  1540                     u5201:
  8318  1540  2D5C               	goto	l4694
  8319  1541                     u5200:
  8320  1541                     l4692:
  8321                           
  8322                           ;helper.c: 56:  {;helper.c: 57:   time[0] = '0' + ((clock_reg[0] >> 4) & 0x01);
  8323  1541  0855               	movf	_clock_reg,w
  8324  1542  00A9               	movwf	??_get_time
  8325  1543  3004               	movlw	4
  8326  1544                     u5215:
  8327  1544  1003               	clrc
  8328  1545  0CA9               	rrf	??_get_time,f
  8329  1546  3EFF               	addlw	-1
  8330  1547  1D03               	skipz
  8331  1548  2D44               	goto	u5215
  8332  1549  0829               	movf	??_get_time,w
  8333  154A  3901               	andlw	1
  8334  154B  3E30               	addlw	48
  8335  154C  00AA               	movwf	??_get_time+1
  8336  154D  082A               	movf	??_get_time+1,w
  8337  154E  1683               	bsf	3,5	;RP0=1, select bank1
  8338  154F  1303               	bcf	3,6	;RP1=0, select bank1
  8339  1550  00C1               	movwf	_time^(0+128)
  8340                           
  8341                           ;helper.c: 58:   time[1] = '0' + (clock_reg[0] & 0x0F);
  8342  1551  1283               	bcf	3,5	;RP0=0, select bank0
  8343  1552  1303               	bcf	3,6	;RP1=0, select bank0
  8344  1553  0855               	movf	_clock_reg,w
  8345  1554  390F               	andlw	15
  8346  1555  3E30               	addlw	48
  8347  1556  00A9               	movwf	??_get_time
  8348  1557  0829               	movf	??_get_time,w
  8349  1558  1683               	bsf	3,5	;RP0=1, select bank1
  8350  1559  1303               	bcf	3,6	;RP1=0, select bank1
  8351  155A  00C2               	movwf	(_time^(0+128)+1)
  8352                           
  8353                           ;helper.c: 59:  }
  8354  155B  2D76               	goto	l200
  8355  155C                     l4694:
  8356                           
  8357                           ;helper.c: 61:  {;helper.c: 62:   time[0] = '0' + ((clock_reg[0] >> 4) & 0x03);
  8358  155C  0855               	movf	_clock_reg,w
  8359  155D  00A9               	movwf	??_get_time
  8360  155E  3004               	movlw	4
  8361  155F                     u5225:
  8362  155F  1003               	clrc
  8363  1560  0CA9               	rrf	??_get_time,f
  8364  1561  3EFF               	addlw	-1
  8365  1562  1D03               	skipz
  8366  1563  2D5F               	goto	u5225
  8367  1564  0829               	movf	??_get_time,w
  8368  1565  3903               	andlw	3
  8369  1566  3E30               	addlw	48
  8370  1567  00AA               	movwf	??_get_time+1
  8371  1568  082A               	movf	??_get_time+1,w
  8372  1569  1683               	bsf	3,5	;RP0=1, select bank1
  8373  156A  1303               	bcf	3,6	;RP1=0, select bank1
  8374  156B  00C1               	movwf	_time^(0+128)
  8375                           
  8376                           ;helper.c: 63:   time[1] = '0' + (clock_reg[0] & 0x0F);
  8377  156C  1283               	bcf	3,5	;RP0=0, select bank0
  8378  156D  1303               	bcf	3,6	;RP1=0, select bank0
  8379  156E  0855               	movf	_clock_reg,w
  8380  156F  390F               	andlw	15
  8381  1570  3E30               	addlw	48
  8382  1571  00A9               	movwf	??_get_time
  8383  1572  0829               	movf	??_get_time,w
  8384  1573  1683               	bsf	3,5	;RP0=1, select bank1
  8385  1574  1303               	bcf	3,6	;RP1=0, select bank1
  8386  1575  00C2               	movwf	(_time^(0+128)+1)
  8387  1576                     l200:	
  8388                           ;helper.c: 64:  }
  8389                           
  8390                           
  8391                           ;helper.c: 65:  time[2] = '0' + ((clock_reg[1] >> 4) & 0x0F);
  8392  1576  1283               	bcf	3,5	;RP0=0, select bank0
  8393  1577  1303               	bcf	3,6	;RP1=0, select bank0
  8394  1578  0856               	movf	_clock_reg+1,w
  8395  1579  00A9               	movwf	??_get_time
  8396  157A  3004               	movlw	4
  8397  157B                     u5235:
  8398  157B  1003               	clrc
  8399  157C  0CA9               	rrf	??_get_time,f
  8400  157D  3EFF               	addlw	-1
  8401  157E  1D03               	skipz
  8402  157F  2D7B               	goto	u5235
  8403  1580  0829               	movf	??_get_time,w
  8404  1581  390F               	andlw	15
  8405  1582  3E30               	addlw	48
  8406  1583  00AA               	movwf	??_get_time+1
  8407  1584  082A               	movf	??_get_time+1,w
  8408  1585  1683               	bsf	3,5	;RP0=1, select bank1
  8409  1586  1303               	bcf	3,6	;RP1=0, select bank1
  8410  1587  00C3               	movwf	(_time^(0+128)+2)
  8411                           
  8412                           ;helper.c: 66:  time[3] = '0' + (clock_reg[1] & 0x0F);
  8413  1588  1283               	bcf	3,5	;RP0=0, select bank0
  8414  1589  1303               	bcf	3,6	;RP1=0, select bank0
  8415  158A  0856               	movf	_clock_reg+1,w
  8416  158B  390F               	andlw	15
  8417  158C  3E30               	addlw	48
  8418  158D  00A9               	movwf	??_get_time
  8419  158E  0829               	movf	??_get_time,w
  8420  158F  1683               	bsf	3,5	;RP0=1, select bank1
  8421  1590  1303               	bcf	3,6	;RP1=0, select bank1
  8422  1591  00C4               	movwf	(_time^(0+128)+3)
  8423                           
  8424                           ;helper.c: 67:  time[4] = '0' + ((clock_reg[2] >> 4) & 0x0F);
  8425  1592  1283               	bcf	3,5	;RP0=0, select bank0
  8426  1593  1303               	bcf	3,6	;RP1=0, select bank0
  8427  1594  0857               	movf	_clock_reg+2,w
  8428  1595  00A9               	movwf	??_get_time
  8429  1596  3004               	movlw	4
  8430  1597                     u5245:
  8431  1597  1003               	clrc
  8432  1598  0CA9               	rrf	??_get_time,f
  8433  1599  3EFF               	addlw	-1
  8434  159A  1D03               	skipz
  8435  159B  2D97               	goto	u5245
  8436  159C  0829               	movf	??_get_time,w
  8437  159D  390F               	andlw	15
  8438  159E  3E30               	addlw	48
  8439  159F  00AA               	movwf	??_get_time+1
  8440  15A0  082A               	movf	??_get_time+1,w
  8441  15A1  1683               	bsf	3,5	;RP0=1, select bank1
  8442  15A2  1303               	bcf	3,6	;RP1=0, select bank1
  8443  15A3  00C5               	movwf	(_time^(0+128)+4)
  8444                           
  8445                           ;helper.c: 68:  time[5] = '0' + (clock_reg[2] & 0x0F);
  8446  15A4  1283               	bcf	3,5	;RP0=0, select bank0
  8447  15A5  1303               	bcf	3,6	;RP1=0, select bank0
  8448  15A6  0857               	movf	_clock_reg+2,w
  8449  15A7  390F               	andlw	15
  8450  15A8  3E30               	addlw	48
  8451  15A9  00A9               	movwf	??_get_time
  8452  15AA  0829               	movf	??_get_time,w
  8453  15AB  1683               	bsf	3,5	;RP0=1, select bank1
  8454  15AC  1303               	bcf	3,6	;RP1=0, select bank1
  8455  15AD  00C6               	movwf	(_time^(0+128)+5)
  8456  15AE                     l4696:
  8457                           
  8458                           ;helper.c: 69:  time[6] = '\0';
  8459  15AE  01C7               	clrf	(_time^(0+128)+6)
  8460  15AF                     l201:
  8461  15AF  0008               	return
  8462  15B0                     __end_of_get_time:
  8463                           
  8464                           	psect	text29
  8465  1E0B                     __ptext29:	
  8466 ;; *************** function _read_ds1307 *****************
  8467 ;; Defined at:
  8468 ;;		line 30 in file "ds1307.c"
  8469 ;; Parameters:    Size  Location     Type
  8470 ;;  address         1    wreg     unsigned char 
  8471 ;; Auto vars:     Size  Location     Type
  8472 ;;  address         1    7[BANK0 ] unsigned char 
  8473 ;;  data            1    8[BANK0 ] unsigned char 
  8474 ;; Return value:  Size  Location     Type
  8475 ;;                  1    wreg      unsigned char 
  8476 ;; Registers used:
  8477 ;;		wreg, status,2, status,0, pclath, cstack
  8478 ;; Tracked objects:
  8479 ;;		On entry : 0/0
  8480 ;;		On exit  : 0/0
  8481 ;;		Unchanged: 0/0
  8482 ;; Data sizes:     COMMON   BANK0   BANK1   BANK3   BANK2
  8483 ;;      Params:         0       0       0       0       0
  8484 ;;      Locals:         0       2       0       0       0
  8485 ;;      Temps:          0       1       0       0       0
  8486 ;;      Totals:         0       3       0       0       0
  8487 ;;Total ram usage:        3 bytes
  8488 ;; Hardware stack levels used: 1
  8489 ;; Hardware stack levels required when called: 3
  8490 ;; This function calls:
  8491 ;;		_i2c_read
  8492 ;;		_i2c_rep_start
  8493 ;;		_i2c_start
  8494 ;;		_i2c_stop
  8495 ;;		_i2c_write
  8496 ;; This function is called by:
  8497 ;;		_init_ds1307
  8498 ;;		_get_time
  8499 ;; This function uses a non-reentrant model
  8500 ;;
  8501                           
  8502                           
  8503                           ;psect for function _read_ds1307
  8504  1E0B                     _read_ds1307:
  8505                           
  8506                           ;incstack = 0
  8507                           ; Regs used in _read_ds1307: [wreg+status,2+status,0+pclath+cstack]
  8508                           ;read_ds1307@address stored from wreg
  8509  1E0B  1283               	bcf	3,5	;RP0=0, select bank0
  8510  1E0C  1303               	bcf	3,6	;RP1=0, select bank0
  8511  1E0D  00A7               	movwf	read_ds1307@address
  8512  1E0E                     l4522:
  8513                           
  8514                           ;ds1307.c: 30: unsigned char read_ds1307(unsigned char address);ds1307.c: 31: {;ds1307.c
      +                          : 32:  unsigned char data;;ds1307.c: 34:  i2c_start();
  8515  1E0E  160A  158A  22B4  160A  158A  	fcall	_i2c_start
  8516                           
  8517                           ;ds1307.c: 35:  i2c_write(0xD0);
  8518  1E13  30D0               	movlw	208
  8519  1E14  160A  158A  22CF  160A  158A  	fcall	_i2c_write
  8520                           
  8521                           ;ds1307.c: 36:  i2c_write(address);
  8522  1E19  1283               	bcf	3,5	;RP0=0, select bank0
  8523  1E1A  1303               	bcf	3,6	;RP1=0, select bank0
  8524  1E1B  0827               	movf	read_ds1307@address,w
  8525  1E1C  160A  158A  22CF  160A  158A  	fcall	_i2c_write
  8526                           
  8527                           ;ds1307.c: 37:  i2c_rep_start();
  8528  1E21  160A  158A  22C6  160A  158A  	fcall	_i2c_rep_start
  8529                           
  8530                           ;ds1307.c: 38:  i2c_write(0xD1);
  8531  1E26  30D1               	movlw	209
  8532  1E27  160A  158A  22CF  160A  158A  	fcall	_i2c_write
  8533                           
  8534                           ;ds1307.c: 39:  data = i2c_read(0);
  8535  1E2C  3000               	movlw	0
  8536  1E2D  160A  158A  25A1  160A  158A  	fcall	_i2c_read
  8537  1E32  1283               	bcf	3,5	;RP0=0, select bank0
  8538  1E33  1303               	bcf	3,6	;RP1=0, select bank0
  8539  1E34  0820               	movf	?_i2c_read,w
  8540  1E35  00A6               	movwf	??_read_ds1307
  8541  1E36  0826               	movf	??_read_ds1307,w
  8542  1E37  00A8               	movwf	read_ds1307@data
  8543                           
  8544                           ;ds1307.c: 40:  i2c_stop();
  8545  1E38  160A  158A  22BD  160A  158A  	fcall	_i2c_stop
  8546  1E3D                     l4524:
  8547                           
  8548                           ;ds1307.c: 42:  return data;
  8549  1E3D  1283               	bcf	3,5	;RP0=0, select bank0
  8550  1E3E  1303               	bcf	3,6	;RP1=0, select bank0
  8551  1E3F  0828               	movf	read_ds1307@data,w
  8552  1E40                     l140:
  8553  1E40  0008               	return
  8554  1E41                     __end_of_read_ds1307:
  8555                           
  8556                           	psect	text30
  8557  13BD                     __ptext30:	
  8558 ;; *************** function _display_time *****************
  8559 ;; Defined at:
  8560 ;;		line 37 in file "helper.c"
  8561 ;; Parameters:    Size  Location     Type
  8562 ;;		None
  8563 ;; Auto vars:     Size  Location     Type
  8564 ;;		None
  8565 ;; Return value:  Size  Location     Type
  8566 ;;                  1    wreg      void 
  8567 ;; Registers used:
  8568 ;;		wreg, status,2, status,0, pclath, cstack
  8569 ;; Tracked objects:
  8570 ;;		On entry : 0/0
  8571 ;;		On exit  : 0/0
  8572 ;;		Unchanged: 0/0
  8573 ;; Data sizes:     COMMON   BANK0   BANK1   BANK3   BANK2
  8574 ;;      Params:         0       0       0       0       0
  8575 ;;      Locals:         0       0       0       0       0
  8576 ;;      Temps:          0       1       0       0       0
  8577 ;;      Totals:         0       1       0       0       0
  8578 ;;Total ram usage:        1 bytes
  8579 ;; Hardware stack levels used: 1
  8580 ;; Hardware stack levels required when called: 3
  8581 ;; This function calls:
  8582 ;;		_clcd_putch
  8583 ;; This function is called by:
  8584 ;;		_display_dash_board
  8585 ;;		_set_time
  8586 ;; This function uses a non-reentrant model
  8587 ;;
  8588                           
  8589                           
  8590                           ;psect for function _display_time
  8591  13BD                     _display_time:
  8592  13BD                     l4698:	
  8593                           ;incstack = 0
  8594                           ; Regs used in _display_time: [wreg+status,2+status,0+pclath+cstack]
  8595                           
  8596                           
  8597                           ;helper.c: 39:  clcd_putch(time[0],(0xC0 + (0)));
  8598  13BD  30C0               	movlw	192
  8599  13BE  1283               	bcf	3,5	;RP0=0, select bank0
  8600  13BF  1303               	bcf	3,6	;RP1=0, select bank0
  8601  13C0  00A6               	movwf	??_display_time
  8602  13C1  0826               	movf	??_display_time,w
  8603  13C2  00A4               	movwf	clcd_putch@addr
  8604  13C3  1683               	bsf	3,5	;RP0=1, select bank1
  8605  13C4  1303               	bcf	3,6	;RP1=0, select bank1
  8606  13C5  0841               	movf	_time^(0+128),w
  8607  13C6  160A  158A  2355  160A  118A  	fcall	_clcd_putch
  8608                           
  8609                           ;helper.c: 40:  clcd_putch(time[1],(0xC0 + (1)));
  8610  13CB  30C1               	movlw	193
  8611  13CC  1283               	bcf	3,5	;RP0=0, select bank0
  8612  13CD  1303               	bcf	3,6	;RP1=0, select bank0
  8613  13CE  00A6               	movwf	??_display_time
  8614  13CF  0826               	movf	??_display_time,w
  8615  13D0  00A4               	movwf	clcd_putch@addr
  8616  13D1  1683               	bsf	3,5	;RP0=1, select bank1
  8617  13D2  1303               	bcf	3,6	;RP1=0, select bank1
  8618  13D3  0842               	movf	(_time^(0+128)+1),w
  8619  13D4  160A  158A  2355  160A  118A  	fcall	_clcd_putch
  8620                           
  8621                           ;helper.c: 41:  clcd_putch(':',(0xC0 + (2)));
  8622  13D9  30C2               	movlw	194
  8623  13DA  1283               	bcf	3,5	;RP0=0, select bank0
  8624  13DB  1303               	bcf	3,6	;RP1=0, select bank0
  8625  13DC  00A6               	movwf	??_display_time
  8626  13DD  0826               	movf	??_display_time,w
  8627  13DE  00A4               	movwf	clcd_putch@addr
  8628  13DF  303A               	movlw	58
  8629  13E0  160A  158A  2355  160A  118A  	fcall	_clcd_putch
  8630                           
  8631                           ;helper.c: 42:  clcd_putch(time[2],(0xC0 + (3)));
  8632  13E5  30C3               	movlw	195
  8633  13E6  1283               	bcf	3,5	;RP0=0, select bank0
  8634  13E7  1303               	bcf	3,6	;RP1=0, select bank0
  8635  13E8  00A6               	movwf	??_display_time
  8636  13E9  0826               	movf	??_display_time,w
  8637  13EA  00A4               	movwf	clcd_putch@addr
  8638  13EB  1683               	bsf	3,5	;RP0=1, select bank1
  8639  13EC  1303               	bcf	3,6	;RP1=0, select bank1
  8640  13ED  0843               	movf	(_time^(0+128)+2),w
  8641  13EE  160A  158A  2355  160A  118A  	fcall	_clcd_putch
  8642                           
  8643                           ;helper.c: 43:  clcd_putch(time[3],(0xC0 + (4)));
  8644  13F3  30C4               	movlw	196
  8645  13F4  1283               	bcf	3,5	;RP0=0, select bank0
  8646  13F5  1303               	bcf	3,6	;RP1=0, select bank0
  8647  13F6  00A6               	movwf	??_display_time
  8648  13F7  0826               	movf	??_display_time,w
  8649  13F8  00A4               	movwf	clcd_putch@addr
  8650  13F9  1683               	bsf	3,5	;RP0=1, select bank1
  8651  13FA  1303               	bcf	3,6	;RP1=0, select bank1
  8652  13FB  0844               	movf	(_time^(0+128)+3),w
  8653  13FC  160A  158A  2355  160A  118A  	fcall	_clcd_putch
  8654                           
  8655                           ;helper.c: 44:  clcd_putch(':',(0xC0 + (5)));
  8656  1401  30C5               	movlw	197
  8657  1402  1283               	bcf	3,5	;RP0=0, select bank0
  8658  1403  1303               	bcf	3,6	;RP1=0, select bank0
  8659  1404  00A6               	movwf	??_display_time
  8660  1405  0826               	movf	??_display_time,w
  8661  1406  00A4               	movwf	clcd_putch@addr
  8662  1407  303A               	movlw	58
  8663  1408  160A  158A  2355  160A  118A  	fcall	_clcd_putch
  8664                           
  8665                           ;helper.c: 45:  clcd_putch(time[4],(0xC0 + (6)));
  8666  140D  30C6               	movlw	198
  8667  140E  1283               	bcf	3,5	;RP0=0, select bank0
  8668  140F  1303               	bcf	3,6	;RP1=0, select bank0
  8669  1410  00A6               	movwf	??_display_time
  8670  1411  0826               	movf	??_display_time,w
  8671  1412  00A4               	movwf	clcd_putch@addr
  8672  1413  1683               	bsf	3,5	;RP0=1, select bank1
  8673  1414  1303               	bcf	3,6	;RP1=0, select bank1
  8674  1415  0845               	movf	(_time^(0+128)+4),w
  8675  1416  160A  158A  2355  160A  118A  	fcall	_clcd_putch
  8676                           
  8677                           ;helper.c: 46:  clcd_putch(time[5],(0xC0 + (7)));
  8678  141B  30C7               	movlw	199
  8679  141C  1283               	bcf	3,5	;RP0=0, select bank0
  8680  141D  1303               	bcf	3,6	;RP1=0, select bank0
  8681  141E  00A6               	movwf	??_display_time
  8682  141F  0826               	movf	??_display_time,w
  8683  1420  00A4               	movwf	clcd_putch@addr
  8684  1421  1683               	bsf	3,5	;RP0=1, select bank1
  8685  1422  1303               	bcf	3,6	;RP1=0, select bank1
  8686  1423  0846               	movf	(_time^(0+128)+5),w
  8687  1424  160A  158A  2355  160A  118A  	fcall	_clcd_putch
  8688  1429                     l196:
  8689  1429  0008               	return
  8690  142A                     __end_of_display_time:
  8691                           
  8692                           	psect	text31
  8693  0802                     __ptext31:	
  8694 ;; *************** function ___lwmod *****************
  8695 ;; Defined at:
  8696 ;;		line 5 in file "/opt/microchip/xc8/v2.32/pic/sources/c90/common/lwmod.c"
  8697 ;; Parameters:    Size  Location     Type
  8698 ;;  divisor         2    3[COMMON] unsigned int 
  8699 ;;  dividend        2    5[COMMON] unsigned int 
  8700 ;; Auto vars:     Size  Location     Type
  8701 ;;  counter         1    8[COMMON] unsigned char 
  8702 ;; Return value:  Size  Location     Type
  8703 ;;                  2    3[COMMON] unsigned int 
  8704 ;; Registers used:
  8705 ;;		wreg, status,2, status,0
  8706 ;; Tracked objects:
  8707 ;;		On entry : 0/0
  8708 ;;		On exit  : 0/0
  8709 ;;		Unchanged: 0/0
  8710 ;; Data sizes:     COMMON   BANK0   BANK1   BANK3   BANK2
  8711 ;;      Params:         4       0       0       0       0
  8712 ;;      Locals:         1       0       0       0       0
  8713 ;;      Temps:          1       0       0       0       0
  8714 ;;      Totals:         6       0       0       0       0
  8715 ;;Total ram usage:        6 bytes
  8716 ;; Hardware stack levels used: 1
  8717 ;; Hardware stack levels required when called: 1
  8718 ;; This function calls:
  8719 ;;		Nothing
  8720 ;; This function is called by:
  8721 ;;		_display_dash_board
  8722 ;;		_log_car_event
  8723 ;; This function uses a non-reentrant model
  8724 ;;
  8725                           
  8726                           
  8727                           ;psect for function ___lwmod
  8728  0802                     ___lwmod:
  8729  0802                     l4934:	
  8730                           ;incstack = 0
  8731                           ; Regs used in ___lwmod: [wreg+status,2+status,0]
  8732                           
  8733  0802  0873               	movf	___lwmod@divisor,w
  8734  0803  0474               	iorwf	___lwmod@divisor+1,w
  8735  0804  1903               	btfsc	3,2
  8736  0805  2807               	goto	u5561
  8737  0806  2808               	goto	u5560
  8738  0807                     u5561:
  8739  0807  2837               	goto	l4952
  8740  0808                     u5560:
  8741  0808                     l4936:
  8742  0808  01F8               	clrf	___lwmod@counter
  8743  0809  0AF8               	incf	___lwmod@counter,f
  8744  080A  2816               	goto	l4942
  8745  080B                     l4938:
  8746  080B  3001               	movlw	1
  8747  080C                     u5575:
  8748  080C  1003               	clrc
  8749  080D  0DF3               	rlf	___lwmod@divisor,f
  8750  080E  0DF4               	rlf	___lwmod@divisor+1,f
  8751  080F  3EFF               	addlw	-1
  8752  0810  1D03               	skipz
  8753  0811  280C               	goto	u5575
  8754  0812                     l4940:
  8755  0812  3001               	movlw	1
  8756  0813  00F7               	movwf	??___lwmod
  8757  0814  0877               	movf	??___lwmod,w
  8758  0815  07F8               	addwf	___lwmod@counter,f
  8759  0816                     l4942:
  8760  0816  1FF4               	btfss	___lwmod@divisor+1,7
  8761  0817  2819               	goto	u5581
  8762  0818  281A               	goto	u5580
  8763  0819                     u5581:
  8764  0819  280B               	goto	l4938
  8765  081A                     u5580:
  8766  081A                     l4944:
  8767  081A  0874               	movf	___lwmod@divisor+1,w
  8768  081B  0276               	subwf	___lwmod@dividend+1,w
  8769  081C  1D03               	skipz
  8770  081D  2820               	goto	u5595
  8771  081E  0873               	movf	___lwmod@divisor,w
  8772  081F  0275               	subwf	___lwmod@dividend,w
  8773  0820                     u5595:
  8774  0820  1C03               	skipc
  8775  0821  2823               	goto	u5591
  8776  0822  2824               	goto	u5590
  8777  0823                     u5591:
  8778  0823  282A               	goto	l4948
  8779  0824                     u5590:
  8780  0824                     l4946:
  8781  0824  0873               	movf	___lwmod@divisor,w
  8782  0825  02F5               	subwf	___lwmod@dividend,f
  8783  0826  0874               	movf	___lwmod@divisor+1,w
  8784  0827  1C03               	skipc
  8785  0828  03F6               	decf	___lwmod@dividend+1,f
  8786  0829  02F6               	subwf	___lwmod@dividend+1,f
  8787  082A                     l4948:
  8788  082A  3001               	movlw	1
  8789  082B                     u5605:
  8790  082B  1003               	clrc
  8791  082C  0CF4               	rrf	___lwmod@divisor+1,f
  8792  082D  0CF3               	rrf	___lwmod@divisor,f
  8793  082E  3EFF               	addlw	-1
  8794  082F  1D03               	skipz
  8795  0830  282B               	goto	u5605
  8796  0831                     l4950:
  8797  0831  3001               	movlw	1
  8798  0832  02F8               	subwf	___lwmod@counter,f
  8799  0833  1D03               	btfss	3,2
  8800  0834  2836               	goto	u5611
  8801  0835  2837               	goto	u5610
  8802  0836                     u5611:
  8803  0836  281A               	goto	l4944
  8804  0837                     u5610:
  8805  0837                     l4952:
  8806  0837  0876               	movf	___lwmod@dividend+1,w
  8807  0838  00F4               	movwf	?___lwmod+1
  8808  0839  0875               	movf	___lwmod@dividend,w
  8809  083A  00F3               	movwf	?___lwmod
  8810  083B                     l991:
  8811  083B  0008               	return
  8812  083C                     __end_of___lwmod:
  8813                           
  8814                           	psect	text32
  8815  1EBE                     __ptext32:	
  8816 ;; *************** function ___lwdiv *****************
  8817 ;; Defined at:
  8818 ;;		line 5 in file "/opt/microchip/xc8/v2.32/pic/sources/c90/common/lwdiv.c"
  8819 ;; Parameters:    Size  Location     Type
  8820 ;;  divisor         2    3[COMMON] unsigned int 
  8821 ;;  dividend        2    5[COMMON] unsigned int 
  8822 ;; Auto vars:     Size  Location     Type
  8823 ;;  quotient        2    1[BANK0 ] unsigned int 
  8824 ;;  counter         1    0[BANK0 ] unsigned char 
  8825 ;; Return value:  Size  Location     Type
  8826 ;;                  2    3[COMMON] unsigned int 
  8827 ;; Registers used:
  8828 ;;		wreg, status,2, status,0
  8829 ;; Tracked objects:
  8830 ;;		On entry : 0/0
  8831 ;;		On exit  : 0/0
  8832 ;;		Unchanged: 0/0
  8833 ;; Data sizes:     COMMON   BANK0   BANK1   BANK3   BANK2
  8834 ;;      Params:         4       0       0       0       0
  8835 ;;      Locals:         0       3       0       0       0
  8836 ;;      Temps:          1       0       0       0       0
  8837 ;;      Totals:         5       3       0       0       0
  8838 ;;Total ram usage:        8 bytes
  8839 ;; Hardware stack levels used: 1
  8840 ;; Hardware stack levels required when called: 1
  8841 ;; This function calls:
  8842 ;;		Nothing
  8843 ;; This function is called by:
  8844 ;;		_display_dash_board
  8845 ;;		_log_car_event
  8846 ;; This function uses a non-reentrant model
  8847 ;;
  8848                           
  8849                           
  8850                           ;psect for function ___lwdiv
  8851  1EBE                     ___lwdiv:
  8852  1EBE                     l4908:	
  8853                           ;incstack = 0
  8854                           ; Regs used in ___lwdiv: [wreg+status,2+status,0]
  8855                           
  8856  1EBE  1283               	bcf	3,5	;RP0=0, select bank0
  8857  1EBF  1303               	bcf	3,6	;RP1=0, select bank0
  8858  1EC0  01A1               	clrf	___lwdiv@quotient
  8859  1EC1  01A2               	clrf	___lwdiv@quotient+1
  8860  1EC2                     l4910:
  8861  1EC2  0873               	movf	___lwdiv@divisor,w
  8862  1EC3  0474               	iorwf	___lwdiv@divisor+1,w
  8863  1EC4  1903               	btfsc	3,2
  8864  1EC5  2EC7               	goto	u5491
  8865  1EC6  2EC8               	goto	u5490
  8866  1EC7                     u5491:
  8867  1EC7  2EFF               	goto	l4930
  8868  1EC8                     u5490:
  8869  1EC8                     l4912:
  8870  1EC8  01A0               	clrf	___lwdiv@counter
  8871  1EC9  0AA0               	incf	___lwdiv@counter,f
  8872  1ECA  2ED6               	goto	l4918
  8873  1ECB                     l4914:
  8874  1ECB  3001               	movlw	1
  8875  1ECC                     u5505:
  8876  1ECC  1003               	clrc
  8877  1ECD  0DF3               	rlf	___lwdiv@divisor,f
  8878  1ECE  0DF4               	rlf	___lwdiv@divisor+1,f
  8879  1ECF  3EFF               	addlw	-1
  8880  1ED0  1D03               	skipz
  8881  1ED1  2ECC               	goto	u5505
  8882  1ED2                     l4916:
  8883  1ED2  3001               	movlw	1
  8884  1ED3  00F7               	movwf	??___lwdiv
  8885  1ED4  0877               	movf	??___lwdiv,w
  8886  1ED5  07A0               	addwf	___lwdiv@counter,f
  8887  1ED6                     l4918:
  8888  1ED6  1FF4               	btfss	___lwdiv@divisor+1,7
  8889  1ED7  2ED9               	goto	u5511
  8890  1ED8  2EDA               	goto	u5510
  8891  1ED9                     u5511:
  8892  1ED9  2ECB               	goto	l4914
  8893  1EDA                     u5510:
  8894  1EDA                     l4920:
  8895  1EDA  3001               	movlw	1
  8896  1EDB                     u5525:
  8897  1EDB  1003               	clrc
  8898  1EDC  0DA1               	rlf	___lwdiv@quotient,f
  8899  1EDD  0DA2               	rlf	___lwdiv@quotient+1,f
  8900  1EDE  3EFF               	addlw	-1
  8901  1EDF  1D03               	skipz
  8902  1EE0  2EDB               	goto	u5525
  8903  1EE1  0874               	movf	___lwdiv@divisor+1,w
  8904  1EE2  0276               	subwf	___lwdiv@dividend+1,w
  8905  1EE3  1D03               	skipz
  8906  1EE4  2EE7               	goto	u5535
  8907  1EE5  0873               	movf	___lwdiv@divisor,w
  8908  1EE6  0275               	subwf	___lwdiv@dividend,w
  8909  1EE7                     u5535:
  8910  1EE7  1C03               	skipc
  8911  1EE8  2EEA               	goto	u5531
  8912  1EE9  2EEB               	goto	u5530
  8913  1EEA                     u5531:
  8914  1EEA  2EF2               	goto	l4926
  8915  1EEB                     u5530:
  8916  1EEB                     l4922:
  8917  1EEB  0873               	movf	___lwdiv@divisor,w
  8918  1EEC  02F5               	subwf	___lwdiv@dividend,f
  8919  1EED  0874               	movf	___lwdiv@divisor+1,w
  8920  1EEE  1C03               	skipc
  8921  1EEF  03F6               	decf	___lwdiv@dividend+1,f
  8922  1EF0  02F6               	subwf	___lwdiv@dividend+1,f
  8923  1EF1                     l4924:
  8924  1EF1  1421               	bsf	___lwdiv@quotient,0
  8925  1EF2                     l4926:
  8926  1EF2  3001               	movlw	1
  8927  1EF3                     u5545:
  8928  1EF3  1003               	clrc
  8929  1EF4  0CF4               	rrf	___lwdiv@divisor+1,f
  8930  1EF5  0CF3               	rrf	___lwdiv@divisor,f
  8931  1EF6  3EFF               	addlw	-1
  8932  1EF7  1D03               	skipz
  8933  1EF8  2EF3               	goto	u5545
  8934  1EF9                     l4928:
  8935  1EF9  3001               	movlw	1
  8936  1EFA  02A0               	subwf	___lwdiv@counter,f
  8937  1EFB  1D03               	btfss	3,2
  8938  1EFC  2EFE               	goto	u5551
  8939  1EFD  2EFF               	goto	u5550
  8940  1EFE                     u5551:
  8941  1EFE  2EDA               	goto	l4920
  8942  1EFF                     u5550:
  8943  1EFF                     l4930:
  8944  1EFF  0822               	movf	___lwdiv@quotient+1,w
  8945  1F00  00F4               	movwf	?___lwdiv+1
  8946  1F01  0821               	movf	___lwdiv@quotient,w
  8947  1F02  00F3               	movwf	?___lwdiv
  8948  1F03                     l981:
  8949  1F03  0008               	return
  8950  1F04                     __end_of___lwdiv:
  8951                           
  8952                           	psect	text33
  8953  1E7F                     __ptext33:	
  8954 ;; *************** function _clear_log *****************
  8955 ;; Defined at:
  8956 ;;		line 314 in file "helper.c"
  8957 ;; Parameters:    Size  Location     Type
  8958 ;;  reset_memory    1    wreg     unsigned char 
  8959 ;; Auto vars:     Size  Location     Type
  8960 ;;  reset_memory    1    8[COMMON] unsigned char 
  8961 ;; Return value:  Size  Location     Type
  8962 ;;                  1    wreg      unsigned char 
  8963 ;; Registers used:
  8964 ;;		wreg, fsr0l, fsr0h, status,2, status,0, btemp+1, pclath, cstack
  8965 ;; Tracked objects:
  8966 ;;		On entry : 0/0
  8967 ;;		On exit  : 0/0
  8968 ;;		Unchanged: 0/0
  8969 ;; Data sizes:     COMMON   BANK0   BANK1   BANK3   BANK2
  8970 ;;      Params:         0       0       0       0       0
  8971 ;;      Locals:         1       0       0       0       0
  8972 ;;      Temps:          1       0       0       0       0
  8973 ;;      Totals:         2       0       0       0       0
  8974 ;;Total ram usage:        2 bytes
  8975 ;; Hardware stack levels used: 1
  8976 ;; Hardware stack levels required when called: 3
  8977 ;; This function calls:
  8978 ;;		_clcd_print
  8979 ;; This function is called by:
  8980 ;;		_main
  8981 ;; This function uses a non-reentrant model
  8982 ;;
  8983                           
  8984                           
  8985                           ;psect for function _clear_log
  8986  1E7F                     _clear_log:
  8987                           
  8988                           ;incstack = 0
  8989                           ; Regs used in _clear_log: [wreg-fsr0h+status,2+status,0+btemp+1+pclath+cstack]
  8990                           ;clear_log@reset_memory stored from wreg
  8991  1E7F  00F8               	movwf	clear_log@reset_memory
  8992  1E80                     l5240:
  8993                           
  8994                           ;helper.c: 314: char clear_log (unsigned char reset_memory);helper.c: 315: {;helper.c: 3
      +                          16:     if (reset_memory == 0x04)
  8995  1E80  3004               	movlw	4
  8996  1E81  0678               	xorwf	clear_log@reset_memory,w
  8997  1E82  1D03               	btfss	3,2
  8998  1E83  2E85               	goto	u6041
  8999  1E84  2E86               	goto	u6040
  9000  1E85                     u6041:
  9001  1E85  2EBC               	goto	l5252
  9002  1E86                     u6040:
  9003  1E86                     l5242:
  9004                           
  9005                           ;helper.c: 317:     {;helper.c: 318:         clcd_print("CLEAR LOG", (0x80 + (2)));
  9006  1E86  3033               	movlw	low (STR_13| (0+32768))
  9007  1E87  1283               	bcf	3,5	;RP0=0, select bank0
  9008  1E88  1303               	bcf	3,6	;RP1=0, select bank0
  9009  1E89  00A0               	movwf	clcd_print@data
  9010  1E8A  3091               	movlw	high (STR_13| (0+32768))
  9011  1E8B  00A1               	movwf	clcd_print@data+1
  9012  1E8C  3082               	movlw	130
  9013  1E8D  00F7               	movwf	??_clear_log
  9014  1E8E  0877               	movf	??_clear_log,w
  9015  1E8F  00A2               	movwf	clcd_print@addr
  9016  1E90  160A  158A  256E  160A  158A  	fcall	_clcd_print
  9017                           
  9018                           ;helper.c: 319:         clcd_print("Successful", (0xC0 + (2)));
  9019  1E95  3028               	movlw	low (STR_14| (0+32768))
  9020  1E96  1283               	bcf	3,5	;RP0=0, select bank0
  9021  1E97  1303               	bcf	3,6	;RP1=0, select bank0
  9022  1E98  00A0               	movwf	clcd_print@data
  9023  1E99  3091               	movlw	high (STR_14| (0+32768))
  9024  1E9A  00A1               	movwf	clcd_print@data+1
  9025  1E9B  30C2               	movlw	194
  9026  1E9C  00F7               	movwf	??_clear_log
  9027  1E9D  0877               	movf	??_clear_log,w
  9028  1E9E  00A2               	movwf	clcd_print@addr
  9029  1E9F  160A  158A  256E  160A  158A  	fcall	_clcd_print
  9030  1EA4                     l5244:
  9031                           
  9032                           ;helper.c: 320:         sec = 3;
  9033  1EA4  3003               	movlw	3
  9034  1EA5  1283               	bcf	3,5	;RP0=0, select bank0
  9035  1EA6  1303               	bcf	3,6	;RP1=0, select bank0
  9036  1EA7  00DE               	movwf	_sec
  9037  1EA8  3000               	movlw	0
  9038  1EA9  00DF               	movwf	_sec+1
  9039  1EAA                     l5246:	
  9040                           ;helper.c: 321:         while(sec);
  9041                           
  9042  1EAA  085E               	movf	_sec,w
  9043  1EAB  045F               	iorwf	_sec+1,w
  9044  1EAC  1D03               	btfss	3,2
  9045  1EAD  2EAF               	goto	u6051
  9046  1EAE  2EB0               	goto	u6050
  9047  1EAF                     u6051:
  9048  1EAF  2EAA               	goto	l5246
  9049  1EB0                     u6050:
  9050  1EB0                     l5248:
  9051                           
  9052                           ;helper.c: 322:         pos = -1;
  9053  1EB0  30FF               	movlw	255
  9054  1EB1  1683               	bsf	3,5	;RP0=1, select bank1
  9055  1EB2  1303               	bcf	3,6	;RP1=0, select bank1
  9056  1EB3  00EC               	movwf	_pos^(0+128)
  9057  1EB4  30FF               	movlw	255
  9058  1EB5  00ED               	movwf	(_pos^(0+128)+1)
  9059                           
  9060                           ;helper.c: 323:         access = -1;
  9061  1EB6  30FF               	movlw	255
  9062  1EB7  00EA               	movwf	_access^(0+128)
  9063  1EB8  30FF               	movlw	255
  9064  1EB9  00EB               	movwf	(_access^(0+128)+1)
  9065                           
  9066                           ;helper.c: 324:         return 0x11;
  9067  1EBA  3011               	movlw	17
  9068  1EBB  2EBD               	goto	l279
  9069  1EBC                     l5252:
  9070                           
  9071                           ;helper.c: 326:     return 0x22;
  9072  1EBC  3022               	movlw	34
  9073  1EBD                     l279:
  9074  1EBD  0008               	return
  9075  1EBE                     __end_of_clear_log:
  9076                           
  9077                           	psect	text34
  9078  15B0                     __ptext34:	
  9079 ;; *************** function _change_password *****************
  9080 ;; Defined at:
  9081 ;;		line 459 in file "helper.c"
  9082 ;; Parameters:    Size  Location     Type
  9083 ;;  key             1    wreg     unsigned char 
  9084 ;;  reset_pwd       1   12[BANK0 ] unsigned char 
  9085 ;; Auto vars:     Size  Location     Type
  9086 ;;  key             1   14[BANK0 ] unsigned char 
  9087 ;; Return value:  Size  Location     Type
  9088 ;;                  1    wreg      unsigned char 
  9089 ;; Registers used:
  9090 ;;		wreg, fsr0l, fsr0h, status,2, status,0, btemp+1, pclath, cstack
  9091 ;; Tracked objects:
  9092 ;;		On entry : 0/0
  9093 ;;		On exit  : 0/0
  9094 ;;		Unchanged: 0/0
  9095 ;; Data sizes:     COMMON   BANK0   BANK1   BANK3   BANK2
  9096 ;;      Params:         0       1       0       0       0
  9097 ;;      Locals:         0       1       0       0       0
  9098 ;;      Temps:          0       1       0       0       0
  9099 ;;      Totals:         0       3       0       0       0
  9100 ;;Total ram usage:        3 bytes
  9101 ;; Hardware stack levels used: 1
  9102 ;; Hardware stack levels required when called: 6
  9103 ;; This function calls:
  9104 ;;		_clcd_putch
  9105 ;;		_confirm_change_password
  9106 ;;		_get_password
  9107 ;; This function is called by:
  9108 ;;		_main
  9109 ;; This function uses a non-reentrant model
  9110 ;;
  9111                           
  9112                           
  9113                           ;psect for function _change_password
  9114  15B0                     _change_password:
  9115                           
  9116                           ;incstack = 0
  9117                           ; Regs used in _change_password: [wreg-fsr0h+status,2+status,0+btemp+1+pclath+cstack]
  9118                           ;change_password@key stored from wreg
  9119  15B0  1283               	bcf	3,5	;RP0=0, select bank0
  9120  15B1  1303               	bcf	3,6	;RP1=0, select bank0
  9121  15B2  00AE               	movwf	change_password@key
  9122  15B3                     l6328:
  9123                           
  9124                           ;helper.c: 459: char change_password(unsigned char key, char reset_pwd );helper.c: 460: 
      +                          {;helper.c: 461:  static unsigned char r_password[5];;helper.c: 462:     static unsigned
      +                           int i;;helper.c: 463:     if (reset_pwd == 0x01)
  9125  15B3  032C               	decf	change_password@reset_pwd,w
  9126  15B4  1D03               	btfss	3,2
  9127  15B5  2DB7               	goto	u7621
  9128  15B6  2DB8               	goto	u7620
  9129  15B7                     u7621:
  9130  15B7  2DD7               	goto	l6342
  9131  15B8                     u7620:
  9132  15B8                     l6330:
  9133                           
  9134                           ;helper.c: 464:     {;helper.c: 465:         r_password[0] = 0;
  9135  15B8  1683               	bsf	3,5	;RP0=1, select bank1
  9136  15B9  1303               	bcf	3,6	;RP1=0, select bank1
  9137  15BA  01CD               	clrf	change_password@r_password^(0+128)
  9138                           
  9139                           ;helper.c: 466:         r_password[1] = 0;
  9140  15BB  01CE               	clrf	(change_password@r_password^(0+128)+1)
  9141                           
  9142                           ;helper.c: 467:         r_password[2] = 0;
  9143  15BC  01CF               	clrf	(change_password@r_password^(0+128)+2)
  9144                           
  9145                           ;helper.c: 468:         r_password[3] = 0;
  9146  15BD  01D0               	clrf	(change_password@r_password^(0+128)+3)
  9147                           
  9148                           ;helper.c: 469:         r_password[4] = 0;
  9149  15BE  01D1               	clrf	(change_password@r_password^(0+128)+4)
  9150                           
  9151                           ;helper.c: 471:         i = 0;
  9152  15BF  1283               	bcf	3,5	;RP0=0, select bank0
  9153  15C0  1303               	bcf	3,6	;RP1=0, select bank0
  9154  15C1  01DA               	clrf	change_password@i
  9155  15C2  01DB               	clrf	change_password@i+1
  9156  15C3                     l6332:
  9157                           
  9158                           ;helper.c: 472:         return_time = 5;
  9159  15C3  3005               	movlw	5
  9160  15C4  1683               	bsf	3,5	;RP0=1, select bank1
  9161  15C5  1303               	bcf	3,6	;RP1=0, select bank1
  9162  15C6  00AE               	movwf	_return_time^(0+128)
  9163  15C7  3000               	movlw	0
  9164  15C8  00AF               	movwf	(_return_time^(0+128)+1)
  9165  15C9                     l6334:
  9166                           
  9167                           ;helper.c: 473:         sec = 0;
  9168  15C9  1283               	bcf	3,5	;RP0=0, select bank0
  9169  15CA  1303               	bcf	3,6	;RP1=0, select bank0
  9170  15CB  01DE               	clrf	_sec
  9171  15CC  01DF               	clrf	_sec+1
  9172  15CD                     l6336:
  9173                           
  9174                           ;helper.c: 474:         key = 0x00;
  9175  15CD  01AE               	clrf	change_password@key
  9176  15CE                     l6338:
  9177                           
  9178                           ;helper.c: 475:         get_password();
  9179  15CE  120A  118A  27D7  160A  118A  	fcall	_get_password
  9180  15D3                     l6340:
  9181                           
  9182                           ;helper.c: 477:         flag = 0;
  9183  15D3  1683               	bsf	3,5	;RP0=1, select bank1
  9184  15D4  1303               	bcf	3,6	;RP1=0, select bank1
  9185  15D5  01AC               	clrf	_flag^(0+128)
  9186  15D6  01AD               	clrf	(_flag+1)^(0+128)
  9187  15D7                     l6342:
  9188                           
  9189                           ;helper.c: 480:     if (!return_time)
  9190  15D7  1683               	bsf	3,5	;RP0=1, select bank1
  9191  15D8  1303               	bcf	3,6	;RP1=0, select bank1
  9192  15D9  082E               	movf	_return_time^(0+128),w
  9193  15DA  042F               	iorwf	(_return_time+1)^(0+128),w
  9194  15DB  1D03               	btfss	3,2
  9195  15DC  2DDE               	goto	u7631
  9196  15DD  2DDF               	goto	u7630
  9197  15DE                     u7631:
  9198  15DE  2DE1               	goto	l6348
  9199  15DF                     u7630:
  9200  15DF                     l6344:
  9201                           
  9202                           ;helper.c: 481:     {;helper.c: 482:         return 0x02;
  9203  15DF  3002               	movlw	2
  9204  15E0  2E54               	goto	l349
  9205  15E1                     l6348:
  9206                           
  9207                           ;helper.c: 485:     if (i < 4 && key == 0x37)
  9208  15E1  3000               	movlw	0
  9209  15E2  1283               	bcf	3,5	;RP0=0, select bank0
  9210  15E3  1303               	bcf	3,6	;RP1=0, select bank0
  9211  15E4  025B               	subwf	change_password@i+1,w
  9212  15E5  3004               	movlw	4
  9213  15E6  1903               	skipnz
  9214  15E7  025A               	subwf	change_password@i,w
  9215  15E8  1803               	skipnc
  9216  15E9  2DEB               	goto	u7641
  9217  15EA  2DEC               	goto	u7640
  9218  15EB                     u7641:
  9219  15EB  2E16               	goto	l6360
  9220  15EC                     u7640:
  9221  15EC                     l6350:
  9222  15EC  3037               	movlw	55
  9223  15ED  062E               	xorwf	change_password@key,w
  9224  15EE  1D03               	btfss	3,2
  9225  15EF  2DF1               	goto	u7651
  9226  15F0  2DF2               	goto	u7650
  9227  15F1                     u7651:
  9228  15F1  2E16               	goto	l6360
  9229  15F2                     u7650:
  9230  15F2                     l6352:
  9231                           
  9232                           ;helper.c: 486:     {;helper.c: 487:         return_time = 5;
  9233  15F2  3005               	movlw	5
  9234  15F3  1683               	bsf	3,5	;RP0=1, select bank1
  9235  15F4  1303               	bcf	3,6	;RP1=0, select bank1
  9236  15F5  00AE               	movwf	_return_time^(0+128)
  9237  15F6  3000               	movlw	0
  9238  15F7  00AF               	movwf	(_return_time^(0+128)+1)
  9239  15F8                     l6354:
  9240                           
  9241                           ;helper.c: 488:         r_password[i] = '0';
  9242  15F8  3030               	movlw	48
  9243  15F9  1283               	bcf	3,5	;RP0=0, select bank0
  9244  15FA  1303               	bcf	3,6	;RP1=0, select bank0
  9245  15FB  00AD               	movwf	??_change_password
  9246  15FC  085A               	movf	change_password@i,w
  9247  15FD  3ECD               	addlw	(low (change_password@r_password| 0))& (0+255)
  9248  15FE  0084               	movwf	4
  9249  15FF  082D               	movf	??_change_password,w
  9250  1600  1383               	bcf	3,7	;select IRP bank1
  9251  1601  0080               	movwf	0
  9252  1602                     l6356:
  9253                           
  9254                           ;helper.c: 489:         clcd_putch('*', (0xC0 + (i+6)));
  9255  1602  085A               	movf	change_password@i,w
  9256  1603  3EC6               	addlw	198
  9257  1604  00AD               	movwf	??_change_password
  9258  1605  082D               	movf	??_change_password,w
  9259  1606  00A4               	movwf	clcd_putch@addr
  9260  1607  302A               	movlw	42
  9261  1608  160A  158A  2355  160A  118A  	fcall	_clcd_putch
  9262  160D                     l6358:
  9263                           
  9264                           ;helper.c: 490:         i++;
  9265  160D  3001               	movlw	1
  9266  160E  1283               	bcf	3,5	;RP0=0, select bank0
  9267  160F  1303               	bcf	3,6	;RP1=0, select bank0
  9268  1610  07DA               	addwf	change_password@i,f
  9269  1611  1803               	skipnc
  9270  1612  0ADB               	incf	change_password@i+1,f
  9271  1613  3000               	movlw	0
  9272  1614  07DB               	addwf	change_password@i+1,f
  9273                           
  9274                           ;helper.c: 491:     }
  9275  1615  2E53               	goto	l6378
  9276  1616                     l6360:
  9277  1616  3000               	movlw	0
  9278  1617  025B               	subwf	change_password@i+1,w
  9279  1618  3004               	movlw	4
  9280  1619  1903               	skipnz
  9281  161A  025A               	subwf	change_password@i,w
  9282  161B  1803               	skipnc
  9283  161C  2E1E               	goto	u7661
  9284  161D  2E1F               	goto	u7660
  9285  161E                     u7661:
  9286  161E  2E41               	goto	l6372
  9287  161F                     u7660:
  9288  161F                     l6362:
  9289  161F  302F               	movlw	47
  9290  1620  062E               	xorwf	change_password@key,w
  9291  1621  1D03               	btfss	3,2
  9292  1622  2E24               	goto	u7671
  9293  1623  2E25               	goto	u7670
  9294  1624                     u7671:
  9295  1624  2E41               	goto	l6372
  9296  1625                     u7670:
  9297  1625                     l6364:
  9298                           
  9299                           ;helper.c: 493:     {;helper.c: 494:         return_time = 5;
  9300  1625  3005               	movlw	5
  9301  1626  1683               	bsf	3,5	;RP0=1, select bank1
  9302  1627  1303               	bcf	3,6	;RP1=0, select bank1
  9303  1628  00AE               	movwf	_return_time^(0+128)
  9304  1629  3000               	movlw	0
  9305  162A  00AF               	movwf	(_return_time^(0+128)+1)
  9306  162B                     l6366:
  9307                           
  9308                           ;helper.c: 495:         r_password[i] = '1';
  9309  162B  3031               	movlw	49
  9310  162C  1283               	bcf	3,5	;RP0=0, select bank0
  9311  162D  1303               	bcf	3,6	;RP1=0, select bank0
  9312  162E  00AD               	movwf	??_change_password
  9313  162F  085A               	movf	change_password@i,w
  9314  1630  3ECD               	addlw	(low (change_password@r_password| 0))& (0+255)
  9315  1631  0084               	movwf	4
  9316  1632  082D               	movf	??_change_password,w
  9317  1633  1383               	bcf	3,7	;select IRP bank1
  9318  1634  0080               	movwf	0
  9319  1635                     l6368:
  9320                           
  9321                           ;helper.c: 496:         clcd_putch('*', (0xC0 + (i+6)));
  9322  1635  085A               	movf	change_password@i,w
  9323  1636  3EC6               	addlw	198
  9324  1637  00AD               	movwf	??_change_password
  9325  1638  082D               	movf	??_change_password,w
  9326  1639  00A4               	movwf	clcd_putch@addr
  9327  163A  302A               	movlw	42
  9328  163B  160A  158A  2355  160A  118A  	fcall	_clcd_putch
  9329  1640  2E0D               	goto	l6358
  9330  1641                     l6372:
  9331  1641  3004               	movlw	4
  9332  1642  065A               	xorwf	change_password@i,w
  9333  1643  045B               	iorwf	change_password@i+1,w
  9334  1644  1D03               	btfss	3,2
  9335  1645  2E47               	goto	u7681
  9336  1646  2E48               	goto	u7680
  9337  1647                     u7681:
  9338  1647  2E53               	goto	l6378
  9339  1648                     u7680:
  9340  1648                     l6374:
  9341                           
  9342                           ;helper.c: 500:     {;helper.c: 502:        return confirm_change_password(key, r_passwo
      +                          rd);
  9343  1648  30CD               	movlw	(low (change_password@r_password| 0))& (0+255)
  9344  1649  00AD               	movwf	??_change_password
  9345  164A  082D               	movf	??_change_password,w
  9346  164B  00A6               	movwf	confirm_change_password@changed_password
  9347  164C  082E               	movf	change_password@key,w
  9348  164D  120A  158A  2601  160A  118A  	fcall	_confirm_change_password
  9349  1652  2E54               	goto	l349
  9350  1653                     l6378:
  9351                           
  9352                           ;helper.c: 505:     return 0x10;
  9353  1653  3010               	movlw	16
  9354  1654                     l349:
  9355  1654  0008               	return
  9356  1655                     __end_of_change_password:
  9357                           
  9358                           	psect	text35
  9359  07D7                     __ptext35:	
  9360 ;; *************** function _get_password *****************
  9361 ;; Defined at:
  9362 ;;		line 73 in file "helper.c"
  9363 ;; Parameters:    Size  Location     Type
  9364 ;;		None
  9365 ;; Auto vars:     Size  Location     Type
  9366 ;;  i               2   10[BANK0 ] int 
  9367 ;; Return value:  Size  Location     Type
  9368 ;;                  1    wreg      void 
  9369 ;; Registers used:
  9370 ;;		wreg, fsr0l, fsr0h, status,2, status,0, btemp+1, pclath, cstack
  9371 ;; Tracked objects:
  9372 ;;		On entry : 0/0
  9373 ;;		On exit  : 0/0
  9374 ;;		Unchanged: 0/0
  9375 ;; Data sizes:     COMMON   BANK0   BANK1   BANK3   BANK2
  9376 ;;      Params:         0       0       0       0       0
  9377 ;;      Locals:         0       2       0       0       0
  9378 ;;      Temps:          0       1       0       0       0
  9379 ;;      Totals:         0       3       0       0       0
  9380 ;;Total ram usage:        3 bytes
  9381 ;; Hardware stack levels used: 1
  9382 ;; Hardware stack levels required when called: 4
  9383 ;; This function calls:
  9384 ;;		_eeprom_at24c04_random_read
  9385 ;; This function is called by:
  9386 ;;		_login
  9387 ;;		_change_password
  9388 ;; This function uses a non-reentrant model
  9389 ;;
  9390                           
  9391                           
  9392                           ;psect for function _get_password
  9393  07D7                     _get_password:
  9394  07D7                     l4700:	
  9395                           ;incstack = 0
  9396                           ; Regs used in _get_password: [wreg-fsr0h+status,2+status,0+btemp+1+pclath+cstack]
  9397                           
  9398                           
  9399                           ;helper.c: 76:  for (int i = 0; i < 4; i++)
  9400  07D7  1283               	bcf	3,5	;RP0=0, select bank0
  9401  07D8  1303               	bcf	3,6	;RP1=0, select bank0
  9402  07D9  01AA               	clrf	get_password@i
  9403  07DA  01AB               	clrf	get_password@i+1
  9404  07DB                     l4706:
  9405                           
  9406                           ;helper.c: 77:     {;helper.c: 78:         spassword[i] = eeprom_at24c04_random_read(i);
  9407  07DB  1283               	bcf	3,5	;RP0=0, select bank0
  9408  07DC  1303               	bcf	3,6	;RP1=0, select bank0
  9409  07DD  082A               	movf	get_password@i,w
  9410  07DE  160A  158A  25D5  120A  118A  	fcall	_eeprom_at24c04_random_read
  9411  07E3  1283               	bcf	3,5	;RP0=0, select bank0
  9412  07E4  1303               	bcf	3,6	;RP1=0, select bank0
  9413  07E5  00A9               	movwf	??_get_password
  9414  07E6  082A               	movf	get_password@i,w
  9415  07E7  3ED2               	addlw	(low (_spassword| 0))& (0+255)
  9416  07E8  0084               	movwf	4
  9417  07E9  0829               	movf	??_get_password,w
  9418  07EA  1383               	bcf	3,7	;select IRP bank1
  9419  07EB  0080               	movwf	0
  9420  07EC                     l4708:
  9421                           
  9422                           ;helper.c: 79:     }
  9423  07EC  3001               	movlw	1
  9424  07ED  07AA               	addwf	get_password@i,f
  9425  07EE  1803               	skipnc
  9426  07EF  0AAB               	incf	get_password@i+1,f
  9427  07F0  3000               	movlw	0
  9428  07F1  07AB               	addwf	get_password@i+1,f
  9429  07F2                     l4710:
  9430  07F2  082B               	movf	get_password@i+1,w
  9431  07F3  3A80               	xorlw	128
  9432  07F4  00FF               	movwf	btemp+1
  9433  07F5  3080               	movlw	128
  9434  07F6  027F               	subwf	btemp+1,w
  9435  07F7  1D03               	skipz
  9436  07F8  2FFB               	goto	u5255
  9437  07F9  3004               	movlw	4
  9438  07FA  022A               	subwf	get_password@i,w
  9439  07FB                     u5255:
  9440  07FB  1C03               	skipc
  9441  07FC  2FFE               	goto	u5251
  9442  07FD  2FFF               	goto	u5250
  9443  07FE                     u5251:
  9444  07FE  2FDB               	goto	l4706
  9445  07FF                     u5250:
  9446  07FF                     l206:
  9447  07FF  0008               	return
  9448  0800                     __end_of_get_password:
  9449                           
  9450                           	psect	text36
  9451  1DD5                     __ptext36:	
  9452 ;; *************** function _eeprom_at24c04_random_read *****************
  9453 ;; Defined at:
  9454 ;;		line 4 in file "at24c04.c"
  9455 ;; Parameters:    Size  Location     Type
  9456 ;;  memory_loc      1    wreg     unsigned char 
  9457 ;; Auto vars:     Size  Location     Type
  9458 ;;  memory_loc      1    7[BANK0 ] unsigned char 
  9459 ;;  received_dat    1    8[BANK0 ] unsigned char 
  9460 ;; Return value:  Size  Location     Type
  9461 ;;                  1    wreg      unsigned char 
  9462 ;; Registers used:
  9463 ;;		wreg, status,2, status,0, pclath, cstack
  9464 ;; Tracked objects:
  9465 ;;		On entry : 0/0
  9466 ;;		On exit  : 0/0
  9467 ;;		Unchanged: 0/0
  9468 ;; Data sizes:     COMMON   BANK0   BANK1   BANK3   BANK2
  9469 ;;      Params:         0       0       0       0       0
  9470 ;;      Locals:         0       2       0       0       0
  9471 ;;      Temps:          0       1       0       0       0
  9472 ;;      Totals:         0       3       0       0       0
  9473 ;;Total ram usage:        3 bytes
  9474 ;; Hardware stack levels used: 1
  9475 ;; Hardware stack levels required when called: 3
  9476 ;; This function calls:
  9477 ;;		_i2c_read
  9478 ;;		_i2c_rep_start
  9479 ;;		_i2c_start
  9480 ;;		_i2c_stop
  9481 ;;		_i2c_write
  9482 ;; This function is called by:
  9483 ;;		_get_password
  9484 ;;		_view_log
  9485 ;;		_download_log
  9486 ;; This function uses a non-reentrant model
  9487 ;;
  9488                           
  9489                           
  9490                           ;psect for function _eeprom_at24c04_random_read
  9491  1DD5                     _eeprom_at24c04_random_read:
  9492                           
  9493                           ;incstack = 0
  9494                           ; Regs used in _eeprom_at24c04_random_read: [wreg+status,2+status,0+pclath+cstack]
  9495                           ;eeprom_at24c04_random_read@memory_loc stored from wreg
  9496  1DD5  1283               	bcf	3,5	;RP0=0, select bank0
  9497  1DD6  1303               	bcf	3,6	;RP1=0, select bank0
  9498  1DD7  00A7               	movwf	eeprom_at24c04_random_read@memory_loc
  9499  1DD8                     l4464:
  9500  1DD8                     l4466:
  9501                           
  9502                           ;at24c04.c: 8:  i2c_start();
  9503  1DD8  160A  158A  22B4  160A  158A  	fcall	_i2c_start
  9504  1DDD                     l4468:
  9505                           
  9506                           ;at24c04.c: 9:  i2c_write(0xA0);
  9507  1DDD  30A0               	movlw	160
  9508  1DDE  160A  158A  22CF  160A  158A  	fcall	_i2c_write
  9509  1DE3                     l4470:
  9510                           
  9511                           ;at24c04.c: 10:  i2c_write(memory_loc);
  9512  1DE3  1283               	bcf	3,5	;RP0=0, select bank0
  9513  1DE4  1303               	bcf	3,6	;RP1=0, select bank0
  9514  1DE5  0827               	movf	eeprom_at24c04_random_read@memory_loc,w
  9515  1DE6  160A  158A  22CF  160A  158A  	fcall	_i2c_write
  9516  1DEB                     l4472:
  9517                           
  9518                           ;at24c04.c: 11:  i2c_rep_start();
  9519  1DEB  160A  158A  22C6  160A  158A  	fcall	_i2c_rep_start
  9520  1DF0                     l4474:
  9521                           
  9522                           ;at24c04.c: 12:  i2c_write(0xA1);
  9523  1DF0  30A1               	movlw	161
  9524  1DF1  160A  158A  22CF  160A  158A  	fcall	_i2c_write
  9525  1DF6                     l4476:
  9526                           
  9527                           ;at24c04.c: 13:  received_data = i2c_read(0);
  9528  1DF6  3000               	movlw	0
  9529  1DF7  160A  158A  25A1  160A  158A  	fcall	_i2c_read
  9530  1DFC  1283               	bcf	3,5	;RP0=0, select bank0
  9531  1DFD  1303               	bcf	3,6	;RP1=0, select bank0
  9532  1DFE  0820               	movf	?_i2c_read,w
  9533  1DFF  00A6               	movwf	??_eeprom_at24c04_random_read
  9534  1E00  0826               	movf	??_eeprom_at24c04_random_read,w
  9535  1E01  00A8               	movwf	eeprom_at24c04_random_read@received_data
  9536  1E02                     l4478:
  9537                           
  9538                           ;at24c04.c: 14:  i2c_stop();
  9539  1E02  160A  158A  22BD  160A  158A  	fcall	_i2c_stop
  9540  1E07                     l4480:
  9541                           
  9542                           ;at24c04.c: 16:  return received_data;
  9543  1E07  1283               	bcf	3,5	;RP0=0, select bank0
  9544  1E08  1303               	bcf	3,6	;RP1=0, select bank0
  9545  1E09  0828               	movf	eeprom_at24c04_random_read@received_data,w
  9546  1E0A                     l40:
  9547  1E0A  0008               	return
  9548  1E0B                     __end_of_eeprom_at24c04_random_read:
  9549                           
  9550                           	psect	text37
  9551  1AC6                     __ptext37:	
  9552 ;; *************** function _i2c_rep_start *****************
  9553 ;; Defined at:
  9554 ;;		line 38 in file "i2c.c"
  9555 ;; Parameters:    Size  Location     Type
  9556 ;;		None
  9557 ;; Auto vars:     Size  Location     Type
  9558 ;;		None
  9559 ;; Return value:  Size  Location     Type
  9560 ;;                  1    wreg      void 
  9561 ;; Registers used:
  9562 ;;		wreg, status,2, status,0, pclath, cstack
  9563 ;; Tracked objects:
  9564 ;;		On entry : 0/0
  9565 ;;		On exit  : 0/0
  9566 ;;		Unchanged: 0/0
  9567 ;; Data sizes:     COMMON   BANK0   BANK1   BANK3   BANK2
  9568 ;;      Params:         0       0       0       0       0
  9569 ;;      Locals:         0       0       0       0       0
  9570 ;;      Temps:          0       0       0       0       0
  9571 ;;      Totals:         0       0       0       0       0
  9572 ;;Total ram usage:        0 bytes
  9573 ;; Hardware stack levels used: 1
  9574 ;; Hardware stack levels required when called: 2
  9575 ;; This function calls:
  9576 ;;		_i2c_wait_for_idle
  9577 ;; This function is called by:
  9578 ;;		_eeprom_at24c04_random_read
  9579 ;;		_read_ds1307
  9580 ;; This function uses a non-reentrant model
  9581 ;;
  9582                           
  9583                           
  9584                           ;psect for function _i2c_rep_start
  9585  1AC6                     _i2c_rep_start:
  9586  1AC6                     l4434:	
  9587                           ;incstack = 0
  9588                           ; Regs used in _i2c_rep_start: [wreg+status,2+status,0+pclath+cstack]
  9589                           
  9590                           
  9591                           ;i2c.c: 40:  i2c_wait_for_idle();
  9592  1AC6  160A  158A  23AB  160A  158A  	fcall	_i2c_wait_for_idle
  9593  1ACB                     l4436:
  9594                           
  9595                           ;i2c.c: 41:  RSEN = 1;
  9596  1ACB  1683               	bsf	3,5	;RP0=1, select bank1
  9597  1ACC  1303               	bcf	3,6	;RP1=0, select bank1
  9598  1ACD  1491               	bsf	17,1	;volatile
  9599  1ACE                     l434:
  9600  1ACE  0008               	return
  9601  1ACF                     __end_of_i2c_rep_start:
  9602                           
  9603                           	psect	text38
  9604  1DA1                     __ptext38:	
  9605 ;; *************** function _i2c_read *****************
  9606 ;; Defined at:
  9607 ;;		line 50 in file "i2c.c"
  9608 ;; Parameters:    Size  Location     Type
  9609 ;;  ack             1    wreg     unsigned char 
  9610 ;; Auto vars:     Size  Location     Type
  9611 ;;  ack             1    4[BANK0 ] unsigned char 
  9612 ;;  i2c_read_dat    1    5[BANK0 ] unsigned char 
  9613 ;; Return value:  Size  Location     Type
  9614 ;;                  2    0[BANK0 ] int 
  9615 ;; Registers used:
  9616 ;;		wreg, status,2, status,0, pclath, cstack
  9617 ;; Tracked objects:
  9618 ;;		On entry : 0/0
  9619 ;;		On exit  : 0/0
  9620 ;;		Unchanged: 0/0
  9621 ;; Data sizes:     COMMON   BANK0   BANK1   BANK3   BANK2
  9622 ;;      Params:         0       2       0       0       0
  9623 ;;      Locals:         0       2       0       0       0
  9624 ;;      Temps:          0       2       0       0       0
  9625 ;;      Totals:         0       6       0       0       0
  9626 ;;Total ram usage:        6 bytes
  9627 ;; Hardware stack levels used: 1
  9628 ;; Hardware stack levels required when called: 2
  9629 ;; This function calls:
  9630 ;;		_i2c_wait_for_idle
  9631 ;; This function is called by:
  9632 ;;		_eeprom_at24c04_random_read
  9633 ;;		_read_ds1307
  9634 ;; This function uses a non-reentrant model
  9635 ;;
  9636                           
  9637                           
  9638                           ;psect for function _i2c_read
  9639  1DA1                     _i2c_read:
  9640                           
  9641                           ;incstack = 0
  9642                           ; Regs used in _i2c_read: [wreg+status,2+status,0+pclath+cstack]
  9643                           ;i2c_read@ack stored from wreg
  9644  1DA1  1283               	bcf	3,5	;RP0=0, select bank0
  9645  1DA2  1303               	bcf	3,6	;RP1=0, select bank0
  9646  1DA3  00A4               	movwf	i2c_read@ack
  9647  1DA4                     l4438:
  9648                           
  9649                           ;i2c.c: 50: int i2c_read(unsigned char ack);i2c.c: 51: {;i2c.c: 52:  unsigned char i2c_r
      +                          ead_data;;i2c.c: 54:  i2c_wait_for_idle();
  9650  1DA4  160A  158A  23AB  160A  158A  	fcall	_i2c_wait_for_idle
  9651  1DA9                     l4440:
  9652                           
  9653                           ;i2c.c: 56:  RCEN = 1;
  9654  1DA9  1683               	bsf	3,5	;RP0=1, select bank1
  9655  1DAA  1303               	bcf	3,6	;RP1=0, select bank1
  9656  1DAB  1591               	bsf	17,3	;volatile
  9657                           
  9658                           ;i2c.c: 58:  i2c_wait_for_idle();
  9659  1DAC  160A  158A  23AB  160A  158A  	fcall	_i2c_wait_for_idle
  9660  1DB1                     l4442:
  9661                           
  9662                           ;i2c.c: 60:  i2c_read_data = SSPBUF;
  9663  1DB1  1283               	bcf	3,5	;RP0=0, select bank0
  9664  1DB2  1303               	bcf	3,6	;RP1=0, select bank0
  9665  1DB3  0813               	movf	19,w	;volatile
  9666  1DB4  00A2               	movwf	??_i2c_read
  9667  1DB5  0822               	movf	??_i2c_read,w
  9668  1DB6  00A5               	movwf	i2c_read@i2c_read_data
  9669  1DB7                     l4444:
  9670                           
  9671                           ;i2c.c: 62:  i2c_wait_for_idle();
  9672  1DB7  160A  158A  23AB  160A  158A  	fcall	_i2c_wait_for_idle
  9673  1DBC                     l4446:
  9674                           
  9675                           ;i2c.c: 64:  if (ack)
  9676  1DBC  1283               	bcf	3,5	;RP0=0, select bank0
  9677  1DBD  1303               	bcf	3,6	;RP1=0, select bank0
  9678  1DBE  0824               	movf	i2c_read@ack,w
  9679  1DBF  1903               	btfsc	3,2
  9680  1DC0  2DC2               	goto	u4831
  9681  1DC1  2DC3               	goto	u4830
  9682  1DC2                     u4831:
  9683  1DC2  2DC7               	goto	l440
  9684  1DC3                     u4830:
  9685  1DC3                     l4448:
  9686                           
  9687                           ;i2c.c: 65:  {;i2c.c: 66:   ACKDT = 0;
  9688  1DC3  1683               	bsf	3,5	;RP0=1, select bank1
  9689  1DC4  1303               	bcf	3,6	;RP1=0, select bank1
  9690  1DC5  1291               	bcf	17,5	;volatile
  9691                           
  9692                           ;i2c.c: 67:  }
  9693  1DC6  2DCA               	goto	l441
  9694  1DC7                     l440:	
  9695                           ;i2c.c: 68:  else
  9696                           
  9697                           
  9698                           ;i2c.c: 69:  {;i2c.c: 70:   ACKDT = 1;
  9699  1DC7  1683               	bsf	3,5	;RP0=1, select bank1
  9700  1DC8  1303               	bcf	3,6	;RP1=0, select bank1
  9701  1DC9  1691               	bsf	17,5	;volatile
  9702  1DCA                     l441:	
  9703                           ;i2c.c: 71:  }
  9704                           
  9705                           
  9706                           ;i2c.c: 73:  ACKEN = 1;
  9707  1DCA  1611               	bsf	17,4	;volatile
  9708  1DCB                     l4450:
  9709                           
  9710                           ;i2c.c: 75:  return(i2c_read_data);
  9711  1DCB  1283               	bcf	3,5	;RP0=0, select bank0
  9712  1DCC  1303               	bcf	3,6	;RP1=0, select bank0
  9713  1DCD  0825               	movf	i2c_read@i2c_read_data,w
  9714  1DCE  00A2               	movwf	??_i2c_read
  9715  1DCF  01A3               	clrf	??_i2c_read+1
  9716  1DD0  0822               	movf	??_i2c_read,w
  9717  1DD1  00A0               	movwf	?_i2c_read
  9718  1DD2  0823               	movf	??_i2c_read+1,w
  9719  1DD3  00A1               	movwf	?_i2c_read+1
  9720  1DD4                     l442:
  9721  1DD4  0008               	return
  9722  1DD5                     __end_of_i2c_read:
  9723                           
  9724                           	psect	text39
  9725  0E01                     __ptext39:	
  9726 ;; *************** function _confirm_change_password *****************
  9727 ;; Defined at:
  9728 ;;		line 509 in file "helper.c"
  9729 ;; Parameters:    Size  Location     Type
  9730 ;;  key             1    wreg     unsigned char 
  9731 ;;  changed_pass    1    6[BANK0 ] PTR unsigned char 
  9732 ;;		 -> change_password@r_password(5), 
  9733 ;; Auto vars:     Size  Location     Type
  9734 ;;  key             1    8[BANK0 ] unsigned char 
  9735 ;; Return value:  Size  Location     Type
  9736 ;;                  1    wreg      unsigned char 
  9737 ;; Registers used:
  9738 ;;		wreg, fsr0l, fsr0h, status,2, status,0, btemp+1, pclath, cstack
  9739 ;; Tracked objects:
  9740 ;;		On entry : 0/0
  9741 ;;		On exit  : 0/0
  9742 ;;		Unchanged: 0/0
  9743 ;; Data sizes:     COMMON   BANK0   BANK1   BANK3   BANK2
  9744 ;;      Params:         0       1       0       0       0
  9745 ;;      Locals:         0       1       0       0       0
  9746 ;;      Temps:          0       1       0       0       0
  9747 ;;      Totals:         0       3       0       0       0
  9748 ;;Total ram usage:        3 bytes
  9749 ;; Hardware stack levels used: 1
  9750 ;; Hardware stack levels required when called: 5
  9751 ;; This function calls:
  9752 ;;		___awdiv
  9753 ;;		___awmod
  9754 ;;		_clcd_print
  9755 ;;		_clcd_putch
  9756 ;;		_clcd_write
  9757 ;;		_eeprom_at24c04_str_write
  9758 ;;		_strncmp
  9759 ;; This function is called by:
  9760 ;;		_change_password
  9761 ;; This function uses a non-reentrant model
  9762 ;;
  9763                           
  9764                           
  9765                           ;psect for function _confirm_change_password
  9766  0E01                     _confirm_change_password:
  9767                           
  9768                           ;incstack = 0
  9769                           ; Regs used in _confirm_change_password: [wreg-fsr0h+status,2+status,0+btemp+1+pclath+cs
      +                          tack]
  9770                           ;confirm_change_password@key stored from wreg
  9771  0E01  1283               	bcf	3,5	;RP0=0, select bank0
  9772  0E02  1303               	bcf	3,6	;RP1=0, select bank0
  9773  0E03  00A8               	movwf	confirm_change_password@key
  9774  0E04                     l6114:
  9775                           
  9776                           ;helper.c: 509: char confirm_change_password(unsigned char key, unsigned char* changed_p
      +                          assword);helper.c: 510: {;helper.c: 511:     static unsigned char confirmed_password[5] 
      +                          = {0};;helper.c: 512:     static unsigned int i;;helper.c: 513:     static unsigned char
      +                           attempt_remaining;;helper.c: 514:     if (flag == 0)
  9777  0E04  1683               	bsf	3,5	;RP0=1, select bank1
  9778  0E05  1303               	bcf	3,6	;RP1=0, select bank1
  9779  0E06  082C               	movf	_flag^(0+128),w
  9780  0E07  042D               	iorwf	(_flag+1)^(0+128),w
  9781  0E08  1D03               	btfss	3,2
  9782  0E09  2E0B               	goto	u7391
  9783  0E0A  2E0C               	goto	u7390
  9784  0E0B                     u7391:
  9785  0E0B  2E50               	goto	l6136
  9786  0E0C                     u7390:
  9787  0E0C                     l6116:
  9788                           
  9789                           ;helper.c: 515:     {;helper.c: 516:         clcd_write(0x01, 0);
  9790  0E0C  01F3               	clrf	clcd_write@mode
  9791  0E0D  3001               	movlw	1
  9792  0E0E  160A  158A  23E0  120A  158A  	fcall	_clcd_write
  9793  0E13                     l6118:
  9794                           
  9795                           ;helper.c: 517:         i = 0;
  9796  0E13  1283               	bcf	3,5	;RP0=0, select bank0
  9797  0E14  1303               	bcf	3,6	;RP1=0, select bank0
  9798  0E15  01D8               	clrf	confirm_change_password@i
  9799  0E16  01D9               	clrf	confirm_change_password@i+1
  9800  0E17                     l6120:
  9801                           
  9802                           ;helper.c: 518:         clcd_print("Confirm Passwrd", (0x80 + (1)));
  9803  0E17  307D               	movlw	low (STR_18| (0+32768))
  9804  0E18  00A0               	movwf	clcd_print@data
  9805  0E19  3090               	movlw	high (STR_18| (0+32768))
  9806  0E1A  00A1               	movwf	clcd_print@data+1
  9807  0E1B  3081               	movlw	129
  9808  0E1C  00A7               	movwf	??_confirm_change_password
  9809  0E1D  0827               	movf	??_confirm_change_password,w
  9810  0E1E  00A2               	movwf	clcd_print@addr
  9811  0E1F  160A  158A  256E  120A  158A  	fcall	_clcd_print
  9812  0E24                     l6122:
  9813                           
  9814                           ;helper.c: 519:         clcd_putch(' ', (0xC0 + (0)));
  9815  0E24  30C0               	movlw	192
  9816  0E25  1283               	bcf	3,5	;RP0=0, select bank0
  9817  0E26  1303               	bcf	3,6	;RP1=0, select bank0
  9818  0E27  00A7               	movwf	??_confirm_change_password
  9819  0E28  0827               	movf	??_confirm_change_password,w
  9820  0E29  00A4               	movwf	clcd_putch@addr
  9821  0E2A  3020               	movlw	32
  9822  0E2B  160A  158A  2355  120A  158A  	fcall	_clcd_putch
  9823  0E30                     l6124:
  9824                           
  9825                           ;helper.c: 520:         clcd_write(0x0F, 0);
  9826  0E30  01F3               	clrf	clcd_write@mode
  9827  0E31  300F               	movlw	15
  9828  0E32  160A  158A  23E0  120A  158A  	fcall	_clcd_write
  9829  0E37                     l6126:
  9830                           
  9831                           ;helper.c: 521:         sec = 0;
  9832  0E37  1283               	bcf	3,5	;RP0=0, select bank0
  9833  0E38  1303               	bcf	3,6	;RP1=0, select bank0
  9834  0E39  01DE               	clrf	_sec
  9835  0E3A  01DF               	clrf	_sec+1
  9836  0E3B                     l6128:
  9837                           
  9838                           ;helper.c: 522:         return_time = 5;
  9839  0E3B  3005               	movlw	5
  9840  0E3C  1683               	bsf	3,5	;RP0=1, select bank1
  9841  0E3D  1303               	bcf	3,6	;RP1=0, select bank1
  9842  0E3E  00AE               	movwf	_return_time^(0+128)
  9843  0E3F  3000               	movlw	0
  9844  0E40  00AF               	movwf	(_return_time^(0+128)+1)
  9845  0E41                     l6130:
  9846                           
  9847                           ;helper.c: 523:         attempt_remaining = '3';
  9848  0E41  3033               	movlw	51
  9849  0E42  1283               	bcf	3,5	;RP0=0, select bank0
  9850  0E43  1303               	bcf	3,6	;RP1=0, select bank0
  9851  0E44  00A7               	movwf	??_confirm_change_password
  9852  0E45  0827               	movf	??_confirm_change_password,w
  9853  0E46  1683               	bsf	3,5	;RP0=1, select bank1
  9854  0E47  1303               	bcf	3,6	;RP1=0, select bank1
  9855  0E48  00B1               	movwf	confirm_change_password@attempt_remaining^(0+128)
  9856  0E49                     l6132:
  9857                           
  9858                           ;helper.c: 524:         flag = 1;
  9859  0E49  3001               	movlw	1
  9860  0E4A  00AC               	movwf	_flag^(0+128)
  9861  0E4B  3000               	movlw	0
  9862  0E4C  00AD               	movwf	(_flag^(0+128)+1)
  9863  0E4D                     l6134:
  9864                           
  9865                           ;helper.c: 525:         key = 0x00;
  9866  0E4D  1283               	bcf	3,5	;RP0=0, select bank0
  9867  0E4E  1303               	bcf	3,6	;RP1=0, select bank0
  9868  0E4F  01A8               	clrf	confirm_change_password@key
  9869  0E50                     l6136:
  9870                           
  9871                           ;helper.c: 528:     if (!return_time)
  9872  0E50  1683               	bsf	3,5	;RP0=1, select bank1
  9873  0E51  1303               	bcf	3,6	;RP1=0, select bank1
  9874  0E52  082E               	movf	_return_time^(0+128),w
  9875  0E53  042F               	iorwf	(_return_time+1)^(0+128),w
  9876  0E54  1D03               	btfss	3,2
  9877  0E55  2E57               	goto	u7401
  9878  0E56  2E58               	goto	u7400
  9879  0E57                     u7401:
  9880  0E57  2E5A               	goto	l6142
  9881  0E58                     u7400:
  9882  0E58                     l6138:
  9883                           
  9884                           ;helper.c: 529:     {;helper.c: 530:         return 0x02;
  9885  0E58  3002               	movlw	2
  9886  0E59  2FFF               	goto	l365
  9887  0E5A                     l6142:
  9888                           
  9889                           ;helper.c: 533:     if (i < 4 && key == 0x37)
  9890  0E5A  3000               	movlw	0
  9891  0E5B  1283               	bcf	3,5	;RP0=0, select bank0
  9892  0E5C  1303               	bcf	3,6	;RP1=0, select bank0
  9893  0E5D  0259               	subwf	confirm_change_password@i+1,w
  9894  0E5E  3004               	movlw	4
  9895  0E5F  1903               	skipnz
  9896  0E60  0258               	subwf	confirm_change_password@i,w
  9897  0E61  1803               	skipnc
  9898  0E62  2E64               	goto	u7411
  9899  0E63  2E65               	goto	u7410
  9900  0E64                     u7411:
  9901  0E64  2E8F               	goto	l6154
  9902  0E65                     u7410:
  9903  0E65                     l6144:
  9904  0E65  3037               	movlw	55
  9905  0E66  0628               	xorwf	confirm_change_password@key,w
  9906  0E67  1D03               	btfss	3,2
  9907  0E68  2E6A               	goto	u7421
  9908  0E69  2E6B               	goto	u7420
  9909  0E6A                     u7421:
  9910  0E6A  2E8F               	goto	l6154
  9911  0E6B                     u7420:
  9912  0E6B                     l6146:
  9913                           
  9914                           ;helper.c: 534:     {;helper.c: 535:         return_time = 5;
  9915  0E6B  3005               	movlw	5
  9916  0E6C  1683               	bsf	3,5	;RP0=1, select bank1
  9917  0E6D  1303               	bcf	3,6	;RP1=0, select bank1
  9918  0E6E  00AE               	movwf	_return_time^(0+128)
  9919  0E6F  3000               	movlw	0
  9920  0E70  00AF               	movwf	(_return_time^(0+128)+1)
  9921  0E71                     l6148:
  9922                           
  9923                           ;helper.c: 536:         confirmed_password[i] = '0';
  9924  0E71  3030               	movlw	48
  9925  0E72  1283               	bcf	3,5	;RP0=0, select bank0
  9926  0E73  1303               	bcf	3,6	;RP1=0, select bank0
  9927  0E74  00A7               	movwf	??_confirm_change_password
  9928  0E75  0858               	movf	confirm_change_password@i,w
  9929  0E76  3EC8               	addlw	(low (confirm_change_password@confirmed_password| 0))& (0+255)
  9930  0E77  0084               	movwf	4
  9931  0E78  0827               	movf	??_confirm_change_password,w
  9932  0E79  1383               	bcf	3,7	;select IRP bank1
  9933  0E7A  0080               	movwf	0
  9934  0E7B                     l6150:
  9935                           
  9936                           ;helper.c: 537:         clcd_putch('*', (0xC0 + (i+6)));
  9937  0E7B  0858               	movf	confirm_change_password@i,w
  9938  0E7C  3EC6               	addlw	198
  9939  0E7D  00A7               	movwf	??_confirm_change_password
  9940  0E7E  0827               	movf	??_confirm_change_password,w
  9941  0E7F  00A4               	movwf	clcd_putch@addr
  9942  0E80  302A               	movlw	42
  9943  0E81  160A  158A  2355  120A  158A  	fcall	_clcd_putch
  9944  0E86                     l6152:
  9945                           
  9946                           ;helper.c: 538:         i++;
  9947  0E86  3001               	movlw	1
  9948  0E87  1283               	bcf	3,5	;RP0=0, select bank0
  9949  0E88  1303               	bcf	3,6	;RP1=0, select bank0
  9950  0E89  07D8               	addwf	confirm_change_password@i,f
  9951  0E8A  1803               	skipnc
  9952  0E8B  0AD9               	incf	confirm_change_password@i+1,f
  9953  0E8C  3000               	movlw	0
  9954  0E8D  07D9               	addwf	confirm_change_password@i+1,f
  9955                           
  9956                           ;helper.c: 539:     }
  9957  0E8E  2FFE               	goto	l6226
  9958  0E8F                     l6154:
  9959  0E8F  3000               	movlw	0
  9960  0E90  0259               	subwf	confirm_change_password@i+1,w
  9961  0E91  3004               	movlw	4
  9962  0E92  1903               	skipnz
  9963  0E93  0258               	subwf	confirm_change_password@i,w
  9964  0E94  1803               	skipnc
  9965  0E95  2E97               	goto	u7431
  9966  0E96  2E98               	goto	u7430
  9967  0E97                     u7431:
  9968  0E97  2EBA               	goto	l6166
  9969  0E98                     u7430:
  9970  0E98                     l6156:
  9971  0E98  302F               	movlw	47
  9972  0E99  0628               	xorwf	confirm_change_password@key,w
  9973  0E9A  1D03               	btfss	3,2
  9974  0E9B  2E9D               	goto	u7441
  9975  0E9C  2E9E               	goto	u7440
  9976  0E9D                     u7441:
  9977  0E9D  2EBA               	goto	l6166
  9978  0E9E                     u7440:
  9979  0E9E                     l6158:
  9980                           
  9981                           ;helper.c: 541:     {;helper.c: 542:         return_time = 5;
  9982  0E9E  3005               	movlw	5
  9983  0E9F  1683               	bsf	3,5	;RP0=1, select bank1
  9984  0EA0  1303               	bcf	3,6	;RP1=0, select bank1
  9985  0EA1  00AE               	movwf	_return_time^(0+128)
  9986  0EA2  3000               	movlw	0
  9987  0EA3  00AF               	movwf	(_return_time^(0+128)+1)
  9988  0EA4                     l6160:
  9989                           
  9990                           ;helper.c: 543:         confirmed_password[i] = '1';
  9991  0EA4  3031               	movlw	49
  9992  0EA5  1283               	bcf	3,5	;RP0=0, select bank0
  9993  0EA6  1303               	bcf	3,6	;RP1=0, select bank0
  9994  0EA7  00A7               	movwf	??_confirm_change_password
  9995  0EA8  0858               	movf	confirm_change_password@i,w
  9996  0EA9  3EC8               	addlw	(low (confirm_change_password@confirmed_password| 0))& (0+255)
  9997  0EAA  0084               	movwf	4
  9998  0EAB  0827               	movf	??_confirm_change_password,w
  9999  0EAC  1383               	bcf	3,7	;select IRP bank1
 10000  0EAD  0080               	movwf	0
 10001  0EAE                     l6162:
 10002                           
 10003                           ;helper.c: 544:         clcd_putch('*', (0xC0 + (i+6)));
 10004  0EAE  0858               	movf	confirm_change_password@i,w
 10005  0EAF  3EC6               	addlw	198
 10006  0EB0  00A7               	movwf	??_confirm_change_password
 10007  0EB1  0827               	movf	??_confirm_change_password,w
 10008  0EB2  00A4               	movwf	clcd_putch@addr
 10009  0EB3  302A               	movlw	42
 10010  0EB4  160A  158A  2355  120A  158A  	fcall	_clcd_putch
 10011  0EB9  2E86               	goto	l6152
 10012  0EBA                     l6166:
 10013  0EBA  3004               	movlw	4
 10014  0EBB  0658               	xorwf	confirm_change_password@i,w
 10015  0EBC  0459               	iorwf	confirm_change_password@i+1,w
 10016  0EBD  1D03               	btfss	3,2
 10017  0EBE  2EC0               	goto	u7451
 10018  0EBF  2EC1               	goto	u7450
 10019  0EC0                     u7451:
 10020  0EC0  2FFE               	goto	l6226
 10021  0EC1                     u7450:
 10022  0EC1                     l6168:
 10023                           
 10024                           ;helper.c: 548:     {;helper.c: 549:         if (strncmp(changed_password, confirmed_pas
      +                          sword, 4) == 0)
 10025  0EC1  30C8               	movlw	(low (confirm_change_password@confirmed_password| 0))& (0+255)
 10026  0EC2  00A7               	movwf	??_confirm_change_password
 10027  0EC3  0827               	movf	??_confirm_change_password,w
 10028  0EC4  00F3               	movwf	strncmp@s2
 10029  0EC5  3004               	movlw	4
 10030  0EC6  00F4               	movwf	strncmp@len
 10031  0EC7  3000               	movlw	0
 10032  0EC8  00F5               	movwf	strncmp@len+1
 10033  0EC9  0826               	movf	confirm_change_password@changed_password,w
 10034  0ECA  160A  158A  2641  120A  158A  	fcall	_strncmp
 10035  0ECF  0873               	movf	?_strncmp,w
 10036  0ED0  0474               	iorwf	?_strncmp+1,w
 10037  0ED1  1D03               	btfss	3,2
 10038  0ED2  2ED4               	goto	u7461
 10039  0ED3  2ED5               	goto	u7460
 10040  0ED4                     u7461:
 10041  0ED4  2F1A               	goto	l6188
 10042  0ED5                     u7460:
 10043  0ED5                     l6170:
 10044                           
 10045                           ;helper.c: 550:         {;helper.c: 551:             clcd_write(0x01, 0);
 10046  0ED5  01F3               	clrf	clcd_write@mode
 10047  0ED6  3001               	movlw	1
 10048  0ED7  160A  158A  23E0  120A  158A  	fcall	_clcd_write
 10049  0EDC                     l6172:
 10050                           
 10051                           ;helper.c: 552:             sec = 3;
 10052  0EDC  3003               	movlw	3
 10053  0EDD  1283               	bcf	3,5	;RP0=0, select bank0
 10054  0EDE  1303               	bcf	3,6	;RP1=0, select bank0
 10055  0EDF  00DE               	movwf	_sec
 10056  0EE0  3000               	movlw	0
 10057  0EE1  00DF               	movwf	_sec+1
 10058  0EE2                     l6174:
 10059                           
 10060                           ;helper.c: 553:             clcd_write(0x0C, 0);
 10061  0EE2  01F3               	clrf	clcd_write@mode
 10062  0EE3  300C               	movlw	12
 10063  0EE4  160A  158A  23E0  120A  158A  	fcall	_clcd_write
 10064                           
 10065                           ;helper.c: 554:             while(sec)
 10066  0EE9  2F06               	goto	l6178
 10067  0EEA                     l6176:
 10068                           
 10069                           ;helper.c: 555:             {;helper.c: 556:                 clcd_print("Password Change
      +                          d", (0x80 + (0)));
 10070  0EEA  306C               	movlw	low (STR_19| (0+32768))
 10071  0EEB  00A0               	movwf	clcd_print@data
 10072  0EEC  3090               	movlw	high (STR_19| (0+32768))
 10073  0EED  00A1               	movwf	clcd_print@data+1
 10074  0EEE  3080               	movlw	128
 10075  0EEF  00A7               	movwf	??_confirm_change_password
 10076  0EF0  0827               	movf	??_confirm_change_password,w
 10077  0EF1  00A2               	movwf	clcd_print@addr
 10078  0EF2  160A  158A  256E  120A  158A  	fcall	_clcd_print
 10079                           
 10080                           ;helper.c: 557:                 clcd_print("Successfully", (0xC0 + (3)));
 10081  0EF7  301B               	movlw	low (STR_20| (0+32768))
 10082  0EF8  1283               	bcf	3,5	;RP0=0, select bank0
 10083  0EF9  1303               	bcf	3,6	;RP1=0, select bank0
 10084  0EFA  00A0               	movwf	clcd_print@data
 10085  0EFB  3091               	movlw	high (STR_20| (0+32768))
 10086  0EFC  00A1               	movwf	clcd_print@data+1
 10087  0EFD  30C3               	movlw	195
 10088  0EFE  00A7               	movwf	??_confirm_change_password
 10089  0EFF  0827               	movf	??_confirm_change_password,w
 10090  0F00  00A2               	movwf	clcd_print@addr
 10091  0F01  160A  158A  256E  120A  158A  	fcall	_clcd_print
 10092  0F06                     l6178:
 10093                           
 10094                           ;helper.c: 554:             while(sec)
 10095  0F06  1283               	bcf	3,5	;RP0=0, select bank0
 10096  0F07  1303               	bcf	3,6	;RP1=0, select bank0
 10097  0F08  085E               	movf	_sec,w
 10098  0F09  045F               	iorwf	_sec+1,w
 10099  0F0A  1D03               	btfss	3,2
 10100  0F0B  2F0D               	goto	u7471
 10101  0F0C  2F0E               	goto	u7470
 10102  0F0D                     u7471:
 10103  0F0D  2EEA               	goto	l6176
 10104  0F0E                     u7470:
 10105  0F0E                     l6180:
 10106                           
 10107                           ;helper.c: 560:             eeprom_at24c04_str_write(0x00, confirmed_password);
 10108  0F0E  30C8               	movlw	(low (confirm_change_password@confirmed_password| 0))& (0+255)
 10109  0F0F  00A7               	movwf	??_confirm_change_password
 10110  0F10  0827               	movf	??_confirm_change_password,w
 10111  0F11  00A2               	movwf	eeprom_at24c04_str_write@data
 10112  0F12  3000               	movlw	0
 10113  0F13  160A  158A  2400  120A  158A  	fcall	_eeprom_at24c04_str_write
 10114  0F18                     l6182:
 10115                           
 10116                           ;helper.c: 561:             return 0x11;
 10117  0F18  3011               	movlw	17
 10118  0F19  2FFF               	goto	l365
 10119  0F1A                     l6188:
 10120                           
 10121                           ;helper.c: 565:         {;helper.c: 567:             if (--attempt_remaining == '0')
 10122  0F1A  3001               	movlw	1
 10123  0F1B  1683               	bsf	3,5	;RP0=1, select bank1
 10124  0F1C  1303               	bcf	3,6	;RP1=0, select bank1
 10125  0F1D  02B1               	subwf	confirm_change_password@attempt_remaining^(0+128),f
 10126  0F1E  3030               	movlw	48
 10127  0F1F  0631               	xorwf	confirm_change_password@attempt_remaining^(0+128),w
 10128  0F20  1D03               	btfss	3,2
 10129  0F21  2F23               	goto	u7481
 10130  0F22  2F24               	goto	u7480
 10131  0F23                     u7481:
 10132  0F23  2F9F               	goto	l6208
 10133  0F24                     u7480:
 10134  0F24                     l6190:
 10135                           
 10136                           ;helper.c: 568:             {;helper.c: 569:                 clcd_write(0x01, 0);
 10137  0F24  01F3               	clrf	clcd_write@mode
 10138  0F25  3001               	movlw	1
 10139  0F26  160A  158A  23E0  120A  158A  	fcall	_clcd_write
 10140  0F2B                     l6192:
 10141                           
 10142                           ;helper.c: 570:                 clcd_print("You are locked", (0x80 + (0)));
 10143  0F2B  30BB               	movlw	low (STR_7| (0+32768))
 10144  0F2C  1283               	bcf	3,5	;RP0=0, select bank0
 10145  0F2D  1303               	bcf	3,6	;RP1=0, select bank0
 10146  0F2E  00A0               	movwf	clcd_print@data
 10147  0F2F  3090               	movlw	high (STR_7| (0+32768))
 10148  0F30  00A1               	movwf	clcd_print@data+1
 10149  0F31  3080               	movlw	128
 10150  0F32  00A7               	movwf	??_confirm_change_password
 10151  0F33  0827               	movf	??_confirm_change_password,w
 10152  0F34  00A2               	movwf	clcd_print@addr
 10153  0F35  160A  158A  256E  120A  158A  	fcall	_clcd_print
 10154  0F3A                     l6194:
 10155                           
 10156                           ;helper.c: 571:                 clcd_print("Wait .. 60 sec", (0xC0 + (0)));
 10157  0F3A  30AC               	movlw	low (STR_8| (0+32768))
 10158  0F3B  1283               	bcf	3,5	;RP0=0, select bank0
 10159  0F3C  1303               	bcf	3,6	;RP1=0, select bank0
 10160  0F3D  00A0               	movwf	clcd_print@data
 10161  0F3E  3090               	movlw	high (STR_8| (0+32768))
 10162  0F3F  00A1               	movwf	clcd_print@data+1
 10163  0F40  30C0               	movlw	192
 10164  0F41  00A7               	movwf	??_confirm_change_password
 10165  0F42  0827               	movf	??_confirm_change_password,w
 10166  0F43  00A2               	movwf	clcd_print@addr
 10167  0F44  160A  158A  256E  120A  158A  	fcall	_clcd_print
 10168  0F49                     l6196:
 10169                           
 10170                           ;helper.c: 572:                 sec = 30;
 10171  0F49  301E               	movlw	30
 10172  0F4A  1283               	bcf	3,5	;RP0=0, select bank0
 10173  0F4B  1303               	bcf	3,6	;RP1=0, select bank0
 10174  0F4C  00DE               	movwf	_sec
 10175  0F4D  3000               	movlw	0
 10176  0F4E  00DF               	movwf	_sec+1
 10177  0F4F                     l6198:
 10178                           
 10179                           ;helper.c: 574:                 clcd_write(0x0C, 0);
 10180  0F4F  01F3               	clrf	clcd_write@mode
 10181  0F50  300C               	movlw	12
 10182  0F51  160A  158A  23E0  120A  158A  	fcall	_clcd_write
 10183                           
 10184                           ;helper.c: 575:                 while (sec)
 10185  0F56  2F89               	goto	l6202
 10186  0F57                     l6200:
 10187                           
 10188                           ;helper.c: 576:                 {;helper.c: 577:                     clcd_putch('0' + (s
      +                          ec / 10), (0xC0 + (8)));
 10189  0F57  30C8               	movlw	200
 10190  0F58  00A7               	movwf	??_confirm_change_password
 10191  0F59  0827               	movf	??_confirm_change_password,w
 10192  0F5A  00A4               	movwf	clcd_putch@addr
 10193  0F5B  300A               	movlw	10
 10194  0F5C  00F3               	movwf	___awdiv@divisor
 10195  0F5D  3000               	movlw	0
 10196  0F5E  00F4               	movwf	___awdiv@divisor+1
 10197  0F5F  085F               	movf	_sec+1,w
 10198  0F60  00F6               	movwf	___awdiv@dividend+1
 10199  0F61  085E               	movf	_sec,w
 10200  0F62  00F5               	movwf	___awdiv@dividend
 10201  0F63  160A  118A  22E9  120A  158A  	fcall	___awdiv
 10202  0F68  0873               	movf	?___awdiv,w
 10203  0F69  3E30               	addlw	48
 10204  0F6A  160A  158A  2355  120A  158A  	fcall	_clcd_putch
 10205                           
 10206                           ;helper.c: 578:                     clcd_putch('0' + (sec % 10), (0xC0 + (9)));
 10207  0F6F  30C9               	movlw	201
 10208  0F70  1283               	bcf	3,5	;RP0=0, select bank0
 10209  0F71  1303               	bcf	3,6	;RP1=0, select bank0
 10210  0F72  00A7               	movwf	??_confirm_change_password
 10211  0F73  0827               	movf	??_confirm_change_password,w
 10212  0F74  00A4               	movwf	clcd_putch@addr
 10213  0F75  300A               	movlw	10
 10214  0F76  00F3               	movwf	___awmod@divisor
 10215  0F77  3000               	movlw	0
 10216  0F78  00F4               	movwf	___awmod@divisor+1
 10217  0F79  085F               	movf	_sec+1,w
 10218  0F7A  00F6               	movwf	___awmod@dividend+1
 10219  0F7B  085E               	movf	_sec,w
 10220  0F7C  00F5               	movwf	___awmod@dividend
 10221  0F7D  160A  118A  21C5  120A  158A  	fcall	___awmod
 10222  0F82  0873               	movf	?___awmod,w
 10223  0F83  3E30               	addlw	48
 10224  0F84  160A  158A  2355  120A  158A  	fcall	_clcd_putch
 10225  0F89                     l6202:
 10226                           
 10227                           ;helper.c: 575:                 while (sec)
 10228  0F89  1283               	bcf	3,5	;RP0=0, select bank0
 10229  0F8A  1303               	bcf	3,6	;RP1=0, select bank0
 10230  0F8B  085E               	movf	_sec,w
 10231  0F8C  045F               	iorwf	_sec+1,w
 10232  0F8D  1D03               	btfss	3,2
 10233  0F8E  2F90               	goto	u7491
 10234  0F8F  2F91               	goto	u7490
 10235  0F90                     u7491:
 10236  0F90  2F57               	goto	l6200
 10237  0F91                     u7490:
 10238  0F91                     l6204:
 10239                           
 10240                           ;helper.c: 581:                 attempt_remaining = '3';
 10241  0F91  3033               	movlw	51
 10242  0F92  00A7               	movwf	??_confirm_change_password
 10243  0F93  0827               	movf	??_confirm_change_password,w
 10244  0F94  1683               	bsf	3,5	;RP0=1, select bank1
 10245  0F95  1303               	bcf	3,6	;RP1=0, select bank1
 10246  0F96  00B1               	movwf	confirm_change_password@attempt_remaining^(0+128)
 10247  0F97                     l6206:
 10248                           
 10249                           ;helper.c: 583:                 clcd_write(0x0F, 0);
 10250  0F97  01F3               	clrf	clcd_write@mode
 10251  0F98  300F               	movlw	15
 10252  0F99  160A  158A  23E0  120A  158A  	fcall	_clcd_write
 10253                           
 10254                           ;helper.c: 584:             }
 10255  0F9E  2FDE               	goto	l6218
 10256  0F9F                     l6208:
 10257                           
 10258                           ;helper.c: 586:             {;helper.c: 587:                 clcd_write(0x01, 0);
 10259  0F9F  01F3               	clrf	clcd_write@mode
 10260  0FA0  3001               	movlw	1
 10261  0FA1  160A  158A  23E0  120A  158A  	fcall	_clcd_write
 10262  0FA6                     l6210:
 10263                           
 10264                           ;helper.c: 588:                 clcd_print("Not matching", (0x80 + (1)));
 10265  0FA6  30F4               	movlw	low (STR_23| (0+32768))
 10266  0FA7  1283               	bcf	3,5	;RP0=0, select bank0
 10267  0FA8  1303               	bcf	3,6	;RP1=0, select bank0
 10268  0FA9  00A0               	movwf	clcd_print@data
 10269  0FAA  3090               	movlw	high (STR_23| (0+32768))
 10270  0FAB  00A1               	movwf	clcd_print@data+1
 10271  0FAC  3081               	movlw	129
 10272  0FAD  00A7               	movwf	??_confirm_change_password
 10273  0FAE  0827               	movf	??_confirm_change_password,w
 10274  0FAF  00A2               	movwf	clcd_print@addr
 10275  0FB0  160A  158A  256E  120A  158A  	fcall	_clcd_print
 10276  0FB5                     l6212:
 10277                           
 10278                           ;helper.c: 589:                 clcd_putch(attempt_remaining, (0xC0 + (0)));
 10279  0FB5  30C0               	movlw	192
 10280  0FB6  1283               	bcf	3,5	;RP0=0, select bank0
 10281  0FB7  1303               	bcf	3,6	;RP1=0, select bank0
 10282  0FB8  00A7               	movwf	??_confirm_change_password
 10283  0FB9  0827               	movf	??_confirm_change_password,w
 10284  0FBA  00A4               	movwf	clcd_putch@addr
 10285  0FBB  1683               	bsf	3,5	;RP0=1, select bank1
 10286  0FBC  1303               	bcf	3,6	;RP1=0, select bank1
 10287  0FBD  0831               	movf	confirm_change_password@attempt_remaining^(0+128),w
 10288  0FBE  160A  158A  2355  120A  158A  	fcall	_clcd_putch
 10289                           
 10290                           ;helper.c: 590:                 clcd_print("Attempts Left", (0xC0 + (2)));
 10291  0FC3  30D9               	movlw	low (STR_24| (0+32768))
 10292  0FC4  1283               	bcf	3,5	;RP0=0, select bank0
 10293  0FC5  1303               	bcf	3,6	;RP1=0, select bank0
 10294  0FC6  00A0               	movwf	clcd_print@data
 10295  0FC7  3090               	movlw	high (STR_24| (0+32768))
 10296  0FC8  00A1               	movwf	clcd_print@data+1
 10297  0FC9  30C2               	movlw	194
 10298  0FCA  00A7               	movwf	??_confirm_change_password
 10299  0FCB  0827               	movf	??_confirm_change_password,w
 10300  0FCC  00A2               	movwf	clcd_print@addr
 10301  0FCD  160A  158A  256E  120A  158A  	fcall	_clcd_print
 10302  0FD2                     l6214:
 10303                           
 10304                           ;helper.c: 592:                 sec = 3;
 10305  0FD2  3003               	movlw	3
 10306  0FD3  1283               	bcf	3,5	;RP0=0, select bank0
 10307  0FD4  1303               	bcf	3,6	;RP1=0, select bank0
 10308  0FD5  00DE               	movwf	_sec
 10309  0FD6  3000               	movlw	0
 10310  0FD7  00DF               	movwf	_sec+1
 10311  0FD8                     l6216:	
 10312                           ;helper.c: 593:                 while(sec);
 10313                           
 10314  0FD8  085E               	movf	_sec,w
 10315  0FD9  045F               	iorwf	_sec+1,w
 10316  0FDA  1D03               	btfss	3,2
 10317  0FDB  2FDD               	goto	u7501
 10318  0FDC  2FDE               	goto	u7500
 10319  0FDD                     u7501:
 10320  0FDD  2FD8               	goto	l6216
 10321  0FDE                     u7500:
 10322  0FDE                     l6218:
 10323                           
 10324                           ;helper.c: 595:             clcd_write(0x01, 0);
 10325  0FDE  01F3               	clrf	clcd_write@mode
 10326  0FDF  3001               	movlw	1
 10327  0FE0  160A  158A  23E0  120A  158A  	fcall	_clcd_write
 10328  0FE5                     l6220:
 10329                           
 10330                           ;helper.c: 596:             clcd_print("Confirm Passwrd", (0x80 + (0)));
 10331  0FE5  307D               	movlw	low (STR_18| (0+32768))
 10332  0FE6  1283               	bcf	3,5	;RP0=0, select bank0
 10333  0FE7  1303               	bcf	3,6	;RP1=0, select bank0
 10334  0FE8  00A0               	movwf	clcd_print@data
 10335  0FE9  3090               	movlw	high (STR_18| (0+32768))
 10336  0FEA  00A1               	movwf	clcd_print@data+1
 10337  0FEB  3080               	movlw	128
 10338  0FEC  00A7               	movwf	??_confirm_change_password
 10339  0FED  0827               	movf	??_confirm_change_password,w
 10340  0FEE  00A2               	movwf	clcd_print@addr
 10341  0FEF  160A  158A  256E  120A  158A  	fcall	_clcd_print
 10342  0FF4                     l6222:
 10343                           
 10344                           ;helper.c: 597:             return_time = 5;
 10345  0FF4  3005               	movlw	5
 10346  0FF5  1683               	bsf	3,5	;RP0=1, select bank1
 10347  0FF6  1303               	bcf	3,6	;RP1=0, select bank1
 10348  0FF7  00AE               	movwf	_return_time^(0+128)
 10349  0FF8  3000               	movlw	0
 10350  0FF9  00AF               	movwf	(_return_time^(0+128)+1)
 10351  0FFA                     l6224:
 10352                           
 10353                           ;helper.c: 598:             i = 0;
 10354  0FFA  1283               	bcf	3,5	;RP0=0, select bank0
 10355  0FFB  1303               	bcf	3,6	;RP1=0, select bank0
 10356  0FFC  01D8               	clrf	confirm_change_password@i
 10357  0FFD  01D9               	clrf	confirm_change_password@i+1
 10358  0FFE                     l6226:
 10359                           
 10360                           ;helper.c: 601:     return 0x10;
 10361  0FFE  3010               	movlw	16
 10362  0FFF                     l365:
 10363  0FFF  0008               	return
 10364  1000                     __end_of_confirm_change_password:
 10365                           
 10366                           	psect	text40
 10367  1E41                     __ptext40:	
 10368 ;; *************** function _strncmp *****************
 10369 ;; Defined at:
 10370 ;;		line 4 in file "/opt/microchip/xc8/v2.32/pic/sources/c90/common/strncmp.c"
 10371 ;; Parameters:    Size  Location     Type
 10372 ;;  s1              1    wreg     PTR const unsigned char 
 10373 ;;		 -> change_password@r_password(5), spassword(5), 
 10374 ;;  s2              1    3[COMMON] PTR const unsigned char 
 10375 ;;		 -> confirm_change_password@confirmed_password(5), login@npassword(4), 
 10376 ;;  len             2    4[COMMON] unsigned int 
 10377 ;; Auto vars:     Size  Location     Type
 10378 ;;  s1              1    8[COMMON] PTR const unsigned char 
 10379 ;;		 -> change_password@r_password(5), spassword(5), 
 10380 ;; Return value:  Size  Location     Type
 10381 ;;                  2    3[COMMON] int 
 10382 ;; Registers used:
 10383 ;;		wreg, fsr0l, fsr0h, status,2, status,0
 10384 ;; Tracked objects:
 10385 ;;		On entry : 0/0
 10386 ;;		On exit  : 0/0
 10387 ;;		Unchanged: 0/0
 10388 ;; Data sizes:     COMMON   BANK0   BANK1   BANK3   BANK2
 10389 ;;      Params:         3       0       0       0       0
 10390 ;;      Locals:         1       0       0       0       0
 10391 ;;      Temps:          2       0       0       0       0
 10392 ;;      Totals:         6       0       0       0       0
 10393 ;;Total ram usage:        6 bytes
 10394 ;; Hardware stack levels used: 1
 10395 ;; Hardware stack levels required when called: 1
 10396 ;; This function calls:
 10397 ;;		Nothing
 10398 ;; This function is called by:
 10399 ;;		_login
 10400 ;;		_confirm_change_password
 10401 ;; This function uses a non-reentrant model
 10402 ;;
 10403                           
 10404                           
 10405                           ;psect for function _strncmp
 10406  1E41                     _strncmp:
 10407                           
 10408                           ;incstack = 0
 10409                           ; Regs used in _strncmp: [wreg-fsr0h+status,2+status,0]
 10410                           ;strncmp@s1 stored from wreg
 10411  1E41  00F8               	movwf	strncmp@s1
 10412  1E42                     l4530:
 10413  1E42  2E6E               	goto	l1166
 10414  1E43                     l4532:
 10415  1E43  0878               	movf	strncmp@s1,w
 10416  1E44  0084               	movwf	4
 10417  1E45  1383               	bcf	3,7	;select IRP bank0
 10418  1E46  0800               	movf	0,w
 10419  1E47  1903               	btfsc	3,2
 10420  1E48  2E4A               	goto	u4881
 10421  1E49  2E4B               	goto	u4880
 10422  1E4A                     u4881:
 10423  1E4A  2E57               	goto	l4536
 10424  1E4B                     u4880:
 10425  1E4B                     l4534:
 10426  1E4B  0873               	movf	strncmp@s2,w
 10427  1E4C  0084               	movwf	4
 10428  1E4D  0800               	movf	0,w
 10429  1E4E  00F6               	movwf	??_strncmp
 10430  1E4F  0878               	movf	strncmp@s1,w
 10431  1E50  0084               	movwf	4
 10432  1E51  0800               	movf	0,w
 10433  1E52  0676               	xorwf	??_strncmp,w
 10434  1E53  1903               	skipnz
 10435  1E54  2E56               	goto	u4891
 10436  1E55  2E57               	goto	u4890
 10437  1E56                     u4891:
 10438  1E56  2E66               	goto	l4540
 10439  1E57                     u4890:
 10440  1E57                     l4536:
 10441  1E57  0873               	movf	strncmp@s2,w
 10442  1E58  0084               	movwf	4
 10443  1E59  0800               	movf	0,w
 10444  1E5A  00F6               	movwf	??_strncmp
 10445  1E5B  0878               	movf	strncmp@s1,w
 10446  1E5C  0084               	movwf	4
 10447  1E5D  0800               	movf	0,w
 10448  1E5E  00F7               	movwf	??_strncmp+1
 10449  1E5F  0876               	movf	??_strncmp,w
 10450  1E60  0277               	subwf	??_strncmp+1,w
 10451  1E61  00F3               	movwf	?_strncmp
 10452  1E62  01F4               	clrf	?_strncmp+1
 10453  1E63  1C03               	skipc
 10454  1E64  03F4               	decf	?_strncmp+1,f
 10455  1E65  2E7E               	goto	l1171
 10456  1E66                     l4540:
 10457  1E66  3001               	movlw	1
 10458  1E67  00F6               	movwf	??_strncmp
 10459  1E68  0876               	movf	??_strncmp,w
 10460  1E69  07F8               	addwf	strncmp@s1,f
 10461  1E6A  3001               	movlw	1
 10462  1E6B  00F6               	movwf	??_strncmp
 10463  1E6C  0876               	movf	??_strncmp,w
 10464  1E6D  07F3               	addwf	strncmp@s2,f
 10465  1E6E                     l1166:
 10466  1E6E  3001               	movlw	1
 10467  1E6F  02F4               	subwf	strncmp@len,f
 10468  1E70  3000               	movlw	0
 10469  1E71  1C03               	skipc
 10470  1E72  03F5               	decf	strncmp@len+1,f
 10471  1E73  02F5               	subwf	strncmp@len+1,f
 10472  1E74  0A74               	incf	strncmp@len,w
 10473  1E75  1D03               	skipz
 10474  1E76  2E7B               	goto	u4901
 10475  1E77  0A75               	incf	strncmp@len+1,w
 10476  1E78  1D03               	btfss	3,2
 10477  1E79  2E7B               	goto	u4901
 10478  1E7A  2E7C               	goto	u4900
 10479  1E7B                     u4901:
 10480  1E7B  2E43               	goto	l4532
 10481  1E7C                     u4900:
 10482  1E7C                     l4542:
 10483  1E7C  01F3               	clrf	?_strncmp
 10484  1E7D  01F4               	clrf	?_strncmp+1
 10485  1E7E                     l1171:
 10486  1E7E  0008               	return
 10487  1E7F                     __end_of_strncmp:
 10488                           
 10489                           	psect	text41
 10490  1C00                     __ptext41:	
 10491 ;; *************** function _eeprom_at24c04_str_write *****************
 10492 ;; Defined at:
 10493 ;;		line 30 in file "at24c04.c"
 10494 ;; Parameters:    Size  Location     Type
 10495 ;;  memory_loc      1    wreg     unsigned char 
 10496 ;;  data            1    2[BANK0 ] PTR unsigned char 
 10497 ;;		 -> confirm_change_password@confirmed_password(5), log(11), 
 10498 ;; Auto vars:     Size  Location     Type
 10499 ;;  memory_loc      1    4[BANK0 ] unsigned char 
 10500 ;; Return value:  Size  Location     Type
 10501 ;;                  1    wreg      void 
 10502 ;; Registers used:
 10503 ;;		wreg, fsr0l, fsr0h, status,2, status,0, pclath, cstack
 10504 ;; Tracked objects:
 10505 ;;		On entry : 0/0
 10506 ;;		On exit  : 0/0
 10507 ;;		Unchanged: 0/0
 10508 ;; Data sizes:     COMMON   BANK0   BANK1   BANK3   BANK2
 10509 ;;      Params:         0       1       0       0       0
 10510 ;;      Locals:         0       1       0       0       0
 10511 ;;      Temps:          0       1       0       0       0
 10512 ;;      Totals:         0       3       0       0       0
 10513 ;;Total ram usage:        3 bytes
 10514 ;; Hardware stack levels used: 1
 10515 ;; Hardware stack levels required when called: 4
 10516 ;; This function calls:
 10517 ;;		_eeprom_at24c04_byte_write
 10518 ;; This function is called by:
 10519 ;;		_log_event
 10520 ;;		_confirm_change_password
 10521 ;; This function uses a non-reentrant model
 10522 ;;
 10523                           
 10524                           
 10525                           ;psect for function _eeprom_at24c04_str_write
 10526  1C00                     _eeprom_at24c04_str_write:
 10527                           
 10528                           ;incstack = 0
 10529                           ; Regs used in _eeprom_at24c04_str_write: [wreg-fsr0h+status,2+status,0+pclath+cstack]
 10530                           ;eeprom_at24c04_str_write@memory_loc stored from wreg
 10531  1C00  1283               	bcf	3,5	;RP0=0, select bank0
 10532  1C01  1303               	bcf	3,6	;RP1=0, select bank0
 10533  1C02  00A4               	movwf	eeprom_at24c04_str_write@memory_loc
 10534  1C03                     l4484:
 10535                           
 10536                           ;at24c04.c: 30: void eeprom_at24c04_str_write(unsigned char memory_loc, char *data);at24
      +                          c04.c: 31: {;at24c04.c: 32:  while ( *data != 0 )
 10537  1C03  2C1A               	goto	l4492
 10538  1C04                     l4486:
 10539                           
 10540                           ;at24c04.c: 33:  {;at24c04.c: 34:   eeprom_at24c04_byte_write( memory_loc , *data );
 10541  1C04  0822               	movf	eeprom_at24c04_str_write@data,w
 10542  1C05  0084               	movwf	4
 10543  1C06  0800               	movf	0,w
 10544  1C07  00A3               	movwf	??_eeprom_at24c04_str_write
 10545  1C08  0823               	movf	??_eeprom_at24c04_str_write,w
 10546  1C09  00A0               	movwf	eeprom_at24c04_byte_write@data
 10547  1C0A  0824               	movf	eeprom_at24c04_str_write@memory_loc,w
 10548  1C0B  160A  158A  24E2  160A  158A  	fcall	_eeprom_at24c04_byte_write
 10549  1C10                     l4488:
 10550                           
 10551                           ;at24c04.c: 35:   data++;
 10552  1C10  3001               	movlw	1
 10553  1C11  1283               	bcf	3,5	;RP0=0, select bank0
 10554  1C12  1303               	bcf	3,6	;RP1=0, select bank0
 10555  1C13  00A3               	movwf	??_eeprom_at24c04_str_write
 10556  1C14  0823               	movf	??_eeprom_at24c04_str_write,w
 10557  1C15  07A2               	addwf	eeprom_at24c04_str_write@data,f
 10558  1C16                     l4490:
 10559                           
 10560                           ;at24c04.c: 36:   memory_loc++;
 10561  1C16  3001               	movlw	1
 10562  1C17  00A3               	movwf	??_eeprom_at24c04_str_write
 10563  1C18  0823               	movf	??_eeprom_at24c04_str_write,w
 10564  1C19  07A4               	addwf	eeprom_at24c04_str_write@memory_loc,f
 10565  1C1A                     l4492:
 10566                           
 10567                           ;at24c04.c: 32:  while ( *data != 0 )
 10568  1C1A  0822               	movf	eeprom_at24c04_str_write@data,w
 10569  1C1B  0084               	movwf	4
 10570  1C1C  1383               	bcf	3,7	;select IRP bank0
 10571  1C1D  0800               	movf	0,w
 10572  1C1E  1D03               	btfss	3,2
 10573  1C1F  2C21               	goto	u4861
 10574  1C20  2C22               	goto	u4860
 10575  1C21                     u4861:
 10576  1C21  2C04               	goto	l4486
 10577  1C22                     u4860:
 10578  1C22                     l49:
 10579  1C22  0008               	return
 10580  1C23                     __end_of_eeprom_at24c04_str_write:
 10581                           
 10582                           	psect	text42
 10583  1CE2                     __ptext42:	
 10584 ;; *************** function _eeprom_at24c04_byte_write *****************
 10585 ;; Defined at:
 10586 ;;		line 19 in file "at24c04.c"
 10587 ;; Parameters:    Size  Location     Type
 10588 ;;  memory_loc      1    wreg     unsigned char 
 10589 ;;  data            1    0[BANK0 ] unsigned char 
 10590 ;; Auto vars:     Size  Location     Type
 10591 ;;  memory_loc      1    1[BANK0 ] unsigned char 
 10592 ;; Return value:  Size  Location     Type
 10593 ;;                  1    wreg      void 
 10594 ;; Registers used:
 10595 ;;		wreg, status,2, status,0, pclath, cstack
 10596 ;; Tracked objects:
 10597 ;;		On entry : 0/0
 10598 ;;		On exit  : 0/0
 10599 ;;		Unchanged: 0/0
 10600 ;; Data sizes:     COMMON   BANK0   BANK1   BANK3   BANK2
 10601 ;;      Params:         0       1       0       0       0
 10602 ;;      Locals:         0       1       0       0       0
 10603 ;;      Temps:          0       0       0       0       0
 10604 ;;      Totals:         0       2       0       0       0
 10605 ;;Total ram usage:        2 bytes
 10606 ;; Hardware stack levels used: 1
 10607 ;; Hardware stack levels required when called: 3
 10608 ;; This function calls:
 10609 ;;		_delay_ms
 10610 ;;		_i2c_start
 10611 ;;		_i2c_stop
 10612 ;;		_i2c_write
 10613 ;; This function is called by:
 10614 ;;		_eeprom_at24c04_str_write
 10615 ;; This function uses a non-reentrant model
 10616 ;;
 10617                           
 10618                           
 10619                           ;psect for function _eeprom_at24c04_byte_write
 10620  1CE2                     _eeprom_at24c04_byte_write:
 10621                           
 10622                           ;incstack = 0
 10623                           ; Regs used in _eeprom_at24c04_byte_write: [wreg+status,2+status,0+pclath+cstack]
 10624                           ;eeprom_at24c04_byte_write@memory_loc stored from wreg
 10625  1CE2  1283               	bcf	3,5	;RP0=0, select bank0
 10626  1CE3  1303               	bcf	3,6	;RP1=0, select bank0
 10627  1CE4  00A1               	movwf	eeprom_at24c04_byte_write@memory_loc
 10628  1CE5                     l4454:
 10629                           
 10630                           ;at24c04.c: 19: void eeprom_at24c04_byte_write(unsigned char memory_loc, unsigned char d
      +                          ata);at24c04.c: 20: {;at24c04.c: 21:  i2c_start();
 10631  1CE5  160A  158A  22B4  160A  158A  	fcall	_i2c_start
 10632                           
 10633                           ;at24c04.c: 22:  i2c_write(0xA0);
 10634  1CEA  30A0               	movlw	160
 10635  1CEB  160A  158A  22CF  160A  158A  	fcall	_i2c_write
 10636                           
 10637                           ;at24c04.c: 23:  i2c_write(memory_loc);
 10638  1CF0  1283               	bcf	3,5	;RP0=0, select bank0
 10639  1CF1  1303               	bcf	3,6	;RP1=0, select bank0
 10640  1CF2  0821               	movf	eeprom_at24c04_byte_write@memory_loc,w
 10641  1CF3  160A  158A  22CF  160A  158A  	fcall	_i2c_write
 10642                           
 10643                           ;at24c04.c: 24:  i2c_write(data);
 10644  1CF8  1283               	bcf	3,5	;RP0=0, select bank0
 10645  1CF9  1303               	bcf	3,6	;RP1=0, select bank0
 10646  1CFA  0820               	movf	eeprom_at24c04_byte_write@data,w
 10647  1CFB  160A  158A  22CF  160A  158A  	fcall	_i2c_write
 10648                           
 10649                           ;at24c04.c: 25:  i2c_stop();
 10650  1D00  160A  158A  22BD  160A  158A  	fcall	_i2c_stop
 10651                           
 10652                           ;at24c04.c: 27:     delay_ms(3);
 10653  1D05  3003               	movlw	3
 10654  1D06  160A  158A  23C4  160A  158A  	fcall	_delay_ms
 10655  1D0B                     l43:
 10656  1D0B  0008               	return
 10657  1D0C                     __end_of_eeprom_at24c04_byte_write:
 10658                           
 10659                           	psect	text43
 10660  1ACF                     __ptext43:	
 10661 ;; *************** function _i2c_write *****************
 10662 ;; Defined at:
 10663 ;;		line 78 in file "i2c.c"
 10664 ;; Parameters:    Size  Location     Type
 10665 ;;  i2c_write_da    1    wreg     unsigned char 
 10666 ;; Auto vars:     Size  Location     Type
 10667 ;;  i2c_write_da    1    8[COMMON] unsigned char 
 10668 ;; Return value:  Size  Location     Type
 10669 ;;                  1    wreg      unsigned char 
 10670 ;; Registers used:
 10671 ;;		wreg, status,2, status,0, pclath, cstack
 10672 ;; Tracked objects:
 10673 ;;		On entry : 0/0
 10674 ;;		On exit  : 0/0
 10675 ;;		Unchanged: 0/0
 10676 ;; Data sizes:     COMMON   BANK0   BANK1   BANK3   BANK2
 10677 ;;      Params:         0       0       0       0       0
 10678 ;;      Locals:         1       0       0       0       0
 10679 ;;      Temps:          0       0       0       0       0
 10680 ;;      Totals:         1       0       0       0       0
 10681 ;;Total ram usage:        1 bytes
 10682 ;; Hardware stack levels used: 1
 10683 ;; Hardware stack levels required when called: 2
 10684 ;; This function calls:
 10685 ;;		_i2c_wait_for_idle
 10686 ;; This function is called by:
 10687 ;;		_eeprom_at24c04_random_read
 10688 ;;		_eeprom_at24c04_byte_write
 10689 ;;		_write_ds1307
 10690 ;;		_read_ds1307
 10691 ;; This function uses a non-reentrant model
 10692 ;;
 10693                           
 10694                           
 10695                           ;psect for function _i2c_write
 10696  1ACF                     _i2c_write:
 10697                           
 10698                           ;incstack = 0
 10699                           ; Regs used in _i2c_write: [wreg+status,2+status,0+pclath+cstack]
 10700                           ;i2c_write@i2c_write_data stored from wreg
 10701  1ACF  00F8               	movwf	i2c_write@i2c_write_data
 10702  1AD0                     l4414:
 10703                           
 10704                           ;i2c.c: 78: unsigned char i2c_write(unsigned char i2c_write_data);i2c.c: 79: {;i2c.c: 80
      +                          :  i2c_wait_for_idle();
 10705  1AD0  160A  158A  23AB  160A  158A  	fcall	_i2c_wait_for_idle
 10706  1AD5                     l4416:
 10707                           
 10708                           ;i2c.c: 81:  SSPBUF = i2c_write_data;
 10709  1AD5  0878               	movf	i2c_write@i2c_write_data,w
 10710  1AD6  1283               	bcf	3,5	;RP0=0, select bank0
 10711  1AD7  1303               	bcf	3,6	;RP1=0, select bank0
 10712  1AD8  0093               	movwf	19	;volatile
 10713  1AD9                     l4418:
 10714  1AD9                     l445:	
 10715                           ;i2c.c: 83:  return (!ACKSTAT);;	Return value of _i2c_write is never used
 10716                           
 10717  1AD9  0008               	return
 10718  1ADA                     __end_of_i2c_write:
 10719                           
 10720                           	psect	text44
 10721  1ABD                     __ptext44:	
 10722 ;; *************** function _i2c_stop *****************
 10723 ;; Defined at:
 10724 ;;		line 44 in file "i2c.c"
 10725 ;; Parameters:    Size  Location     Type
 10726 ;;		None
 10727 ;; Auto vars:     Size  Location     Type
 10728 ;;		None
 10729 ;; Return value:  Size  Location     Type
 10730 ;;                  1    wreg      void 
 10731 ;; Registers used:
 10732 ;;		wreg, status,2, status,0, pclath, cstack
 10733 ;; Tracked objects:
 10734 ;;		On entry : 0/0
 10735 ;;		On exit  : 0/0
 10736 ;;		Unchanged: 0/0
 10737 ;; Data sizes:     COMMON   BANK0   BANK1   BANK3   BANK2
 10738 ;;      Params:         0       0       0       0       0
 10739 ;;      Locals:         0       0       0       0       0
 10740 ;;      Temps:          0       0       0       0       0
 10741 ;;      Totals:         0       0       0       0       0
 10742 ;;Total ram usage:        0 bytes
 10743 ;; Hardware stack levels used: 1
 10744 ;; Hardware stack levels required when called: 2
 10745 ;; This function calls:
 10746 ;;		_i2c_wait_for_idle
 10747 ;; This function is called by:
 10748 ;;		_eeprom_at24c04_random_read
 10749 ;;		_eeprom_at24c04_byte_write
 10750 ;;		_write_ds1307
 10751 ;;		_read_ds1307
 10752 ;; This function uses a non-reentrant model
 10753 ;;
 10754                           
 10755                           
 10756                           ;psect for function _i2c_stop
 10757  1ABD                     _i2c_stop:
 10758  1ABD                     l4422:	
 10759                           ;incstack = 0
 10760                           ; Regs used in _i2c_stop: [wreg+status,2+status,0+pclath+cstack]
 10761                           
 10762                           
 10763                           ;i2c.c: 46:  i2c_wait_for_idle();
 10764  1ABD  160A  158A  23AB  160A  158A  	fcall	_i2c_wait_for_idle
 10765  1AC2                     l4424:
 10766                           
 10767                           ;i2c.c: 47:  PEN = 1;
 10768  1AC2  1683               	bsf	3,5	;RP0=1, select bank1
 10769  1AC3  1303               	bcf	3,6	;RP1=0, select bank1
 10770  1AC4  1511               	bsf	17,2	;volatile
 10771  1AC5                     l437:
 10772  1AC5  0008               	return
 10773  1AC6                     __end_of_i2c_stop:
 10774                           
 10775                           	psect	text45
 10776  1AB4                     __ptext45:	
 10777 ;; *************** function _i2c_start *****************
 10778 ;; Defined at:
 10779 ;;		line 32 in file "i2c.c"
 10780 ;; Parameters:    Size  Location     Type
 10781 ;;		None
 10782 ;; Auto vars:     Size  Location     Type
 10783 ;;		None
 10784 ;; Return value:  Size  Location     Type
 10785 ;;                  1    wreg      void 
 10786 ;; Registers used:
 10787 ;;		wreg, status,2, status,0, pclath, cstack
 10788 ;; Tracked objects:
 10789 ;;		On entry : 0/0
 10790 ;;		On exit  : 0/0
 10791 ;;		Unchanged: 0/0
 10792 ;; Data sizes:     COMMON   BANK0   BANK1   BANK3   BANK2
 10793 ;;      Params:         0       0       0       0       0
 10794 ;;      Locals:         0       0       0       0       0
 10795 ;;      Temps:          0       0       0       0       0
 10796 ;;      Totals:         0       0       0       0       0
 10797 ;;Total ram usage:        0 bytes
 10798 ;; Hardware stack levels used: 1
 10799 ;; Hardware stack levels required when called: 2
 10800 ;; This function calls:
 10801 ;;		_i2c_wait_for_idle
 10802 ;; This function is called by:
 10803 ;;		_eeprom_at24c04_random_read
 10804 ;;		_eeprom_at24c04_byte_write
 10805 ;;		_write_ds1307
 10806 ;;		_read_ds1307
 10807 ;; This function uses a non-reentrant model
 10808 ;;
 10809                           
 10810                           
 10811                           ;psect for function _i2c_start
 10812  1AB4                     _i2c_start:
 10813  1AB4                     l4410:	
 10814                           ;incstack = 0
 10815                           ; Regs used in _i2c_start: [wreg+status,2+status,0+pclath+cstack]
 10816                           
 10817                           
 10818                           ;i2c.c: 34:  i2c_wait_for_idle();
 10819  1AB4  160A  158A  23AB  160A  158A  	fcall	_i2c_wait_for_idle
 10820  1AB9                     l4412:
 10821                           
 10822                           ;i2c.c: 35:  SEN = 1;
 10823  1AB9  1683               	bsf	3,5	;RP0=1, select bank1
 10824  1ABA  1303               	bcf	3,6	;RP1=0, select bank1
 10825  1ABB  1411               	bsf	17,0	;volatile
 10826  1ABC                     l431:
 10827  1ABC  0008               	return
 10828  1ABD                     __end_of_i2c_start:
 10829                           
 10830                           	psect	text46
 10831  1BAB                     __ptext46:	
 10832 ;; *************** function _i2c_wait_for_idle *****************
 10833 ;; Defined at:
 10834 ;;		line 24 in file "i2c.c"
 10835 ;; Parameters:    Size  Location     Type
 10836 ;;		None
 10837 ;; Auto vars:     Size  Location     Type
 10838 ;;		None
 10839 ;; Return value:  Size  Location     Type
 10840 ;;                  1    wreg      void 
 10841 ;; Registers used:
 10842 ;;		wreg, status,2, status,0
 10843 ;; Tracked objects:
 10844 ;;		On entry : 0/0
 10845 ;;		On exit  : 0/0
 10846 ;;		Unchanged: 0/0
 10847 ;; Data sizes:     COMMON   BANK0   BANK1   BANK3   BANK2
 10848 ;;      Params:         0       0       0       0       0
 10849 ;;      Locals:         0       0       0       0       0
 10850 ;;      Temps:          5       0       0       0       0
 10851 ;;      Totals:         5       0       0       0       0
 10852 ;;Total ram usage:        5 bytes
 10853 ;; Hardware stack levels used: 1
 10854 ;; Hardware stack levels required when called: 1
 10855 ;; This function calls:
 10856 ;;		Nothing
 10857 ;; This function is called by:
 10858 ;;		_i2c_start
 10859 ;;		_i2c_rep_start
 10860 ;;		_i2c_stop
 10861 ;;		_i2c_read
 10862 ;;		_i2c_write
 10863 ;; This function uses a non-reentrant model
 10864 ;;
 10865                           
 10866                           
 10867                           ;psect for function _i2c_wait_for_idle
 10868  1BAB                     _i2c_wait_for_idle:
 10869  1BAB                     l4406:	
 10870                           ;incstack = 0
 10871                           ; Regs used in _i2c_wait_for_idle: [wreg+status,2+status,0]
 10872                           
 10873  1BAB                     l4408:	
 10874                           ;i2c.c: 26:  while ((SSPCON2 & 0x1F ) | R_nW)
 10875                           
 10876                           
 10877                           ;i2c.c: 26:  while ((SSPCON2 & 0x1F ) | R_nW)
 10878  1BAB  1003               	clrc
 10879  1BAC  1683               	bsf	3,5	;RP0=1, select bank1
 10880  1BAD  1303               	bcf	3,6	;RP1=0, select bank1
 10881  1BAE  1914               	btfsc	20,2	;volatile
 10882  1BAF  1403               	setc
 10883  1BB0  3000               	movlw	0
 10884  1BB1  1803               	skipnc
 10885  1BB2  3001               	movlw	1
 10886  1BB3  00F3               	movwf	??_i2c_wait_for_idle
 10887  1BB4  01F4               	clrf	??_i2c_wait_for_idle+1
 10888  1BB5  301F               	movlw	31
 10889  1BB6  0511               	andwf	17,w	;volatile
 10890  1BB7  00F5               	movwf	??_i2c_wait_for_idle+2
 10891  1BB8  0873               	movf	??_i2c_wait_for_idle,w
 10892  1BB9  0475               	iorwf	??_i2c_wait_for_idle+2,w
 10893  1BBA  00F6               	movwf	??_i2c_wait_for_idle+3
 10894  1BBB  0874               	movf	??_i2c_wait_for_idle+1,w
 10895  1BBC  00F7               	movwf	??_i2c_wait_for_idle+4
 10896  1BBD  0876               	movf	??_i2c_wait_for_idle+3,w
 10897  1BBE  0477               	iorwf	??_i2c_wait_for_idle+4,w
 10898  1BBF  1D03               	btfss	3,2
 10899  1BC0  2BC2               	goto	u4791
 10900  1BC1  2BC3               	goto	u4790
 10901  1BC2                     u4791:
 10902  1BC2  2BAB               	goto	l4408
 10903  1BC3                     u4790:
 10904  1BC3                     l428:
 10905  1BC3  0008               	return
 10906  1BC4                     __end_of_i2c_wait_for_idle:
 10907                           
 10908                           	psect	text47
 10909  1BC4                     __ptext47:	
 10910 ;; *************** function _delay_ms *****************
 10911 ;; Defined at:
 10912 ;;		line 10 in file "delay.c"
 10913 ;; Parameters:    Size  Location     Type
 10914 ;;  count           1    wreg     unsigned char 
 10915 ;; Auto vars:     Size  Location     Type
 10916 ;;  count           1    4[COMMON] unsigned char 
 10917 ;;  _dcnt           1    6[COMMON] unsigned char 
 10918 ;;  i               1    5[COMMON] unsigned char 
 10919 ;; Return value:  Size  Location     Type
 10920 ;;                  1    wreg      void 
 10921 ;; Registers used:
 10922 ;;		wreg, status,2, status,0
 10923 ;; Tracked objects:
 10924 ;;		On entry : 0/0
 10925 ;;		On exit  : 0/0
 10926 ;;		Unchanged: 0/0
 10927 ;; Data sizes:     COMMON   BANK0   BANK1   BANK3   BANK2
 10928 ;;      Params:         0       0       0       0       0
 10929 ;;      Locals:         3       0       0       0       0
 10930 ;;      Temps:          1       0       0       0       0
 10931 ;;      Totals:         4       0       0       0       0
 10932 ;;Total ram usage:        4 bytes
 10933 ;; Hardware stack levels used: 1
 10934 ;; Hardware stack levels required when called: 1
 10935 ;; This function calls:
 10936 ;;		Nothing
 10937 ;; This function is called by:
 10938 ;;		_eeprom_at24c04_byte_write
 10939 ;; This function uses a non-reentrant model
 10940 ;;
 10941                           
 10942                           
 10943                           ;psect for function _delay_ms
 10944  1BC4                     _delay_ms:
 10945                           
 10946                           ;incstack = 0
 10947                           ; Regs used in _delay_ms: [wreg+status,2+status,0]
 10948                           ;delay_ms@count stored from wreg
 10949  1BC4  00F4               	movwf	delay_ms@count
 10950  1BC5                     l84:	
 10951                           ;delay.c: 10: void delay_ms(unsigned char count);delay.c: 11: {;delay.c: 21:  unsigned c
      +                          har i;;delay.c: 22:  do
 10952                           
 10953  1BC5                     l4426:
 10954                           
 10955                           ;delay.c: 23:  {;delay.c: 24:   i = 4;
 10956  1BC5  3004               	movlw	4
 10957  1BC6  00F3               	movwf	??_delay_ms
 10958  1BC7  0873               	movf	??_delay_ms,w
 10959  1BC8  00F5               	movwf	delay_ms@i
 10960  1BC9                     l85:	
 10961                           ;delay.c: 25:   do
 10962                           
 10963                           
 10964                           ;delay.c: 26:   {;delay.c: 27:    { unsigned char _dcnt; _dcnt = (250)*((20000000)/(1200
      +                          0000)); while(--_dcnt != 0) continue; };
 10965  1BC9  30FA               	movlw	250
 10966  1BCA  00F3               	movwf	??_delay_ms
 10967  1BCB  0873               	movf	??_delay_ms,w
 10968  1BCC  00F6               	movwf	delay_ms@_dcnt
 10969  1BCD                     l4428:
 10970  1BCD  3001               	movlw	1
 10971  1BCE  02F6               	subwf	delay_ms@_dcnt,f
 10972  1BCF  1D03               	btfss	3,2
 10973  1BD0  2BD2               	goto	u4801
 10974  1BD1  2BD3               	goto	u4800
 10975  1BD2                     u4801:
 10976  1BD2  2BCD               	goto	l4428
 10977  1BD3                     u4800:
 10978  1BD3                     l4430:
 10979                           
 10980                           ;delay.c: 28:   }
 10981  1BD3  3001               	movlw	1
 10982  1BD4  02F5               	subwf	delay_ms@i,f
 10983  1BD5  1D03               	btfss	3,2
 10984  1BD6  2BD8               	goto	u4811
 10985  1BD7  2BD9               	goto	u4810
 10986  1BD8                     u4811:
 10987  1BD8  2BC9               	goto	l85
 10988  1BD9                     u4810:
 10989  1BD9                     l4432:
 10990                           
 10991                           ;delay.c: 30:  }
 10992  1BD9  3001               	movlw	1
 10993  1BDA  02F4               	subwf	delay_ms@count,f
 10994  1BDB  1D03               	btfss	3,2
 10995  1BDC  2BDE               	goto	u4821
 10996  1BDD  2BDF               	goto	u4820
 10997  1BDE                     u4821:
 10998  1BDE  2BC5               	goto	l84
 10999  1BDF                     u4820:
 11000  1BDF                     l91:
 11001  1BDF  0008               	return
 11002  1BE0                     __end_of_delay_ms:
 11003                           
 11004                           	psect	text48
 11005  1B55                     __ptext48:	
 11006 ;; *************** function _clcd_putch *****************
 11007 ;; Defined at:
 11008 ;;		line 56 in file "clcd.c"
 11009 ;; Parameters:    Size  Location     Type
 11010 ;;  data            1    wreg     const unsigned char 
 11011 ;;  addr            1    4[BANK0 ] unsigned char 
 11012 ;; Auto vars:     Size  Location     Type
 11013 ;;  data            1    5[BANK0 ] const unsigned char 
 11014 ;; Return value:  Size  Location     Type
 11015 ;;                  1    wreg      void 
 11016 ;; Registers used:
 11017 ;;		wreg, status,2, status,0, pclath, cstack
 11018 ;; Tracked objects:
 11019 ;;		On entry : 0/0
 11020 ;;		On exit  : 0/0
 11021 ;;		Unchanged: 0/0
 11022 ;; Data sizes:     COMMON   BANK0   BANK1   BANK3   BANK2
 11023 ;;      Params:         0       1       0       0       0
 11024 ;;      Locals:         0       1       0       0       0
 11025 ;;      Temps:          0       0       0       0       0
 11026 ;;      Totals:         0       2       0       0       0
 11027 ;;Total ram usage:        2 bytes
 11028 ;; Hardware stack levels used: 1
 11029 ;; Hardware stack levels required when called: 2
 11030 ;; This function calls:
 11031 ;;		_clcd_write
 11032 ;; This function is called by:
 11033 ;;		_display_dash_board
 11034 ;;		_display_time
 11035 ;;		_login
 11036 ;;		_login_menu
 11037 ;;		_view_log
 11038 ;;		_set_time
 11039 ;;		_change_password
 11040 ;;		_confirm_change_password
 11041 ;;		_main
 11042 ;; This function uses a non-reentrant model
 11043 ;;
 11044                           
 11045                           
 11046                           ;psect for function _clcd_putch
 11047  1B55                     _clcd_putch:
 11048                           
 11049                           ;incstack = 0
 11050                           ; Regs used in _clcd_putch: [wreg+status,2+status,0+pclath+cstack]
 11051                           ;clcd_putch@data stored from wreg
 11052  1B55  1283               	bcf	3,5	;RP0=0, select bank0
 11053  1B56  1303               	bcf	3,6	;RP1=0, select bank0
 11054  1B57  00A5               	movwf	clcd_putch@data
 11055  1B58                     l4520:
 11056                           
 11057                           ;clcd.c: 56: void clcd_putch(const char data, unsigned char addr);clcd.c: 57: {;clcd.c: 
      +                          58:     clcd_write(addr, 0);
 11058  1B58  01F3               	clrf	clcd_write@mode
 11059  1B59  0824               	movf	clcd_putch@addr,w
 11060  1B5A  160A  158A  23E0  160A  158A  	fcall	_clcd_write
 11061                           
 11062                           ;clcd.c: 59:     clcd_write(data, 1);
 11063  1B5F  01F3               	clrf	clcd_write@mode
 11064  1B60  0AF3               	incf	clcd_write@mode,f
 11065  1B61  1283               	bcf	3,5	;RP0=0, select bank0
 11066  1B62  1303               	bcf	3,6	;RP1=0, select bank0
 11067  1B63  0825               	movf	clcd_putch@data,w
 11068  1B64  160A  158A  23E0  160A  158A  	fcall	_clcd_write
 11069  1B69                     l81:
 11070  1B69  0008               	return
 11071  1B6A                     __end_of_clcd_putch:
 11072                           
 11073                           	psect	text49
 11074  1D6E                     __ptext49:	
 11075 ;; *************** function _clcd_print *****************
 11076 ;; Defined at:
 11077 ;;		line 47 in file "clcd.c"
 11078 ;; Parameters:    Size  Location     Type
 11079 ;;  data            2    0[BANK0 ] PTR const unsigned char 
 11080 ;;		 -> STR_36(18), STR_35(9), STR_34(17), STR_33(17), 
 11081 ;;		 -> main@event(3), STR_25(16), STR_24(14), STR_23(13), 
 11082 ;;		 -> STR_22(15), STR_21(15), STR_20(13), STR_19(17), 
 11083 ;;		 -> STR_18(16), STR_16(16), STR_14(11), STR_13(10), 
 11084 ;;		 -> STR_12(18), STR_11(15), STR_10(13), STR_9(15), 
 11085 ;;		 -> STR_8(15), STR_7(15), STR_6(17), STR_5(13), 
 11086 ;;		 -> STR_4(9), STR_3(13), STR_2(10), STR_1(9), 
 11087 ;;  addr            1    2[BANK0 ] unsigned char 
 11088 ;; Auto vars:     Size  Location     Type
 11089 ;;		None
 11090 ;; Return value:  Size  Location     Type
 11091 ;;                  1    wreg      void 
 11092 ;; Registers used:
 11093 ;;		wreg, fsr0l, fsr0h, status,2, status,0, btemp+1, pclath, cstack
 11094 ;; Tracked objects:
 11095 ;;		On entry : 0/0
 11096 ;;		On exit  : 0/0
 11097 ;;		Unchanged: 0/0
 11098 ;; Data sizes:     COMMON   BANK0   BANK1   BANK3   BANK2
 11099 ;;      Params:         0       3       0       0       0
 11100 ;;      Locals:         0       0       0       0       0
 11101 ;;      Temps:          0       0       0       0       0
 11102 ;;      Totals:         0       3       0       0       0
 11103 ;;Total ram usage:        3 bytes
 11104 ;; Hardware stack levels used: 1
 11105 ;; Hardware stack levels required when called: 2
 11106 ;; This function calls:
 11107 ;;		_clcd_write
 11108 ;; This function is called by:
 11109 ;;		_display_dash_board
 11110 ;;		_login
 11111 ;;		_login_menu
 11112 ;;		_view_log
 11113 ;;		_clear_log
 11114 ;;		_download_log
 11115 ;;		_confirm_change_password
 11116 ;;		_main
 11117 ;; This function uses a non-reentrant model
 11118 ;;
 11119                           
 11120                           
 11121                           ;psect for function _clcd_print
 11122  1D6E                     _clcd_print:
 11123  1D6E                     l4512:	
 11124                           ;incstack = 0
 11125                           ; Regs used in _clcd_print: [wreg-fsr0h+status,2+status,0+btemp+1+pclath+cstack]
 11126                           
 11127                           
 11128                           ;clcd.c: 47: void clcd_print(const char *data, unsigned char addr);clcd.c: 48: {;clcd.c:
      +                           49:     clcd_write(addr, 0);
 11129  1D6E  01F3               	clrf	clcd_write@mode
 11130  1D6F  1283               	bcf	3,5	;RP0=0, select bank0
 11131  1D70  1303               	bcf	3,6	;RP1=0, select bank0
 11132  1D71  0822               	movf	clcd_print@addr,w
 11133  1D72  160A  158A  23E0  160A  158A  	fcall	_clcd_write
 11134                           
 11135                           ;clcd.c: 50:     while (*data != '\0')
 11136  1D77  2D90               	goto	l4518
 11137  1D78                     l4514:
 11138                           
 11139                           ;clcd.c: 51:     {;clcd.c: 52:         clcd_write(*data++, 1);
 11140  1D78  01F3               	clrf	clcd_write@mode
 11141  1D79  0AF3               	incf	clcd_write@mode,f
 11142  1D7A  0821               	movf	clcd_print@data+1,w
 11143  1D7B  00FF               	movwf	btemp+1
 11144  1D7C  0820               	movf	clcd_print@data,w
 11145  1D7D  0084               	movwf	4
 11146  1D7E  160A  158A  2000  160A  158A  	fcall	stringtab
 11147  1D83  160A  158A  23E0  160A  158A  	fcall	_clcd_write
 11148  1D88                     l4516:
 11149  1D88  3001               	movlw	1
 11150  1D89  1283               	bcf	3,5	;RP0=0, select bank0
 11151  1D8A  1303               	bcf	3,6	;RP1=0, select bank0
 11152  1D8B  07A0               	addwf	clcd_print@data,f
 11153  1D8C  1803               	skipnc
 11154  1D8D  0AA1               	incf	clcd_print@data+1,f
 11155  1D8E  3000               	movlw	0
 11156  1D8F  07A1               	addwf	clcd_print@data+1,f
 11157  1D90                     l4518:
 11158                           
 11159                           ;clcd.c: 50:     while (*data != '\0')
 11160  1D90  1283               	bcf	3,5	;RP0=0, select bank0
 11161  1D91  1303               	bcf	3,6	;RP1=0, select bank0
 11162  1D92  0821               	movf	clcd_print@data+1,w
 11163  1D93  00FF               	movwf	btemp+1
 11164  1D94  0820               	movf	clcd_print@data,w
 11165  1D95  0084               	movwf	4
 11166  1D96  160A  158A  2000  160A  158A  	fcall	stringtab
 11167  1D9B  3A00               	xorlw	0
 11168  1D9C  1D03               	skipz
 11169  1D9D  2D9F               	goto	u4871
 11170  1D9E  2DA0               	goto	u4870
 11171  1D9F                     u4871:
 11172  1D9F  2D78               	goto	l4514
 11173  1DA0                     u4870:
 11174  1DA0                     l78:
 11175  1DA0  0008               	return
 11176  1DA1                     __end_of_clcd_print:
 11177                           
 11178                           	psect	text50
 11179  1BE0                     __ptext50:	
 11180 ;; *************** function _clcd_write *****************
 11181 ;; Defined at:
 11182 ;;		line 4 in file "clcd.c"
 11183 ;; Parameters:    Size  Location     Type
 11184 ;;  byte            1    wreg     unsigned char 
 11185 ;;  mode            1    3[COMMON] unsigned char 
 11186 ;; Auto vars:     Size  Location     Type
 11187 ;;  byte            1    6[COMMON] unsigned char 
 11188 ;; Return value:  Size  Location     Type
 11189 ;;                  1    wreg      void 
 11190 ;; Registers used:
 11191 ;;		wreg
 11192 ;; Tracked objects:
 11193 ;;		On entry : 0/0
 11194 ;;		On exit  : 0/0
 11195 ;;		Unchanged: 0/0
 11196 ;; Data sizes:     COMMON   BANK0   BANK1   BANK3   BANK2
 11197 ;;      Params:         1       0       0       0       0
 11198 ;;      Locals:         1       0       0       0       0
 11199 ;;      Temps:          2       0       0       0       0
 11200 ;;      Totals:         4       0       0       0       0
 11201 ;;Total ram usage:        4 bytes
 11202 ;; Hardware stack levels used: 1
 11203 ;; Hardware stack levels required when called: 1
 11204 ;; This function calls:
 11205 ;;		Nothing
 11206 ;; This function is called by:
 11207 ;;		_init_display_controller
 11208 ;;		_clcd_print
 11209 ;;		_clcd_putch
 11210 ;;		_login
 11211 ;;		_login_menu
 11212 ;;		_download_log
 11213 ;;		_confirm_change_password
 11214 ;;		_main
 11215 ;; This function uses a non-reentrant model
 11216 ;;
 11217                           
 11218                           
 11219                           ;psect for function _clcd_write
 11220  1BE0                     _clcd_write:
 11221                           
 11222                           ;incstack = 0
 11223                           ; Regs used in _clcd_write: [wreg]
 11224                           ;clcd_write@byte stored from wreg
 11225  1BE0  00F6               	movwf	clcd_write@byte
 11226  1BE1                     l4456:
 11227                           
 11228                           ;clcd.c: 4: void clcd_write(unsigned char byte, unsigned char mode);clcd.c: 5: {;clcd.c:
      +                           6:     RE2 = mode;
 11229  1BE1  1873               	btfsc	clcd_write@mode,0
 11230  1BE2  2BE4               	goto	u4841
 11231  1BE3  2BE8               	goto	u4840
 11232  1BE4                     u4841:
 11233  1BE4  1283               	bcf	3,5	;RP0=0, select bank0
 11234  1BE5  1303               	bcf	3,6	;RP1=0, select bank0
 11235  1BE6  1509               	bsf	9,2	;volatile
 11236  1BE7  2BEB               	goto	u4854
 11237  1BE8                     u4840:
 11238  1BE8  1283               	bcf	3,5	;RP0=0, select bank0
 11239  1BE9  1303               	bcf	3,6	;RP1=0, select bank0
 11240  1BEA  1109               	bcf	9,2	;volatile
 11241  1BEB                     u4854:
 11242  1BEB                     l4458:
 11243                           
 11244                           ;clcd.c: 7:     PORTD = byte;
 11245  1BEB  0876               	movf	clcd_write@byte,w
 11246  1BEC  0088               	movwf	8	;volatile
 11247  1BED                     l4460:
 11248                           
 11249                           ;clcd.c: 9:     RE1 = 1;
 11250  1BED  1489               	bsf	9,1	;volatile
 11251                           
 11252                           ;clcd.c: 10:     _delay((unsigned long)((100)*(20000000/4000000.0)));
 11253  1BEE  30A6               	movlw	166
 11254  1BEF  00F4               	movwf	??_clcd_write
 11255  1BF0                     u7947:
 11256  1BF0  0BF4               	decfsz	??_clcd_write,f
 11257  1BF1  2BF0               	goto	u7947
 11258  1BF2  0000               	nop
 11259  1BF3                     l4462:
 11260                           
 11261                           ;clcd.c: 11:     RE1 = 0;
 11262  1BF3  1283               	bcf	3,5	;RP0=0, select bank0
 11263  1BF4  1303               	bcf	3,6	;RP1=0, select bank0
 11264  1BF5  1089               	bcf	9,1	;volatile
 11265                           
 11266                           ;clcd.c: 13:     _delay((unsigned long)((4100)*(20000000/4000000.0)));
 11267  1BF6  301B               	movlw	27
 11268  1BF7  00F5               	movwf	??_clcd_write+1
 11269  1BF8  309E               	movlw	158
 11270  1BF9  00F4               	movwf	??_clcd_write
 11271  1BFA                     u7957:
 11272  1BFA  0BF4               	decfsz	??_clcd_write,f
 11273  1BFB  2BFA               	goto	u7957
 11274  1BFC  0BF5               	decfsz	??_clcd_write+1,f
 11275  1BFD  2BFA               	goto	u7957
 11276  1BFE  0000               	nop
 11277  1BFF                     l66:
 11278  1BFF  0008               	return
 11279  1C00                     __end_of_clcd_write:
 11280                           
 11281                           	psect	text51
 11282  11C5                     __ptext51:	
 11283 ;; *************** function ___awmod *****************
 11284 ;; Defined at:
 11285 ;;		line 5 in file "/opt/microchip/xc8/v2.32/pic/sources/c90/common/awmod.c"
 11286 ;; Parameters:    Size  Location     Type
 11287 ;;  divisor         2    3[COMMON] int 
 11288 ;;  dividend        2    5[COMMON] int 
 11289 ;; Auto vars:     Size  Location     Type
 11290 ;;  sign            1    1[BANK0 ] unsigned char 
 11291 ;;  counter         1    0[BANK0 ] unsigned char 
 11292 ;; Return value:  Size  Location     Type
 11293 ;;                  2    3[COMMON] int 
 11294 ;; Registers used:
 11295 ;;		wreg, status,2, status,0
 11296 ;; Tracked objects:
 11297 ;;		On entry : 0/0
 11298 ;;		On exit  : 0/0
 11299 ;;		Unchanged: 0/0
 11300 ;; Data sizes:     COMMON   BANK0   BANK1   BANK3   BANK2
 11301 ;;      Params:         4       0       0       0       0
 11302 ;;      Locals:         0       2       0       0       0
 11303 ;;      Temps:          1       0       0       0       0
 11304 ;;      Totals:         5       2       0       0       0
 11305 ;;Total ram usage:        7 bytes
 11306 ;; Hardware stack levels used: 1
 11307 ;; Hardware stack levels required when called: 1
 11308 ;; This function calls:
 11309 ;;		Nothing
 11310 ;; This function is called by:
 11311 ;;		_view_log
 11312 ;;		_login
 11313 ;;		_confirm_change_password
 11314 ;; This function uses a non-reentrant model
 11315 ;;
 11316                           
 11317                           
 11318                           ;psect for function ___awmod
 11319  11C5                     ___awmod:
 11320  11C5                     l4632:	
 11321                           ;incstack = 0
 11322                           ; Regs used in ___awmod: [wreg+status,2+status,0]
 11323                           
 11324  11C5  1283               	bcf	3,5	;RP0=0, select bank0
 11325  11C6  1303               	bcf	3,6	;RP1=0, select bank0
 11326  11C7  01A1               	clrf	___awmod@sign
 11327  11C8                     l4634:
 11328  11C8  1FF6               	btfss	___awmod@dividend+1,7
 11329  11C9  29CB               	goto	u5111
 11330  11CA  29CC               	goto	u5110
 11331  11CB                     u5111:
 11332  11CB  29D3               	goto	l4640
 11333  11CC                     u5110:
 11334  11CC                     l4636:
 11335  11CC  09F5               	comf	___awmod@dividend,f
 11336  11CD  09F6               	comf	___awmod@dividend+1,f
 11337  11CE  0AF5               	incf	___awmod@dividend,f
 11338  11CF  1903               	skipnz
 11339  11D0  0AF6               	incf	___awmod@dividend+1,f
 11340  11D1                     l4638:
 11341  11D1  01A1               	clrf	___awmod@sign
 11342  11D2  0AA1               	incf	___awmod@sign,f
 11343  11D3                     l4640:
 11344  11D3  1FF4               	btfss	___awmod@divisor+1,7
 11345  11D4  29D6               	goto	u5121
 11346  11D5  29D7               	goto	u5120
 11347  11D6                     u5121:
 11348  11D6  29DC               	goto	l4644
 11349  11D7                     u5120:
 11350  11D7                     l4642:
 11351  11D7  09F3               	comf	___awmod@divisor,f
 11352  11D8  09F4               	comf	___awmod@divisor+1,f
 11353  11D9  0AF3               	incf	___awmod@divisor,f
 11354  11DA  1903               	skipnz
 11355  11DB  0AF4               	incf	___awmod@divisor+1,f
 11356  11DC                     l4644:
 11357  11DC  0873               	movf	___awmod@divisor,w
 11358  11DD  0474               	iorwf	___awmod@divisor+1,w
 11359  11DE  1903               	btfsc	3,2
 11360  11DF  29E1               	goto	u5131
 11361  11E0  29E2               	goto	u5130
 11362  11E1                     u5131:
 11363  11E1  2A11               	goto	l4662
 11364  11E2                     u5130:
 11365  11E2                     l4646:
 11366  11E2  01A0               	clrf	___awmod@counter
 11367  11E3  0AA0               	incf	___awmod@counter,f
 11368  11E4  29F0               	goto	l4652
 11369  11E5                     l4648:
 11370  11E5  3001               	movlw	1
 11371  11E6                     u5145:
 11372  11E6  1003               	clrc
 11373  11E7  0DF3               	rlf	___awmod@divisor,f
 11374  11E8  0DF4               	rlf	___awmod@divisor+1,f
 11375  11E9  3EFF               	addlw	-1
 11376  11EA  1D03               	skipz
 11377  11EB  29E6               	goto	u5145
 11378  11EC                     l4650:
 11379  11EC  3001               	movlw	1
 11380  11ED  00F7               	movwf	??___awmod
 11381  11EE  0877               	movf	??___awmod,w
 11382  11EF  07A0               	addwf	___awmod@counter,f
 11383  11F0                     l4652:
 11384  11F0  1FF4               	btfss	___awmod@divisor+1,7
 11385  11F1  29F3               	goto	u5151
 11386  11F2  29F4               	goto	u5150
 11387  11F3                     u5151:
 11388  11F3  29E5               	goto	l4648
 11389  11F4                     u5150:
 11390  11F4                     l4654:
 11391  11F4  0874               	movf	___awmod@divisor+1,w
 11392  11F5  0276               	subwf	___awmod@dividend+1,w
 11393  11F6  1D03               	skipz
 11394  11F7  29FA               	goto	u5165
 11395  11F8  0873               	movf	___awmod@divisor,w
 11396  11F9  0275               	subwf	___awmod@dividend,w
 11397  11FA                     u5165:
 11398  11FA  1C03               	skipc
 11399  11FB  29FD               	goto	u5161
 11400  11FC  29FE               	goto	u5160
 11401  11FD                     u5161:
 11402  11FD  2A04               	goto	l4658
 11403  11FE                     u5160:
 11404  11FE                     l4656:
 11405  11FE  0873               	movf	___awmod@divisor,w
 11406  11FF  02F5               	subwf	___awmod@dividend,f
 11407  1200  0874               	movf	___awmod@divisor+1,w
 11408  1201  1C03               	skipc
 11409  1202  03F6               	decf	___awmod@dividend+1,f
 11410  1203  02F6               	subwf	___awmod@dividend+1,f
 11411  1204                     l4658:
 11412  1204  3001               	movlw	1
 11413  1205                     u5175:
 11414  1205  1003               	clrc
 11415  1206  0CF4               	rrf	___awmod@divisor+1,f
 11416  1207  0CF3               	rrf	___awmod@divisor,f
 11417  1208  3EFF               	addlw	-1
 11418  1209  1D03               	skipz
 11419  120A  2A05               	goto	u5175
 11420  120B                     l4660:
 11421  120B  3001               	movlw	1
 11422  120C  02A0               	subwf	___awmod@counter,f
 11423  120D  1D03               	btfss	3,2
 11424  120E  2A10               	goto	u5181
 11425  120F  2A11               	goto	u5180
 11426  1210                     u5181:
 11427  1210  29F4               	goto	l4654
 11428  1211                     u5180:
 11429  1211                     l4662:
 11430  1211  0821               	movf	___awmod@sign,w
 11431  1212  1903               	btfsc	3,2
 11432  1213  2A15               	goto	u5191
 11433  1214  2A16               	goto	u5190
 11434  1215                     u5191:
 11435  1215  2A1B               	goto	l4666
 11436  1216                     u5190:
 11437  1216                     l4664:
 11438  1216  09F5               	comf	___awmod@dividend,f
 11439  1217  09F6               	comf	___awmod@dividend+1,f
 11440  1218  0AF5               	incf	___awmod@dividend,f
 11441  1219  1903               	skipnz
 11442  121A  0AF6               	incf	___awmod@dividend+1,f
 11443  121B                     l4666:
 11444  121B  0876               	movf	___awmod@dividend+1,w
 11445  121C  00F4               	movwf	?___awmod+1
 11446  121D  0875               	movf	___awmod@dividend,w
 11447  121E  00F3               	movwf	?___awmod
 11448  121F                     l875:
 11449  121F  0008               	return
 11450  1220                     __end_of___awmod:
 11451                           
 11452                           	psect	text52
 11453  12E9                     __ptext52:	
 11454 ;; *************** function ___awdiv *****************
 11455 ;; Defined at:
 11456 ;;		line 5 in file "/opt/microchip/xc8/v2.32/pic/sources/c90/common/awdiv.c"
 11457 ;; Parameters:    Size  Location     Type
 11458 ;;  divisor         2    3[COMMON] int 
 11459 ;;  dividend        2    5[COMMON] int 
 11460 ;; Auto vars:     Size  Location     Type
 11461 ;;  quotient        2    2[BANK0 ] int 
 11462 ;;  sign            1    1[BANK0 ] unsigned char 
 11463 ;;  counter         1    0[BANK0 ] unsigned char 
 11464 ;; Return value:  Size  Location     Type
 11465 ;;                  2    3[COMMON] int 
 11466 ;; Registers used:
 11467 ;;		wreg, status,2, status,0
 11468 ;; Tracked objects:
 11469 ;;		On entry : 0/0
 11470 ;;		On exit  : 0/0
 11471 ;;		Unchanged: 0/0
 11472 ;; Data sizes:     COMMON   BANK0   BANK1   BANK3   BANK2
 11473 ;;      Params:         4       0       0       0       0
 11474 ;;      Locals:         0       4       0       0       0
 11475 ;;      Temps:          1       0       0       0       0
 11476 ;;      Totals:         5       4       0       0       0
 11477 ;;Total ram usage:        9 bytes
 11478 ;; Hardware stack levels used: 1
 11479 ;; Hardware stack levels required when called: 1
 11480 ;; This function calls:
 11481 ;;		Nothing
 11482 ;; This function is called by:
 11483 ;;		_login
 11484 ;;		_confirm_change_password
 11485 ;; This function uses a non-reentrant model
 11486 ;;
 11487                           
 11488                           
 11489                           ;psect for function ___awdiv
 11490  12E9                     ___awdiv:
 11491  12E9                     l6070:	
 11492                           ;incstack = 0
 11493                           ; Regs used in ___awdiv: [wreg+status,2+status,0]
 11494                           
 11495  12E9  1283               	bcf	3,5	;RP0=0, select bank0
 11496  12EA  1303               	bcf	3,6	;RP1=0, select bank0
 11497  12EB  01A1               	clrf	___awdiv@sign
 11498  12EC                     l6072:
 11499  12EC  1FF4               	btfss	___awdiv@divisor+1,7
 11500  12ED  2AEF               	goto	u7291
 11501  12EE  2AF0               	goto	u7290
 11502  12EF                     u7291:
 11503  12EF  2AF7               	goto	l6078
 11504  12F0                     u7290:
 11505  12F0                     l6074:
 11506  12F0  09F3               	comf	___awdiv@divisor,f
 11507  12F1  09F4               	comf	___awdiv@divisor+1,f
 11508  12F2  0AF3               	incf	___awdiv@divisor,f
 11509  12F3  1903               	skipnz
 11510  12F4  0AF4               	incf	___awdiv@divisor+1,f
 11511  12F5                     l6076:
 11512  12F5  01A1               	clrf	___awdiv@sign
 11513  12F6  0AA1               	incf	___awdiv@sign,f
 11514  12F7                     l6078:
 11515  12F7  1FF6               	btfss	___awdiv@dividend+1,7
 11516  12F8  2AFA               	goto	u7301
 11517  12F9  2AFB               	goto	u7300
 11518  12FA                     u7301:
 11519  12FA  2B04               	goto	l6084
 11520  12FB                     u7300:
 11521  12FB                     l6080:
 11522  12FB  09F5               	comf	___awdiv@dividend,f
 11523  12FC  09F6               	comf	___awdiv@dividend+1,f
 11524  12FD  0AF5               	incf	___awdiv@dividend,f
 11525  12FE  1903               	skipnz
 11526  12FF  0AF6               	incf	___awdiv@dividend+1,f
 11527  1300                     l6082:
 11528  1300  3001               	movlw	1
 11529  1301  00F7               	movwf	??___awdiv
 11530  1302  0877               	movf	??___awdiv,w
 11531  1303  06A1               	xorwf	___awdiv@sign,f
 11532  1304                     l6084:
 11533  1304  01A2               	clrf	___awdiv@quotient
 11534  1305  01A3               	clrf	___awdiv@quotient+1
 11535  1306                     l6086:
 11536  1306  0873               	movf	___awdiv@divisor,w
 11537  1307  0474               	iorwf	___awdiv@divisor+1,w
 11538  1308  1903               	btfsc	3,2
 11539  1309  2B0B               	goto	u7311
 11540  130A  2B0C               	goto	u7310
 11541  130B                     u7311:
 11542  130B  2B43               	goto	l6106
 11543  130C                     u7310:
 11544  130C                     l6088:
 11545  130C  01A0               	clrf	___awdiv@counter
 11546  130D  0AA0               	incf	___awdiv@counter,f
 11547  130E  2B1A               	goto	l6094
 11548  130F                     l6090:
 11549  130F  3001               	movlw	1
 11550  1310                     u7325:
 11551  1310  1003               	clrc
 11552  1311  0DF3               	rlf	___awdiv@divisor,f
 11553  1312  0DF4               	rlf	___awdiv@divisor+1,f
 11554  1313  3EFF               	addlw	-1
 11555  1314  1D03               	skipz
 11556  1315  2B10               	goto	u7325
 11557  1316                     l6092:
 11558  1316  3001               	movlw	1
 11559  1317  00F7               	movwf	??___awdiv
 11560  1318  0877               	movf	??___awdiv,w
 11561  1319  07A0               	addwf	___awdiv@counter,f
 11562  131A                     l6094:
 11563  131A  1FF4               	btfss	___awdiv@divisor+1,7
 11564  131B  2B1D               	goto	u7331
 11565  131C  2B1E               	goto	u7330
 11566  131D                     u7331:
 11567  131D  2B0F               	goto	l6090
 11568  131E                     u7330:
 11569  131E                     l6096:
 11570  131E  3001               	movlw	1
 11571  131F                     u7345:
 11572  131F  1003               	clrc
 11573  1320  0DA2               	rlf	___awdiv@quotient,f
 11574  1321  0DA3               	rlf	___awdiv@quotient+1,f
 11575  1322  3EFF               	addlw	-1
 11576  1323  1D03               	skipz
 11577  1324  2B1F               	goto	u7345
 11578  1325  0874               	movf	___awdiv@divisor+1,w
 11579  1326  0276               	subwf	___awdiv@dividend+1,w
 11580  1327  1D03               	skipz
 11581  1328  2B2B               	goto	u7355
 11582  1329  0873               	movf	___awdiv@divisor,w
 11583  132A  0275               	subwf	___awdiv@dividend,w
 11584  132B                     u7355:
 11585  132B  1C03               	skipc
 11586  132C  2B2E               	goto	u7351
 11587  132D  2B2F               	goto	u7350
 11588  132E                     u7351:
 11589  132E  2B36               	goto	l6102
 11590  132F                     u7350:
 11591  132F                     l6098:
 11592  132F  0873               	movf	___awdiv@divisor,w
 11593  1330  02F5               	subwf	___awdiv@dividend,f
 11594  1331  0874               	movf	___awdiv@divisor+1,w
 11595  1332  1C03               	skipc
 11596  1333  03F6               	decf	___awdiv@dividend+1,f
 11597  1334  02F6               	subwf	___awdiv@dividend+1,f
 11598  1335                     l6100:
 11599  1335  1422               	bsf	___awdiv@quotient,0
 11600  1336                     l6102:
 11601  1336  3001               	movlw	1
 11602  1337                     u7365:
 11603  1337  1003               	clrc
 11604  1338  0CF4               	rrf	___awdiv@divisor+1,f
 11605  1339  0CF3               	rrf	___awdiv@divisor,f
 11606  133A  3EFF               	addlw	-1
 11607  133B  1D03               	skipz
 11608  133C  2B37               	goto	u7365
 11609  133D                     l6104:
 11610  133D  3001               	movlw	1
 11611  133E  02A0               	subwf	___awdiv@counter,f
 11612  133F  1D03               	btfss	3,2
 11613  1340  2B42               	goto	u7371
 11614  1341  2B43               	goto	u7370
 11615  1342                     u7371:
 11616  1342  2B1E               	goto	l6096
 11617  1343                     u7370:
 11618  1343                     l6106:
 11619  1343  0821               	movf	___awdiv@sign,w
 11620  1344  1903               	btfsc	3,2
 11621  1345  2B47               	goto	u7381
 11622  1346  2B48               	goto	u7380
 11623  1347                     u7381:
 11624  1347  2B4D               	goto	l6110
 11625  1348                     u7380:
 11626  1348                     l6108:
 11627  1348  09A2               	comf	___awdiv@quotient,f
 11628  1349  09A3               	comf	___awdiv@quotient+1,f
 11629  134A  0AA2               	incf	___awdiv@quotient,f
 11630  134B  1903               	skipnz
 11631  134C  0AA3               	incf	___awdiv@quotient+1,f
 11632  134D                     l6110:
 11633  134D  0823               	movf	___awdiv@quotient+1,w
 11634  134E  00F4               	movwf	?___awdiv+1
 11635  134F  0822               	movf	___awdiv@quotient,w
 11636  1350  00F3               	movwf	?___awdiv
 11637  1351                     l862:
 11638  1351  0008               	return
 11639  1352                     __end_of___awdiv:
 11640                           
 11641                           	psect	text53
 11642  1655                     __ptext53:	
 11643 ;; *************** function ___xxtofl *****************
 11644 ;; Defined at:
 11645 ;;		line 10 in file "/opt/microchip/xc8/v2.32/pic/sources/c90/common/xxtofl.c"
 11646 ;; Parameters:    Size  Location     Type
 11647 ;;  sign            1    wreg     unsigned char 
 11648 ;;  val             4    0[BANK0 ] long 
 11649 ;; Auto vars:     Size  Location     Type
 11650 ;;  sign            1    8[BANK0 ] unsigned char 
 11651 ;;  arg             4   10[BANK0 ] unsigned long 
 11652 ;;  exp             1    9[BANK0 ] unsigned char 
 11653 ;; Return value:  Size  Location     Type
 11654 ;;                  4    0[BANK0 ] unsigned char 
 11655 ;; Registers used:
 11656 ;;		wreg, status,2, status,0
 11657 ;; Tracked objects:
 11658 ;;		On entry : 0/0
 11659 ;;		On exit  : 0/0
 11660 ;;		Unchanged: 0/0
 11661 ;; Data sizes:     COMMON   BANK0   BANK1   BANK3   BANK2
 11662 ;;      Params:         0       4       0       0       0
 11663 ;;      Locals:         0       6       0       0       0
 11664 ;;      Temps:          0       4       0       0       0
 11665 ;;      Totals:         0      14       0       0       0
 11666 ;;Total ram usage:       14 bytes
 11667 ;; Hardware stack levels used: 1
 11668 ;; Hardware stack levels required when called: 1
 11669 ;; This function calls:
 11670 ;;		Nothing
 11671 ;; This function is called by:
 11672 ;;		_main
 11673 ;; This function uses a non-reentrant model
 11674 ;;
 11675                           
 11676                           
 11677                           ;psect for function ___xxtofl
 11678  1655                     ___xxtofl:
 11679                           
 11680                           ;incstack = 0
 11681                           ; Regs used in ___xxtofl: [wreg+status,2+status,0]
 11682                           ;___xxtofl@sign stored from wreg
 11683  1655  1283               	bcf	3,5	;RP0=0, select bank0
 11684  1656  1303               	bcf	3,6	;RP1=0, select bank0
 11685  1657  00A8               	movwf	___xxtofl@sign
 11686  1658                     l5672:
 11687  1658  0828               	movf	___xxtofl@sign,w
 11688  1659  1903               	btfsc	3,2
 11689  165A  2E5C               	goto	u6971
 11690  165B  2E5D               	goto	u6970
 11691  165C                     u6971:
 11692  165C  2E71               	goto	l5678
 11693  165D                     u6970:
 11694  165D                     l5674:
 11695  165D  1FA3               	btfss	___xxtofl@val+3,7
 11696  165E  2E60               	goto	u6981
 11697  165F  2E61               	goto	u6980
 11698  1660                     u6981:
 11699  1660  2E71               	goto	l5678
 11700  1661                     u6980:
 11701  1661                     l5676:
 11702  1661  0920               	comf	___xxtofl@val,w
 11703  1662  00AA               	movwf	___xxtofl@arg
 11704  1663  0921               	comf	___xxtofl@val+1,w
 11705  1664  00AB               	movwf	___xxtofl@arg+1
 11706  1665  0922               	comf	___xxtofl@val+2,w
 11707  1666  00AC               	movwf	___xxtofl@arg+2
 11708  1667  0923               	comf	___xxtofl@val+3,w
 11709  1668  00AD               	movwf	___xxtofl@arg+3
 11710  1669  0AAA               	incf	___xxtofl@arg,f
 11711  166A  1903               	skipnz
 11712  166B  0AAB               	incf	___xxtofl@arg+1,f
 11713  166C  1903               	skipnz
 11714  166D  0AAC               	incf	___xxtofl@arg+2,f
 11715  166E  1903               	skipnz
 11716  166F  0AAD               	incf	___xxtofl@arg+3,f
 11717  1670  2E79               	goto	l1142
 11718  1671                     l5678:
 11719  1671  0823               	movf	___xxtofl@val+3,w
 11720  1672  00AD               	movwf	___xxtofl@arg+3
 11721  1673  0822               	movf	___xxtofl@val+2,w
 11722  1674  00AC               	movwf	___xxtofl@arg+2
 11723  1675  0821               	movf	___xxtofl@val+1,w
 11724  1676  00AB               	movwf	___xxtofl@arg+1
 11725  1677  0820               	movf	___xxtofl@val,w
 11726  1678  00AA               	movwf	___xxtofl@arg
 11727  1679                     l1142:
 11728  1679  0823               	movf	___xxtofl@val+3,w
 11729  167A  0422               	iorwf	___xxtofl@val+2,w
 11730  167B  0421               	iorwf	___xxtofl@val+1,w
 11731  167C  0420               	iorwf	___xxtofl@val,w
 11732  167D  1D03               	skipz
 11733  167E  2E80               	goto	u6991
 11734  167F  2E81               	goto	u6990
 11735  1680                     u6991:
 11736  1680  2E8A               	goto	l5684
 11737  1681                     u6990:
 11738  1681                     l5680:
 11739  1681  3000               	movlw	0
 11740  1682  00A3               	movwf	?___xxtofl+3
 11741  1683  3000               	movlw	0
 11742  1684  00A2               	movwf	?___xxtofl+2
 11743  1685  3000               	movlw	0
 11744  1686  00A1               	movwf	?___xxtofl+1
 11745  1687  3000               	movlw	0
 11746  1688  00A0               	movwf	?___xxtofl
 11747  1689  2F10               	goto	l1144
 11748  168A                     l5684:
 11749  168A  3096               	movlw	150
 11750  168B  00A4               	movwf	??___xxtofl
 11751  168C  0824               	movf	??___xxtofl,w
 11752  168D  00A9               	movwf	___xxtofl@exp
 11753  168E  2E9C               	goto	l5688
 11754  168F                     l5686:
 11755  168F  3001               	movlw	1
 11756  1690  00A4               	movwf	??___xxtofl
 11757  1691  0824               	movf	??___xxtofl,w
 11758  1692  07A9               	addwf	___xxtofl@exp,f
 11759  1693  3001               	movlw	1
 11760  1694                     u7005:
 11761  1694  1003               	clrc
 11762  1695  0CAD               	rrf	___xxtofl@arg+3,f
 11763  1696  0CAC               	rrf	___xxtofl@arg+2,f
 11764  1697  0CAB               	rrf	___xxtofl@arg+1,f
 11765  1698  0CAA               	rrf	___xxtofl@arg,f
 11766  1699  3EFF               	addlw	-1
 11767  169A  1D03               	skipz
 11768  169B  2E94               	goto	u7005
 11769  169C                     l5688:
 11770  169C  30FE               	movlw	254
 11771  169D  052D               	andwf	___xxtofl@arg+3,w
 11772  169E  1D03               	btfss	3,2
 11773  169F  2EA1               	goto	u7011
 11774  16A0  2EA2               	goto	u7010
 11775  16A1                     u7011:
 11776  16A1  2E8F               	goto	l5686
 11777  16A2                     u7010:
 11778  16A2  2EBE               	goto	l1148
 11779  16A3                     l5690:
 11780  16A3  3001               	movlw	1
 11781  16A4  00A4               	movwf	??___xxtofl
 11782  16A5  0824               	movf	??___xxtofl,w
 11783  16A6  07A9               	addwf	___xxtofl@exp,f
 11784  16A7                     l5692:
 11785  16A7  3001               	movlw	1
 11786  16A8  07AA               	addwf	___xxtofl@arg,f
 11787  16A9  3000               	movlw	0
 11788  16AA  1803               	skipnc
 11789  16AB  3001               	movlw	1
 11790  16AC  07AB               	addwf	___xxtofl@arg+1,f
 11791  16AD  3000               	movlw	0
 11792  16AE  1803               	skipnc
 11793  16AF  3001               	movlw	1
 11794  16B0  07AC               	addwf	___xxtofl@arg+2,f
 11795  16B1  3000               	movlw	0
 11796  16B2  1803               	skipnc
 11797  16B3  3001               	movlw	1
 11798  16B4  07AD               	addwf	___xxtofl@arg+3,f
 11799  16B5                     l5694:
 11800  16B5  3001               	movlw	1
 11801  16B6                     u7025:
 11802  16B6  1003               	clrc
 11803  16B7  0CAD               	rrf	___xxtofl@arg+3,f
 11804  16B8  0CAC               	rrf	___xxtofl@arg+2,f
 11805  16B9  0CAB               	rrf	___xxtofl@arg+1,f
 11806  16BA  0CAA               	rrf	___xxtofl@arg,f
 11807  16BB  3EFF               	addlw	-1
 11808  16BC  1D03               	skipz
 11809  16BD  2EB6               	goto	u7025
 11810  16BE                     l1148:
 11811  16BE  30FF               	movlw	255
 11812  16BF  052D               	andwf	___xxtofl@arg+3,w
 11813  16C0  1D03               	btfss	3,2
 11814  16C1  2EC3               	goto	u7031
 11815  16C2  2EC4               	goto	u7030
 11816  16C3                     u7031:
 11817  16C3  2EA3               	goto	l5690
 11818  16C4                     u7030:
 11819  16C4  2ED0               	goto	l5698
 11820  16C5                     l5696:
 11821  16C5  3001               	movlw	1
 11822  16C6  02A9               	subwf	___xxtofl@exp,f
 11823  16C7  3001               	movlw	1
 11824  16C8  00A4               	movwf	??___xxtofl
 11825  16C9                     u7045:
 11826  16C9  1003               	clrc
 11827  16CA  0DAA               	rlf	___xxtofl@arg,f
 11828  16CB  0DAB               	rlf	___xxtofl@arg+1,f
 11829  16CC  0DAC               	rlf	___xxtofl@arg+2,f
 11830  16CD  0DAD               	rlf	___xxtofl@arg+3,f
 11831  16CE  0BA4               	decfsz	??___xxtofl,f
 11832  16CF  2EC9               	goto	u7045
 11833  16D0                     l5698:
 11834  16D0  1BAC               	btfsc	___xxtofl@arg+2,7
 11835  16D1  2ED3               	goto	u7051
 11836  16D2  2ED4               	goto	u7050
 11837  16D3                     u7051:
 11838  16D3  2EDA               	goto	l1155
 11839  16D4                     u7050:
 11840  16D4                     l5700:
 11841  16D4  3002               	movlw	2
 11842  16D5  0229               	subwf	___xxtofl@exp,w
 11843  16D6  1803               	skipnc
 11844  16D7  2ED9               	goto	u7061
 11845  16D8  2EDA               	goto	u7060
 11846  16D9                     u7061:
 11847  16D9  2EC5               	goto	l5696
 11848  16DA                     u7060:
 11849  16DA                     l1155:
 11850  16DA  1829               	btfsc	___xxtofl@exp,0
 11851  16DB  2EDD               	goto	u7071
 11852  16DC  2EDE               	goto	u7070
 11853  16DD                     u7071:
 11854  16DD  2EE6               	goto	l1156
 11855  16DE                     u7070:
 11856  16DE                     l5702:
 11857  16DE  30FF               	movlw	255
 11858  16DF  05AA               	andwf	___xxtofl@arg,f
 11859  16E0  30FF               	movlw	255
 11860  16E1  05AB               	andwf	___xxtofl@arg+1,f
 11861  16E2  307F               	movlw	127
 11862  16E3  05AC               	andwf	___xxtofl@arg+2,f
 11863  16E4  30FF               	movlw	255
 11864  16E5  05AD               	andwf	___xxtofl@arg+3,f
 11865  16E6                     l1156:
 11866  16E6  1003               	clrc
 11867  16E7  0CA9               	rrf	___xxtofl@exp,f
 11868  16E8                     l5704:
 11869  16E8  0829               	movf	___xxtofl@exp,w
 11870  16E9  00A4               	movwf	??___xxtofl
 11871  16EA  01A5               	clrf	??___xxtofl+1
 11872  16EB  01A6               	clrf	??___xxtofl+2
 11873  16EC  01A7               	clrf	??___xxtofl+3
 11874  16ED  3018               	movlw	24
 11875  16EE                     u7085:
 11876  16EE  1003               	clrc
 11877  16EF  0DA4               	rlf	??___xxtofl,f
 11878  16F0  0DA5               	rlf	??___xxtofl+1,f
 11879  16F1  0DA6               	rlf	??___xxtofl+2,f
 11880  16F2  0DA7               	rlf	??___xxtofl+3,f
 11881  16F3                     u7080:
 11882  16F3  3EFF               	addlw	-1
 11883  16F4  1D03               	skipz
 11884  16F5  2EEE               	goto	u7085
 11885  16F6  0824               	movf	??___xxtofl,w
 11886  16F7  04AA               	iorwf	___xxtofl@arg,f
 11887  16F8  0825               	movf	??___xxtofl+1,w
 11888  16F9  04AB               	iorwf	___xxtofl@arg+1,f
 11889  16FA  0826               	movf	??___xxtofl+2,w
 11890  16FB  04AC               	iorwf	___xxtofl@arg+2,f
 11891  16FC  0827               	movf	??___xxtofl+3,w
 11892  16FD  04AD               	iorwf	___xxtofl@arg+3,f
 11893  16FE                     l5706:
 11894  16FE  0828               	movf	___xxtofl@sign,w
 11895  16FF  1903               	btfsc	3,2
 11896  1700  2F02               	goto	u7091
 11897  1701  2F03               	goto	u7090
 11898  1702                     u7091:
 11899  1702  2F08               	goto	l5712
 11900  1703                     u7090:
 11901  1703                     l5708:
 11902  1703  1FA3               	btfss	___xxtofl@val+3,7
 11903  1704  2F06               	goto	u7101
 11904  1705  2F07               	goto	u7100
 11905  1706                     u7101:
 11906  1706  2F08               	goto	l5712
 11907  1707                     u7100:
 11908  1707                     l5710:
 11909  1707  17AD               	bsf	___xxtofl@arg+3,7
 11910  1708                     l5712:
 11911  1708  082D               	movf	___xxtofl@arg+3,w
 11912  1709  00A3               	movwf	?___xxtofl+3
 11913  170A  082C               	movf	___xxtofl@arg+2,w
 11914  170B  00A2               	movwf	?___xxtofl+2
 11915  170C  082B               	movf	___xxtofl@arg+1,w
 11916  170D  00A1               	movwf	?___xxtofl+1
 11917  170E  082A               	movf	___xxtofl@arg,w
 11918  170F  00A0               	movwf	?___xxtofl
 11919  1710                     l1144:
 11920  1710  0008               	return
 11921  1711                     __end_of___xxtofl:
 11922                           
 11923                           	psect	text54
 11924  14A0                     __ptext54:	
 11925 ;; *************** function ___fltol *****************
 11926 ;; Defined at:
 11927 ;;		line 43 in file "/opt/microchip/xc8/v2.32/pic/sources/c90/common/fltol.c"
 11928 ;; Parameters:    Size  Location     Type
 11929 ;;  f1              4   40[BANK0 ] unsigned char 
 11930 ;; Auto vars:     Size  Location     Type
 11931 ;;  exp1            1    8[COMMON] unsigned char 
 11932 ;;  sign1           1    7[COMMON] unsigned char 
 11933 ;; Return value:  Size  Location     Type
 11934 ;;                  4   40[BANK0 ] long 
 11935 ;; Registers used:
 11936 ;;		wreg, status,2, status,0
 11937 ;; Tracked objects:
 11938 ;;		On entry : 0/0
 11939 ;;		On exit  : 0/0
 11940 ;;		Unchanged: 0/0
 11941 ;; Data sizes:     COMMON   BANK0   BANK1   BANK3   BANK2
 11942 ;;      Params:         0       4       0       0       0
 11943 ;;      Locals:         2       0       0       0       0
 11944 ;;      Temps:          0       5       0       0       0
 11945 ;;      Totals:         2       9       0       0       0
 11946 ;;Total ram usage:       11 bytes
 11947 ;; Hardware stack levels used: 1
 11948 ;; Hardware stack levels required when called: 1
 11949 ;; This function calls:
 11950 ;;		Nothing
 11951 ;; This function is called by:
 11952 ;;		_main
 11953 ;; This function uses a non-reentrant model
 11954 ;;
 11955                           
 11956                           
 11957                           ;psect for function ___fltol
 11958  14A0                     ___fltol:
 11959  14A0                     l5496:	
 11960                           ;incstack = 0
 11961                           ; Regs used in ___fltol: [wreg+status,2+status,0]
 11962                           
 11963  14A0  1003               	clrc
 11964  14A1  1283               	bcf	3,5	;RP0=0, select bank0
 11965  14A2  1303               	bcf	3,6	;RP1=0, select bank0
 11966  14A3  0D4A               	rlf	___fltol@f1+2,w
 11967  14A4  0D4B               	rlf	___fltol@f1+3,w
 11968  14A5  00CC               	movwf	??___fltol
 11969  14A6  084C               	movf	??___fltol,w
 11970  14A7  00F8               	movwf	___fltol@exp1
 11971  14A8  0878               	movf	___fltol@exp1,w
 11972  14A9  1D03               	btfss	3,2
 11973  14AA  2CAC               	goto	u6501
 11974  14AB  2CAD               	goto	u6500
 11975  14AC                     u6501:
 11976  14AC  2CB6               	goto	l5502
 11977  14AD                     u6500:
 11978  14AD                     l5498:
 11979  14AD  3000               	movlw	0
 11980  14AE  00CB               	movwf	?___fltol+3
 11981  14AF  3000               	movlw	0
 11982  14B0  00CA               	movwf	?___fltol+2
 11983  14B1  3000               	movlw	0
 11984  14B2  00C9               	movwf	?___fltol+1
 11985  14B3  3000               	movlw	0
 11986  14B4  00C8               	movwf	?___fltol
 11987  14B5  2D1B               	goto	l895
 11988  14B6                     l5502:
 11989  14B6  0848               	movf	___fltol@f1,w
 11990  14B7  00CC               	movwf	??___fltol
 11991  14B8  0849               	movf	___fltol@f1+1,w
 11992  14B9  00CD               	movwf	??___fltol+1
 11993  14BA  084A               	movf	___fltol@f1+2,w
 11994  14BB  00CE               	movwf	??___fltol+2
 11995  14BC  084B               	movf	___fltol@f1+3,w
 11996  14BD  00CF               	movwf	??___fltol+3
 11997  14BE  301F               	movlw	31
 11998  14BF                     u6515:
 11999  14BF  1003               	clrc
 12000  14C0  0CCF               	rrf	??___fltol+3,f
 12001  14C1  0CCE               	rrf	??___fltol+2,f
 12002  14C2  0CCD               	rrf	??___fltol+1,f
 12003  14C3  0CCC               	rrf	??___fltol,f
 12004  14C4                     u6510:
 12005  14C4  3EFF               	addlw	-1
 12006  14C5  1D03               	skipz
 12007  14C6  2CBF               	goto	u6515
 12008  14C7  084C               	movf	??___fltol,w
 12009  14C8  00D0               	movwf	??___fltol+4
 12010  14C9  0850               	movf	??___fltol+4,w
 12011  14CA  00F7               	movwf	___fltol@sign1
 12012  14CB                     l5504:
 12013  14CB  17CA               	bsf	___fltol@f1+2,7
 12014  14CC                     l5506:
 12015  14CC  30FF               	movlw	255
 12016  14CD  05C8               	andwf	___fltol@f1,f
 12017  14CE  30FF               	movlw	255
 12018  14CF  05C9               	andwf	___fltol@f1+1,f
 12019  14D0  30FF               	movlw	255
 12020  14D1  05CA               	andwf	___fltol@f1+2,f
 12021  14D2  3000               	movlw	0
 12022  14D3  05CB               	andwf	___fltol@f1+3,f
 12023  14D4                     l5508:
 12024  14D4  3096               	movlw	150
 12025  14D5  02F8               	subwf	___fltol@exp1,f
 12026  14D6                     l5510:
 12027  14D6  1FF8               	btfss	___fltol@exp1,7
 12028  14D7  2CD9               	goto	u6521
 12029  14D8  2CDA               	goto	u6520
 12030  14D9                     u6521:
 12031  14D9  2CF4               	goto	l5520
 12032  14DA                     u6520:
 12033  14DA                     l5512:
 12034  14DA  0878               	movf	___fltol@exp1,w
 12035  14DB  3A80               	xorlw	128
 12036  14DC  3E97               	addlw	151
 12037  14DD  1803               	skipnc
 12038  14DE  2CE0               	goto	u6531
 12039  14DF  2CE1               	goto	u6530
 12040  14E0                     u6531:
 12041  14E0  2CE2               	goto	l5518
 12042  14E1                     u6530:
 12043  14E1  2CAD               	goto	l5498
 12044  14E2                     l5518:
 12045  14E2  3001               	movlw	1
 12046  14E3                     u6545:
 12047  14E3  1003               	clrc
 12048  14E4  0CCB               	rrf	___fltol@f1+3,f
 12049  14E5  0CCA               	rrf	___fltol@f1+2,f
 12050  14E6  0CC9               	rrf	___fltol@f1+1,f
 12051  14E7  0CC8               	rrf	___fltol@f1,f
 12052  14E8  3EFF               	addlw	-1
 12053  14E9  1D03               	skipz
 12054  14EA  2CE3               	goto	u6545
 12055  14EB  3001               	movlw	1
 12056  14EC  00CC               	movwf	??___fltol
 12057  14ED  084C               	movf	??___fltol,w
 12058  14EE  07F8               	addwf	___fltol@exp1,f
 12059  14EF  1D03               	btfss	3,2
 12060  14F0  2CF2               	goto	u6551
 12061  14F1  2CF3               	goto	u6550
 12062  14F2                     u6551:
 12063  14F2  2CE2               	goto	l5518
 12064  14F3                     u6550:
 12065  14F3  2D0B               	goto	l5528
 12066  14F4                     l5520:
 12067  14F4  3020               	movlw	32
 12068  14F5  0278               	subwf	___fltol@exp1,w
 12069  14F6  1C03               	skipc
 12070  14F7  2CF9               	goto	u6561
 12071  14F8  2CFA               	goto	u6560
 12072  14F9                     u6561:
 12073  14F9  2D06               	goto	l902
 12074  14FA                     u6560:
 12075  14FA  2CAD               	goto	l5498
 12076  14FB                     l5526:
 12077  14FB  3001               	movlw	1
 12078  14FC  00CC               	movwf	??___fltol
 12079  14FD                     u6575:
 12080  14FD  1003               	clrc
 12081  14FE  0DC8               	rlf	___fltol@f1,f
 12082  14FF  0DC9               	rlf	___fltol@f1+1,f
 12083  1500  0DCA               	rlf	___fltol@f1+2,f
 12084  1501  0DCB               	rlf	___fltol@f1+3,f
 12085  1502  0BCC               	decfsz	??___fltol,f
 12086  1503  2CFD               	goto	u6575
 12087  1504  3001               	movlw	1
 12088  1505  02F8               	subwf	___fltol@exp1,f
 12089  1506                     l902:
 12090  1506  0878               	movf	___fltol@exp1,w
 12091  1507  1D03               	btfss	3,2
 12092  1508  2D0A               	goto	u6581
 12093  1509  2D0B               	goto	u6580
 12094  150A                     u6581:
 12095  150A  2CFB               	goto	l5526
 12096  150B                     u6580:
 12097  150B                     l5528:
 12098  150B  0877               	movf	___fltol@sign1,w
 12099  150C  1903               	btfsc	3,2
 12100  150D  2D0F               	goto	u6591
 12101  150E  2D10               	goto	u6590
 12102  150F                     u6591:
 12103  150F  2D1B               	goto	l905
 12104  1510                     u6590:
 12105  1510                     l5530:
 12106  1510  09C8               	comf	___fltol@f1,f
 12107  1511  09C9               	comf	___fltol@f1+1,f
 12108  1512  09CA               	comf	___fltol@f1+2,f
 12109  1513  09CB               	comf	___fltol@f1+3,f
 12110  1514  0AC8               	incf	___fltol@f1,f
 12111  1515  1903               	skipnz
 12112  1516  0AC9               	incf	___fltol@f1+1,f
 12113  1517  1903               	skipnz
 12114  1518  0ACA               	incf	___fltol@f1+2,f
 12115  1519  1903               	skipnz
 12116  151A  0ACB               	incf	___fltol@f1+3,f
 12117  151B                     l905:
 12118  151B                     l895:
 12119  151B  0008               	return
 12120  151C                     __end_of___fltol:
 12121                           
 12122                           	psect	text55
 12123  0476                     __ptext55:	
 12124 ;; *************** function ___flmul *****************
 12125 ;; Defined at:
 12126 ;;		line 8 in file "/opt/microchip/xc8/v2.32/pic/sources/c90/common/sprcmul.c"
 12127 ;; Parameters:    Size  Location     Type
 12128 ;;  b               4   14[BANK0 ] long 
 12129 ;;  a               4   18[BANK0 ] long 
 12130 ;; Auto vars:     Size  Location     Type
 12131 ;;  prod            4   34[BANK0 ] struct .
 12132 ;;  grs             4   29[BANK0 ] unsigned long 
 12133 ;;  temp            2   38[BANK0 ] struct .
 12134 ;;  bexp            1   33[BANK0 ] unsigned char 
 12135 ;;  aexp            1   28[BANK0 ] unsigned char 
 12136 ;;  sign            1   27[BANK0 ] unsigned char 
 12137 ;; Return value:  Size  Location     Type
 12138 ;;                  4   14[BANK0 ] unsigned char 
 12139 ;; Registers used:
 12140 ;;		wreg, status,2, status,0, btemp+1, pclath, cstack
 12141 ;; Tracked objects:
 12142 ;;		On entry : 0/0
 12143 ;;		On exit  : 0/0
 12144 ;;		Unchanged: 0/0
 12145 ;; Data sizes:     COMMON   BANK0   BANK1   BANK3   BANK2
 12146 ;;      Params:         0       8       0       0       0
 12147 ;;      Locals:         0      13       0       0       0
 12148 ;;      Temps:          0       5       0       0       0
 12149 ;;      Totals:         0      26       0       0       0
 12150 ;;Total ram usage:       26 bytes
 12151 ;; Hardware stack levels used: 1
 12152 ;; Hardware stack levels required when called: 2
 12153 ;; This function calls:
 12154 ;;		__Umul8_16
 12155 ;; This function is called by:
 12156 ;;		_main
 12157 ;; This function uses a non-reentrant model
 12158 ;;
 12159                           
 12160                           
 12161                           ;psect for function ___flmul
 12162  0476                     ___flmul:
 12163  0476                     l5532:	
 12164                           ;incstack = 0
 12165                           ; Regs used in ___flmul: [wreg+status,2+status,0+btemp+1+pclath+cstack]
 12166                           
 12167  0476  1283               	bcf	3,5	;RP0=0, select bank0
 12168  0477  1303               	bcf	3,6	;RP1=0, select bank0
 12169  0478  0831               	movf	___flmul@b+3,w
 12170  0479  3980               	andlw	128
 12171  047A  00B6               	movwf	??___flmul
 12172  047B  0836               	movf	??___flmul,w
 12173  047C  00BB               	movwf	___flmul@sign
 12174  047D                     l5534:
 12175  047D  0831               	movf	___flmul@b+3,w
 12176  047E  00B6               	movwf	??___flmul
 12177  047F  0736               	addwf	??___flmul,w
 12178  0480  00B7               	movwf	??___flmul+1
 12179  0481  0837               	movf	??___flmul+1,w
 12180  0482  00C1               	movwf	___flmul@bexp
 12181  0483                     l5536:
 12182  0483  1FB0               	btfss	___flmul@b+2,7
 12183  0484  2C86               	goto	u6601
 12184  0485  2C87               	goto	u6600
 12185  0486                     u6601:
 12186  0486  2C88               	goto	l5540
 12187  0487                     u6600:
 12188  0487                     l5538:
 12189  0487  1441               	bsf	___flmul@bexp,0
 12190  0488                     l5540:
 12191  0488  0841               	movf	___flmul@bexp,w
 12192  0489  1903               	btfsc	3,2
 12193  048A  2C8C               	goto	u6611
 12194  048B  2C8D               	goto	u6610
 12195  048C                     u6611:
 12196  048C  2C9C               	goto	l5548
 12197  048D                     u6610:
 12198  048D                     l5542:
 12199  048D  0A41               	incf	___flmul@bexp,w
 12200  048E  1D03               	btfss	3,2
 12201  048F  2C91               	goto	u6621
 12202  0490  2C92               	goto	u6620
 12203  0491                     u6621:
 12204  0491  2C9A               	goto	l5546
 12205  0492                     u6620:
 12206  0492                     l5544:
 12207  0492  3000               	movlw	0
 12208  0493  00B1               	movwf	___flmul@b+3
 12209  0494  3000               	movlw	0
 12210  0495  00B0               	movwf	___flmul@b+2
 12211  0496  3000               	movlw	0
 12212  0497  00AF               	movwf	___flmul@b+1
 12213  0498  3000               	movlw	0
 12214  0499  00AE               	movwf	___flmul@b
 12215  049A                     l5546:
 12216  049A  17B0               	bsf	___flmul@b+2,7
 12217  049B  2CA4               	goto	l5550
 12218  049C                     l5548:
 12219  049C  3000               	movlw	0
 12220  049D  00B1               	movwf	___flmul@b+3
 12221  049E  3000               	movlw	0
 12222  049F  00B0               	movwf	___flmul@b+2
 12223  04A0  3000               	movlw	0
 12224  04A1  00AF               	movwf	___flmul@b+1
 12225  04A2  3000               	movlw	0
 12226  04A3  00AE               	movwf	___flmul@b
 12227  04A4                     l5550:
 12228  04A4  0835               	movf	___flmul@a+3,w
 12229  04A5  3980               	andlw	128
 12230  04A6  00B6               	movwf	??___flmul
 12231  04A7  0836               	movf	??___flmul,w
 12232  04A8  06BB               	xorwf	___flmul@sign,f
 12233  04A9                     l5552:
 12234  04A9  0835               	movf	___flmul@a+3,w
 12235  04AA  00B6               	movwf	??___flmul
 12236  04AB  0736               	addwf	??___flmul,w
 12237  04AC  00B7               	movwf	??___flmul+1
 12238  04AD  0837               	movf	??___flmul+1,w
 12239  04AE  00BC               	movwf	___flmul@aexp
 12240  04AF                     l5554:
 12241  04AF  1FB4               	btfss	___flmul@a+2,7
 12242  04B0  2CB2               	goto	u6631
 12243  04B1  2CB3               	goto	u6630
 12244  04B2                     u6631:
 12245  04B2  2CB4               	goto	l5558
 12246  04B3                     u6630:
 12247  04B3                     l5556:
 12248  04B3  143C               	bsf	___flmul@aexp,0
 12249  04B4                     l5558:
 12250  04B4  083C               	movf	___flmul@aexp,w
 12251  04B5  1903               	btfsc	3,2
 12252  04B6  2CB8               	goto	u6641
 12253  04B7  2CB9               	goto	u6640
 12254  04B8                     u6641:
 12255  04B8  2CC8               	goto	l5566
 12256  04B9                     u6640:
 12257  04B9                     l5560:
 12258  04B9  0A3C               	incf	___flmul@aexp,w
 12259  04BA  1D03               	btfss	3,2
 12260  04BB  2CBD               	goto	u6651
 12261  04BC  2CBE               	goto	u6650
 12262  04BD                     u6651:
 12263  04BD  2CC6               	goto	l5564
 12264  04BE                     u6650:
 12265  04BE                     l5562:
 12266  04BE  3000               	movlw	0
 12267  04BF  00B5               	movwf	___flmul@a+3
 12268  04C0  3000               	movlw	0
 12269  04C1  00B4               	movwf	___flmul@a+2
 12270  04C2  3000               	movlw	0
 12271  04C3  00B3               	movwf	___flmul@a+1
 12272  04C4  3000               	movlw	0
 12273  04C5  00B2               	movwf	___flmul@a
 12274  04C6                     l5564:
 12275  04C6  17B4               	bsf	___flmul@a+2,7
 12276  04C7  2CD0               	goto	l5568
 12277  04C8                     l5566:
 12278  04C8  3000               	movlw	0
 12279  04C9  00B5               	movwf	___flmul@a+3
 12280  04CA  3000               	movlw	0
 12281  04CB  00B4               	movwf	___flmul@a+2
 12282  04CC  3000               	movlw	0
 12283  04CD  00B3               	movwf	___flmul@a+1
 12284  04CE  3000               	movlw	0
 12285  04CF  00B2               	movwf	___flmul@a
 12286  04D0                     l5568:
 12287  04D0  083C               	movf	___flmul@aexp,w
 12288  04D1  1903               	btfsc	3,2
 12289  04D2  2CD4               	goto	u6661
 12290  04D3  2CD5               	goto	u6660
 12291  04D4                     u6661:
 12292  04D4  2CDA               	goto	l5572
 12293  04D5                     u6660:
 12294  04D5                     l5570:
 12295  04D5  0841               	movf	___flmul@bexp,w
 12296  04D6  1D03               	btfss	3,2
 12297  04D7  2CD9               	goto	u6671
 12298  04D8  2CDA               	goto	u6670
 12299  04D9                     u6671:
 12300  04D9  2CE3               	goto	l5576
 12301  04DA                     u6670:
 12302  04DA                     l5572:
 12303  04DA  3000               	movlw	0
 12304  04DB  00B1               	movwf	?___flmul+3
 12305  04DC  3000               	movlw	0
 12306  04DD  00B0               	movwf	?___flmul+2
 12307  04DE  3000               	movlw	0
 12308  04DF  00AF               	movwf	?___flmul+1
 12309  04E0  3000               	movlw	0
 12310  04E1  00AE               	movwf	?___flmul
 12311  04E2  2FD6               	goto	l1098
 12312  04E3                     l5576:
 12313  04E3  082E               	movf	___flmul@b,w
 12314  04E4  00B6               	movwf	??___flmul
 12315  04E5  0836               	movf	??___flmul,w
 12316  04E6  00F3               	movwf	__Umul8_16@multiplicand
 12317  04E7  0834               	movf	___flmul@a+2,w
 12318  04E8  160A  158A  24B9  120A  118A  	fcall	__Umul8_16
 12319  04ED  0874               	movf	?__Umul8_16+1,w
 12320  04EE  1283               	bcf	3,5	;RP0=0, select bank0
 12321  04EF  1303               	bcf	3,6	;RP1=0, select bank0
 12322  04F0  00C7               	movwf	___flmul@temp+1
 12323  04F1  0873               	movf	?__Umul8_16,w
 12324  04F2  00C6               	movwf	___flmul@temp
 12325  04F3                     l5578:
 12326  04F3  0846               	movf	___flmul@temp,w
 12327  04F4  00B6               	movwf	??___flmul
 12328  04F5  01B7               	clrf	??___flmul+1
 12329  04F6  01B8               	clrf	??___flmul+2
 12330  04F7  01B9               	clrf	??___flmul+3
 12331  04F8  0839               	movf	??___flmul+3,w
 12332  04F9  00C0               	movwf	___flmul@grs+3
 12333  04FA  0838               	movf	??___flmul+2,w
 12334  04FB  00BF               	movwf	___flmul@grs+2
 12335  04FC  0837               	movf	??___flmul+1,w
 12336  04FD  00BE               	movwf	___flmul@grs+1
 12337  04FE  0836               	movf	??___flmul,w
 12338  04FF  00BD               	movwf	___flmul@grs
 12339  0500                     l5580:
 12340  0500  0847               	movf	___flmul@temp+1,w
 12341  0501  00B6               	movwf	??___flmul
 12342  0502  01B7               	clrf	??___flmul+1
 12343  0503  01B8               	clrf	??___flmul+2
 12344  0504  01B9               	clrf	??___flmul+3
 12345  0505  0839               	movf	??___flmul+3,w
 12346  0506  00C5               	movwf	___flmul@prod+3
 12347  0507  0838               	movf	??___flmul+2,w
 12348  0508  00C4               	movwf	___flmul@prod+2
 12349  0509  0837               	movf	??___flmul+1,w
 12350  050A  00C3               	movwf	___flmul@prod+1
 12351  050B  0836               	movf	??___flmul,w
 12352  050C  00C2               	movwf	___flmul@prod
 12353  050D  082F               	movf	___flmul@b+1,w
 12354  050E  00B6               	movwf	??___flmul
 12355  050F  0836               	movf	??___flmul,w
 12356  0510  00F3               	movwf	__Umul8_16@multiplicand
 12357  0511  0833               	movf	___flmul@a+1,w
 12358  0512  160A  158A  24B9  120A  118A  	fcall	__Umul8_16
 12359  0517  0874               	movf	?__Umul8_16+1,w
 12360  0518  1283               	bcf	3,5	;RP0=0, select bank0
 12361  0519  1303               	bcf	3,6	;RP1=0, select bank0
 12362  051A  00C7               	movwf	___flmul@temp+1
 12363  051B  0873               	movf	?__Umul8_16,w
 12364  051C  00C6               	movwf	___flmul@temp
 12365  051D                     l5582:
 12366  051D  0846               	movf	___flmul@temp,w
 12367  051E  00B6               	movwf	??___flmul
 12368  051F  01B7               	clrf	??___flmul+1
 12369  0520  01B8               	clrf	??___flmul+2
 12370  0521  01B9               	clrf	??___flmul+3
 12371  0522  0836               	movf	??___flmul,w
 12372  0523  07BD               	addwf	___flmul@grs,f
 12373  0524  0837               	movf	??___flmul+1,w
 12374  0525  1103               	clrz
 12375  0526  1803               	skipnc
 12376  0527  3E01               	addlw	1
 12377  0528  1903               	skipnz
 12378  0529  2D2B               	goto	u6681
 12379  052A  07BE               	addwf	___flmul@grs+1,f
 12380  052B                     u6681:
 12381  052B  0838               	movf	??___flmul+2,w
 12382  052C  1103               	clrz
 12383  052D  1803               	skipnc
 12384  052E  3E01               	addlw	1
 12385  052F  1903               	skipnz
 12386  0530  2D32               	goto	u6682
 12387  0531  07BF               	addwf	___flmul@grs+2,f
 12388  0532                     u6682:
 12389  0532  0839               	movf	??___flmul+3,w
 12390  0533  1103               	clrz
 12391  0534  1803               	skipnc
 12392  0535  3E01               	addlw	1
 12393  0536  1903               	skipnz
 12394  0537  2D39               	goto	u6683
 12395  0538  07C0               	addwf	___flmul@grs+3,f
 12396  0539                     u6683:
 12397  0539                     l5584:
 12398  0539  0847               	movf	___flmul@temp+1,w
 12399  053A  00B6               	movwf	??___flmul
 12400  053B  01B7               	clrf	??___flmul+1
 12401  053C  01B8               	clrf	??___flmul+2
 12402  053D  01B9               	clrf	??___flmul+3
 12403  053E  0836               	movf	??___flmul,w
 12404  053F  07C2               	addwf	___flmul@prod,f
 12405  0540  0837               	movf	??___flmul+1,w
 12406  0541  1103               	clrz
 12407  0542  1803               	skipnc
 12408  0543  3E01               	addlw	1
 12409  0544  1903               	skipnz
 12410  0545  2D47               	goto	u6691
 12411  0546  07C3               	addwf	___flmul@prod+1,f
 12412  0547                     u6691:
 12413  0547  0838               	movf	??___flmul+2,w
 12414  0548  1103               	clrz
 12415  0549  1803               	skipnc
 12416  054A  3E01               	addlw	1
 12417  054B  1903               	skipnz
 12418  054C  2D4E               	goto	u6692
 12419  054D  07C4               	addwf	___flmul@prod+2,f
 12420  054E                     u6692:
 12421  054E  0839               	movf	??___flmul+3,w
 12422  054F  1103               	clrz
 12423  0550  1803               	skipnc
 12424  0551  3E01               	addlw	1
 12425  0552  1903               	skipnz
 12426  0553  2D55               	goto	u6693
 12427  0554  07C5               	addwf	___flmul@prod+3,f
 12428  0555                     u6693:
 12429  0555  0830               	movf	___flmul@b+2,w
 12430  0556  00B6               	movwf	??___flmul
 12431  0557  0836               	movf	??___flmul,w
 12432  0558  00F3               	movwf	__Umul8_16@multiplicand
 12433  0559  0832               	movf	___flmul@a,w
 12434  055A  160A  158A  24B9  120A  118A  	fcall	__Umul8_16
 12435  055F  0874               	movf	?__Umul8_16+1,w
 12436  0560  1283               	bcf	3,5	;RP0=0, select bank0
 12437  0561  1303               	bcf	3,6	;RP1=0, select bank0
 12438  0562  00C7               	movwf	___flmul@temp+1
 12439  0563  0873               	movf	?__Umul8_16,w
 12440  0564  00C6               	movwf	___flmul@temp
 12441  0565                     l5586:
 12442  0565  0846               	movf	___flmul@temp,w
 12443  0566  00B6               	movwf	??___flmul
 12444  0567  01B7               	clrf	??___flmul+1
 12445  0568  01B8               	clrf	??___flmul+2
 12446  0569  01B9               	clrf	??___flmul+3
 12447  056A  0836               	movf	??___flmul,w
 12448  056B  07BD               	addwf	___flmul@grs,f
 12449  056C  0837               	movf	??___flmul+1,w
 12450  056D  1103               	clrz
 12451  056E  1803               	skipnc
 12452  056F  3E01               	addlw	1
 12453  0570  1903               	skipnz
 12454  0571  2D73               	goto	u6701
 12455  0572  07BE               	addwf	___flmul@grs+1,f
 12456  0573                     u6701:
 12457  0573  0838               	movf	??___flmul+2,w
 12458  0574  1103               	clrz
 12459  0575  1803               	skipnc
 12460  0576  3E01               	addlw	1
 12461  0577  1903               	skipnz
 12462  0578  2D7A               	goto	u6702
 12463  0579  07BF               	addwf	___flmul@grs+2,f
 12464  057A                     u6702:
 12465  057A  0839               	movf	??___flmul+3,w
 12466  057B  1103               	clrz
 12467  057C  1803               	skipnc
 12468  057D  3E01               	addlw	1
 12469  057E  1903               	skipnz
 12470  057F  2D81               	goto	u6703
 12471  0580  07C0               	addwf	___flmul@grs+3,f
 12472  0581                     u6703:
 12473  0581                     l5588:
 12474  0581  0847               	movf	___flmul@temp+1,w
 12475  0582  00B6               	movwf	??___flmul
 12476  0583  01B7               	clrf	??___flmul+1
 12477  0584  01B8               	clrf	??___flmul+2
 12478  0585  01B9               	clrf	??___flmul+3
 12479  0586  0836               	movf	??___flmul,w
 12480  0587  07C2               	addwf	___flmul@prod,f
 12481  0588  0837               	movf	??___flmul+1,w
 12482  0589  1103               	clrz
 12483  058A  1803               	skipnc
 12484  058B  3E01               	addlw	1
 12485  058C  1903               	skipnz
 12486  058D  2D8F               	goto	u6711
 12487  058E  07C3               	addwf	___flmul@prod+1,f
 12488  058F                     u6711:
 12489  058F  0838               	movf	??___flmul+2,w
 12490  0590  1103               	clrz
 12491  0591  1803               	skipnc
 12492  0592  3E01               	addlw	1
 12493  0593  1903               	skipnz
 12494  0594  2D96               	goto	u6712
 12495  0595  07C4               	addwf	___flmul@prod+2,f
 12496  0596                     u6712:
 12497  0596  0839               	movf	??___flmul+3,w
 12498  0597  1103               	clrz
 12499  0598  1803               	skipnc
 12500  0599  3E01               	addlw	1
 12501  059A  1903               	skipnz
 12502  059B  2D9D               	goto	u6713
 12503  059C  07C5               	addwf	___flmul@prod+3,f
 12504  059D                     u6713:
 12505  059D                     l5590:
 12506  059D  3008               	movlw	8
 12507  059E  00B6               	movwf	??___flmul
 12508  059F                     u6725:
 12509  059F  1003               	clrc
 12510  05A0  0DBD               	rlf	___flmul@grs,f
 12511  05A1  0DBE               	rlf	___flmul@grs+1,f
 12512  05A2  0DBF               	rlf	___flmul@grs+2,f
 12513  05A3  0DC0               	rlf	___flmul@grs+3,f
 12514  05A4  0BB6               	decfsz	??___flmul,f
 12515  05A5  2D9F               	goto	u6725
 12516  05A6                     l5592:
 12517  05A6  082F               	movf	___flmul@b+1,w
 12518  05A7  00B6               	movwf	??___flmul
 12519  05A8  0836               	movf	??___flmul,w
 12520  05A9  00F3               	movwf	__Umul8_16@multiplicand
 12521  05AA  0832               	movf	___flmul@a,w
 12522  05AB  160A  158A  24B9  120A  118A  	fcall	__Umul8_16
 12523  05B0  0874               	movf	?__Umul8_16+1,w
 12524  05B1  1283               	bcf	3,5	;RP0=0, select bank0
 12525  05B2  1303               	bcf	3,6	;RP1=0, select bank0
 12526  05B3  00C7               	movwf	___flmul@temp+1
 12527  05B4  0873               	movf	?__Umul8_16,w
 12528  05B5  00C6               	movwf	___flmul@temp
 12529  05B6                     l5594:
 12530  05B6  0846               	movf	___flmul@temp,w
 12531  05B7  00B6               	movwf	??___flmul
 12532  05B8  0847               	movf	___flmul@temp+1,w
 12533  05B9  00B7               	movwf	??___flmul+1
 12534  05BA  01B8               	clrf	??___flmul+2
 12535  05BB  01B9               	clrf	??___flmul+3
 12536  05BC  0836               	movf	??___flmul,w
 12537  05BD  07BD               	addwf	___flmul@grs,f
 12538  05BE  0837               	movf	??___flmul+1,w
 12539  05BF  1103               	clrz
 12540  05C0  1803               	skipnc
 12541  05C1  3E01               	addlw	1
 12542  05C2  1903               	skipnz
 12543  05C3  2DC5               	goto	u6731
 12544  05C4  07BE               	addwf	___flmul@grs+1,f
 12545  05C5                     u6731:
 12546  05C5  0838               	movf	??___flmul+2,w
 12547  05C6  1103               	clrz
 12548  05C7  1803               	skipnc
 12549  05C8  3E01               	addlw	1
 12550  05C9  1903               	skipnz
 12551  05CA  2DCC               	goto	u6732
 12552  05CB  07BF               	addwf	___flmul@grs+2,f
 12553  05CC                     u6732:
 12554  05CC  0839               	movf	??___flmul+3,w
 12555  05CD  1103               	clrz
 12556  05CE  1803               	skipnc
 12557  05CF  3E01               	addlw	1
 12558  05D0  1903               	skipnz
 12559  05D1  2DD3               	goto	u6733
 12560  05D2  07C0               	addwf	___flmul@grs+3,f
 12561  05D3                     u6733:
 12562  05D3                     l5596:
 12563  05D3  082E               	movf	___flmul@b,w
 12564  05D4  00B6               	movwf	??___flmul
 12565  05D5  0836               	movf	??___flmul,w
 12566  05D6  00F3               	movwf	__Umul8_16@multiplicand
 12567  05D7  0833               	movf	___flmul@a+1,w
 12568  05D8  160A  158A  24B9  120A  118A  	fcall	__Umul8_16
 12569  05DD  0874               	movf	?__Umul8_16+1,w
 12570  05DE  1283               	bcf	3,5	;RP0=0, select bank0
 12571  05DF  1303               	bcf	3,6	;RP1=0, select bank0
 12572  05E0  00C7               	movwf	___flmul@temp+1
 12573  05E1  0873               	movf	?__Umul8_16,w
 12574  05E2  00C6               	movwf	___flmul@temp
 12575  05E3                     l5598:
 12576  05E3  0846               	movf	___flmul@temp,w
 12577  05E4  00B6               	movwf	??___flmul
 12578  05E5  0847               	movf	___flmul@temp+1,w
 12579  05E6  00B7               	movwf	??___flmul+1
 12580  05E7  01B8               	clrf	??___flmul+2
 12581  05E8  01B9               	clrf	??___flmul+3
 12582  05E9  0836               	movf	??___flmul,w
 12583  05EA  07BD               	addwf	___flmul@grs,f
 12584  05EB  0837               	movf	??___flmul+1,w
 12585  05EC  1103               	clrz
 12586  05ED  1803               	skipnc
 12587  05EE  3E01               	addlw	1
 12588  05EF  1903               	skipnz
 12589  05F0  2DF2               	goto	u6741
 12590  05F1  07BE               	addwf	___flmul@grs+1,f
 12591  05F2                     u6741:
 12592  05F2  0838               	movf	??___flmul+2,w
 12593  05F3  1103               	clrz
 12594  05F4  1803               	skipnc
 12595  05F5  3E01               	addlw	1
 12596  05F6  1903               	skipnz
 12597  05F7  2DF9               	goto	u6742
 12598  05F8  07BF               	addwf	___flmul@grs+2,f
 12599  05F9                     u6742:
 12600  05F9  0839               	movf	??___flmul+3,w
 12601  05FA  1103               	clrz
 12602  05FB  1803               	skipnc
 12603  05FC  3E01               	addlw	1
 12604  05FD  1903               	skipnz
 12605  05FE  2E00               	goto	u6743
 12606  05FF  07C0               	addwf	___flmul@grs+3,f
 12607  0600                     u6743:
 12608  0600                     l5600:
 12609  0600  3008               	movlw	8
 12610  0601  00B6               	movwf	??___flmul
 12611  0602                     u6755:
 12612  0602  1003               	clrc
 12613  0603  0DBD               	rlf	___flmul@grs,f
 12614  0604  0DBE               	rlf	___flmul@grs+1,f
 12615  0605  0DBF               	rlf	___flmul@grs+2,f
 12616  0606  0DC0               	rlf	___flmul@grs+3,f
 12617  0607  0BB6               	decfsz	??___flmul,f
 12618  0608  2E02               	goto	u6755
 12619  0609  082E               	movf	___flmul@b,w
 12620  060A  00B6               	movwf	??___flmul
 12621  060B  0836               	movf	??___flmul,w
 12622  060C  00F3               	movwf	__Umul8_16@multiplicand
 12623  060D  0832               	movf	___flmul@a,w
 12624  060E  160A  158A  24B9  120A  118A  	fcall	__Umul8_16
 12625  0613  0874               	movf	?__Umul8_16+1,w
 12626  0614  1283               	bcf	3,5	;RP0=0, select bank0
 12627  0615  1303               	bcf	3,6	;RP1=0, select bank0
 12628  0616  00C7               	movwf	___flmul@temp+1
 12629  0617  0873               	movf	?__Umul8_16,w
 12630  0618  00C6               	movwf	___flmul@temp
 12631  0619                     l5602:
 12632  0619  0846               	movf	___flmul@temp,w
 12633  061A  00B6               	movwf	??___flmul
 12634  061B  0847               	movf	___flmul@temp+1,w
 12635  061C  00B7               	movwf	??___flmul+1
 12636  061D  01B8               	clrf	??___flmul+2
 12637  061E  01B9               	clrf	??___flmul+3
 12638  061F  0836               	movf	??___flmul,w
 12639  0620  07BD               	addwf	___flmul@grs,f
 12640  0621  0837               	movf	??___flmul+1,w
 12641  0622  1103               	clrz
 12642  0623  1803               	skipnc
 12643  0624  3E01               	addlw	1
 12644  0625  1903               	skipnz
 12645  0626  2E28               	goto	u6761
 12646  0627  07BE               	addwf	___flmul@grs+1,f
 12647  0628                     u6761:
 12648  0628  0838               	movf	??___flmul+2,w
 12649  0629  1103               	clrz
 12650  062A  1803               	skipnc
 12651  062B  3E01               	addlw	1
 12652  062C  1903               	skipnz
 12653  062D  2E2F               	goto	u6762
 12654  062E  07BF               	addwf	___flmul@grs+2,f
 12655  062F                     u6762:
 12656  062F  0839               	movf	??___flmul+3,w
 12657  0630  1103               	clrz
 12658  0631  1803               	skipnc
 12659  0632  3E01               	addlw	1
 12660  0633  1903               	skipnz
 12661  0634  2E36               	goto	u6763
 12662  0635  07C0               	addwf	___flmul@grs+3,f
 12663  0636                     u6763:
 12664  0636                     l5604:
 12665  0636  082F               	movf	___flmul@b+1,w
 12666  0637  00B6               	movwf	??___flmul
 12667  0638  0836               	movf	??___flmul,w
 12668  0639  00F3               	movwf	__Umul8_16@multiplicand
 12669  063A  0834               	movf	___flmul@a+2,w
 12670  063B  160A  158A  24B9  120A  118A  	fcall	__Umul8_16
 12671  0640  0874               	movf	?__Umul8_16+1,w
 12672  0641  1283               	bcf	3,5	;RP0=0, select bank0
 12673  0642  1303               	bcf	3,6	;RP1=0, select bank0
 12674  0643  00C7               	movwf	___flmul@temp+1
 12675  0644  0873               	movf	?__Umul8_16,w
 12676  0645  00C6               	movwf	___flmul@temp
 12677  0646  0846               	movf	___flmul@temp,w
 12678  0647  00B6               	movwf	??___flmul
 12679  0648  0847               	movf	___flmul@temp+1,w
 12680  0649  00B7               	movwf	??___flmul+1
 12681  064A  01B8               	clrf	??___flmul+2
 12682  064B  01B9               	clrf	??___flmul+3
 12683  064C  0836               	movf	??___flmul,w
 12684  064D  07C2               	addwf	___flmul@prod,f
 12685  064E  0837               	movf	??___flmul+1,w
 12686  064F  1103               	clrz
 12687  0650  1803               	skipnc
 12688  0651  3E01               	addlw	1
 12689  0652  1903               	skipnz
 12690  0653  2E55               	goto	u6771
 12691  0654  07C3               	addwf	___flmul@prod+1,f
 12692  0655                     u6771:
 12693  0655  0838               	movf	??___flmul+2,w
 12694  0656  1103               	clrz
 12695  0657  1803               	skipnc
 12696  0658  3E01               	addlw	1
 12697  0659  1903               	skipnz
 12698  065A  2E5C               	goto	u6772
 12699  065B  07C4               	addwf	___flmul@prod+2,f
 12700  065C                     u6772:
 12701  065C  0839               	movf	??___flmul+3,w
 12702  065D  1103               	clrz
 12703  065E  1803               	skipnc
 12704  065F  3E01               	addlw	1
 12705  0660  1903               	skipnz
 12706  0661  2E63               	goto	u6773
 12707  0662  07C5               	addwf	___flmul@prod+3,f
 12708  0663                     u6773:
 12709  0663                     l5606:
 12710  0663  0830               	movf	___flmul@b+2,w
 12711  0664  00B6               	movwf	??___flmul
 12712  0665  0836               	movf	??___flmul,w
 12713  0666  00F3               	movwf	__Umul8_16@multiplicand
 12714  0667  0833               	movf	___flmul@a+1,w
 12715  0668  160A  158A  24B9  120A  118A  	fcall	__Umul8_16
 12716  066D  0874               	movf	?__Umul8_16+1,w
 12717  066E  1283               	bcf	3,5	;RP0=0, select bank0
 12718  066F  1303               	bcf	3,6	;RP1=0, select bank0
 12719  0670  00C7               	movwf	___flmul@temp+1
 12720  0671  0873               	movf	?__Umul8_16,w
 12721  0672  00C6               	movwf	___flmul@temp
 12722  0673                     l5608:
 12723  0673  0846               	movf	___flmul@temp,w
 12724  0674  00B6               	movwf	??___flmul
 12725  0675  0847               	movf	___flmul@temp+1,w
 12726  0676  00B7               	movwf	??___flmul+1
 12727  0677  01B8               	clrf	??___flmul+2
 12728  0678  01B9               	clrf	??___flmul+3
 12729  0679  0836               	movf	??___flmul,w
 12730  067A  07C2               	addwf	___flmul@prod,f
 12731  067B  0837               	movf	??___flmul+1,w
 12732  067C  1103               	clrz
 12733  067D  1803               	skipnc
 12734  067E  3E01               	addlw	1
 12735  067F  1903               	skipnz
 12736  0680  2E82               	goto	u6781
 12737  0681  07C3               	addwf	___flmul@prod+1,f
 12738  0682                     u6781:
 12739  0682  0838               	movf	??___flmul+2,w
 12740  0683  1103               	clrz
 12741  0684  1803               	skipnc
 12742  0685  3E01               	addlw	1
 12743  0686  1903               	skipnz
 12744  0687  2E89               	goto	u6782
 12745  0688  07C4               	addwf	___flmul@prod+2,f
 12746  0689                     u6782:
 12747  0689  0839               	movf	??___flmul+3,w
 12748  068A  1103               	clrz
 12749  068B  1803               	skipnc
 12750  068C  3E01               	addlw	1
 12751  068D  1903               	skipnz
 12752  068E  2E90               	goto	u6783
 12753  068F  07C5               	addwf	___flmul@prod+3,f
 12754  0690                     u6783:
 12755  0690  0830               	movf	___flmul@b+2,w
 12756  0691  00B6               	movwf	??___flmul
 12757  0692  0836               	movf	??___flmul,w
 12758  0693  00F3               	movwf	__Umul8_16@multiplicand
 12759  0694  0834               	movf	___flmul@a+2,w
 12760  0695  160A  158A  24B9  120A  118A  	fcall	__Umul8_16
 12761  069A  0874               	movf	?__Umul8_16+1,w
 12762  069B  1283               	bcf	3,5	;RP0=0, select bank0
 12763  069C  1303               	bcf	3,6	;RP1=0, select bank0
 12764  069D  00C7               	movwf	___flmul@temp+1
 12765  069E  0873               	movf	?__Umul8_16,w
 12766  069F  00C6               	movwf	___flmul@temp
 12767  06A0                     l5610:
 12768  06A0  0846               	movf	___flmul@temp,w
 12769  06A1  00B6               	movwf	??___flmul
 12770  06A2  0847               	movf	___flmul@temp+1,w
 12771  06A3  00B7               	movwf	??___flmul+1
 12772  06A4  01B8               	clrf	??___flmul+2
 12773  06A5  01B9               	clrf	??___flmul+3
 12774  06A6  3008               	movlw	8
 12775  06A7                     u6795:
 12776  06A7  1003               	clrc
 12777  06A8  0DB6               	rlf	??___flmul,f
 12778  06A9  0DB7               	rlf	??___flmul+1,f
 12779  06AA  0DB8               	rlf	??___flmul+2,f
 12780  06AB  0DB9               	rlf	??___flmul+3,f
 12781  06AC                     u6790:
 12782  06AC  3EFF               	addlw	-1
 12783  06AD  1D03               	skipz
 12784  06AE  2EA7               	goto	u6795
 12785  06AF  0836               	movf	??___flmul,w
 12786  06B0  07C2               	addwf	___flmul@prod,f
 12787  06B1  0837               	movf	??___flmul+1,w
 12788  06B2  1103               	clrz
 12789  06B3  1803               	skipnc
 12790  06B4  3E01               	addlw	1
 12791  06B5  1903               	skipnz
 12792  06B6  2EB8               	goto	u6801
 12793  06B7  07C3               	addwf	___flmul@prod+1,f
 12794  06B8                     u6801:
 12795  06B8  0838               	movf	??___flmul+2,w
 12796  06B9  1103               	clrz
 12797  06BA  1803               	skipnc
 12798  06BB  3E01               	addlw	1
 12799  06BC  1903               	skipnz
 12800  06BD  2EBF               	goto	u6802
 12801  06BE  07C4               	addwf	___flmul@prod+2,f
 12802  06BF                     u6802:
 12803  06BF  0839               	movf	??___flmul+3,w
 12804  06C0  1103               	clrz
 12805  06C1  1803               	skipnc
 12806  06C2  3E01               	addlw	1
 12807  06C3  1903               	skipnz
 12808  06C4  2EC6               	goto	u6803
 12809  06C5  07C5               	addwf	___flmul@prod+3,f
 12810  06C6                     u6803:
 12811  06C6                     l5612:
 12812  06C6  083D               	movf	___flmul@grs,w
 12813  06C7  00B6               	movwf	??___flmul
 12814  06C8  083E               	movf	___flmul@grs+1,w
 12815  06C9  00B7               	movwf	??___flmul+1
 12816  06CA  083F               	movf	___flmul@grs+2,w
 12817  06CB  00B8               	movwf	??___flmul+2
 12818  06CC  0840               	movf	___flmul@grs+3,w
 12819  06CD  00B9               	movwf	??___flmul+3
 12820  06CE  3018               	movlw	24
 12821  06CF                     u6815:
 12822  06CF  1003               	clrc
 12823  06D0  0CB9               	rrf	??___flmul+3,f
 12824  06D1  0CB8               	rrf	??___flmul+2,f
 12825  06D2  0CB7               	rrf	??___flmul+1,f
 12826  06D3  0CB6               	rrf	??___flmul,f
 12827  06D4                     u6810:
 12828  06D4  3EFF               	addlw	-1
 12829  06D5  1D03               	skipz
 12830  06D6  2ECF               	goto	u6815
 12831  06D7  0836               	movf	??___flmul,w
 12832  06D8  07C2               	addwf	___flmul@prod,f
 12833  06D9  0837               	movf	??___flmul+1,w
 12834  06DA  1103               	clrz
 12835  06DB  1803               	skipnc
 12836  06DC  3E01               	addlw	1
 12837  06DD  1903               	skipnz
 12838  06DE  2EE0               	goto	u6821
 12839  06DF  07C3               	addwf	___flmul@prod+1,f
 12840  06E0                     u6821:
 12841  06E0  0838               	movf	??___flmul+2,w
 12842  06E1  1103               	clrz
 12843  06E2  1803               	skipnc
 12844  06E3  3E01               	addlw	1
 12845  06E4  1903               	skipnz
 12846  06E5  2EE7               	goto	u6822
 12847  06E6  07C4               	addwf	___flmul@prod+2,f
 12848  06E7                     u6822:
 12849  06E7  0839               	movf	??___flmul+3,w
 12850  06E8  1103               	clrz
 12851  06E9  1803               	skipnc
 12852  06EA  3E01               	addlw	1
 12853  06EB  1903               	skipnz
 12854  06EC  2EEE               	goto	u6823
 12855  06ED  07C5               	addwf	___flmul@prod+3,f
 12856  06EE                     u6823:
 12857  06EE                     l5614:
 12858  06EE  3008               	movlw	8
 12859  06EF  00B6               	movwf	??___flmul
 12860  06F0                     u6835:
 12861  06F0  1003               	clrc
 12862  06F1  0DBD               	rlf	___flmul@grs,f
 12863  06F2  0DBE               	rlf	___flmul@grs+1,f
 12864  06F3  0DBF               	rlf	___flmul@grs+2,f
 12865  06F4  0DC0               	rlf	___flmul@grs+3,f
 12866  06F5  0BB6               	decfsz	??___flmul,f
 12867  06F6  2EF0               	goto	u6835
 12868  06F7                     l5616:
 12869  06F7  0841               	movf	___flmul@bexp,w
 12870  06F8  073C               	addwf	___flmul@aexp,w
 12871  06F9  00B6               	movwf	??___flmul
 12872  06FA  01B7               	clrf	??___flmul+1
 12873  06FB  0DB7               	rlf	??___flmul+1,f
 12874  06FC  0836               	movf	??___flmul,w
 12875  06FD  3E82               	addlw	130
 12876  06FE  00C6               	movwf	___flmul@temp
 12877  06FF  0837               	movf	??___flmul+1,w
 12878  0700  1803               	skipnc
 12879  0701  3E01               	addlw	1
 12880  0702  3EFF               	addlw	255
 12881  0703  00C7               	movwf	___flmul@temp+1
 12882  0704  2F22               	goto	l5628
 12883  0705                     l5618:
 12884  0705  3001               	movlw	1
 12885  0706  00B6               	movwf	??___flmul
 12886  0707                     u6845:
 12887  0707  1003               	clrc
 12888  0708  0DC2               	rlf	___flmul@prod,f
 12889  0709  0DC3               	rlf	___flmul@prod+1,f
 12890  070A  0DC4               	rlf	___flmul@prod+2,f
 12891  070B  0DC5               	rlf	___flmul@prod+3,f
 12892  070C  0BB6               	decfsz	??___flmul,f
 12893  070D  2F07               	goto	u6845
 12894  070E                     l5620:
 12895  070E  1FC0               	btfss	___flmul@grs+3,7
 12896  070F  2F11               	goto	u6851
 12897  0710  2F12               	goto	u6850
 12898  0711                     u6851:
 12899  0711  2F13               	goto	l5624
 12900  0712                     u6850:
 12901  0712                     l5622:
 12902  0712  1442               	bsf	___flmul@prod,0
 12903  0713                     l5624:
 12904  0713  3001               	movlw	1
 12905  0714  00B6               	movwf	??___flmul
 12906  0715                     u6865:
 12907  0715  1003               	clrc
 12908  0716  0DBD               	rlf	___flmul@grs,f
 12909  0717  0DBE               	rlf	___flmul@grs+1,f
 12910  0718  0DBF               	rlf	___flmul@grs+2,f
 12911  0719  0DC0               	rlf	___flmul@grs+3,f
 12912  071A  0BB6               	decfsz	??___flmul,f
 12913  071B  2F15               	goto	u6865
 12914  071C                     l5626:
 12915  071C  30FF               	movlw	255
 12916  071D  07C6               	addwf	___flmul@temp,f
 12917  071E  1803               	skipnc
 12918  071F  0AC7               	incf	___flmul@temp+1,f
 12919  0720  30FF               	movlw	255
 12920  0721  07C7               	addwf	___flmul@temp+1,f
 12921  0722                     l5628:
 12922  0722  1FC4               	btfss	___flmul@prod+2,7
 12923  0723  2F25               	goto	u6871
 12924  0724  2F26               	goto	u6870
 12925  0725                     u6871:
 12926  0725  2F05               	goto	l5618
 12927  0726                     u6870:
 12928  0726                     l5630:
 12929  0726  01BC               	clrf	___flmul@aexp
 12930  0727                     l5632:
 12931  0727  1FC0               	btfss	___flmul@grs+3,7
 12932  0728  2F2A               	goto	u6881
 12933  0729  2F2B               	goto	u6880
 12934  072A                     u6881:
 12935  072A  2F47               	goto	l5640
 12936  072B                     u6880:
 12937  072B                     l5634:
 12938  072B  30FF               	movlw	255
 12939  072C  053D               	andwf	___flmul@grs,w
 12940  072D  00B6               	movwf	??___flmul
 12941  072E  30FF               	movlw	255
 12942  072F  053E               	andwf	___flmul@grs+1,w
 12943  0730  00B7               	movwf	??___flmul+1
 12944  0731  30FF               	movlw	255
 12945  0732  053F               	andwf	___flmul@grs+2,w
 12946  0733  00B8               	movwf	??___flmul+2
 12947  0734  307F               	movlw	127
 12948  0735  0540               	andwf	___flmul@grs+3,w
 12949  0736  00B9               	movwf	??___flmul+3
 12950  0737  0839               	movf	??___flmul+3,w
 12951  0738  0438               	iorwf	??___flmul+2,w
 12952  0739  0437               	iorwf	??___flmul+1,w
 12953  073A  0436               	iorwf	??___flmul,w
 12954  073B  1903               	skipnz
 12955  073C  2F3E               	goto	u6891
 12956  073D  2F3F               	goto	u6890
 12957  073E                     u6891:
 12958  073E  2F42               	goto	l1104
 12959  073F                     u6890:
 12960  073F                     l5636:
 12961  073F  01BC               	clrf	___flmul@aexp
 12962  0740  0ABC               	incf	___flmul@aexp,f
 12963  0741  2F47               	goto	l5640
 12964  0742                     l1104:
 12965  0742  1C42               	btfss	___flmul@prod,0
 12966  0743  2F45               	goto	u6901
 12967  0744  2F46               	goto	u6900
 12968  0745                     u6901:
 12969  0745  2F47               	goto	l5640
 12970  0746                     u6900:
 12971  0746  2F3F               	goto	l5636
 12972  0747                     l5640:
 12973  0747  083C               	movf	___flmul@aexp,w
 12974  0748  1903               	btfsc	3,2
 12975  0749  2F4B               	goto	u6911
 12976  074A  2F4C               	goto	u6910
 12977  074B                     u6911:
 12978  074B  2F7D               	goto	l5650
 12979  074C                     u6910:
 12980  074C                     l5642:
 12981  074C  3001               	movlw	1
 12982  074D  07C2               	addwf	___flmul@prod,f
 12983  074E  3000               	movlw	0
 12984  074F  1803               	skipnc
 12985  0750  3001               	movlw	1
 12986  0751  07C3               	addwf	___flmul@prod+1,f
 12987  0752  3000               	movlw	0
 12988  0753  1803               	skipnc
 12989  0754  3001               	movlw	1
 12990  0755  07C4               	addwf	___flmul@prod+2,f
 12991  0756  3000               	movlw	0
 12992  0757  1803               	skipnc
 12993  0758  3001               	movlw	1
 12994  0759  07C5               	addwf	___flmul@prod+3,f
 12995  075A                     l5644:
 12996  075A  1C45               	btfss	___flmul@prod+3,0
 12997  075B  2F5D               	goto	u6921
 12998  075C  2F5E               	goto	u6920
 12999  075D                     u6921:
 13000  075D  2F7D               	goto	l5650
 13001  075E                     u6920:
 13002  075E                     l5646:
 13003  075E  0842               	movf	___flmul@prod,w
 13004  075F  00B6               	movwf	??___flmul
 13005  0760  0843               	movf	___flmul@prod+1,w
 13006  0761  00B7               	movwf	??___flmul+1
 13007  0762  0844               	movf	___flmul@prod+2,w
 13008  0763  00B8               	movwf	??___flmul+2
 13009  0764  0845               	movf	___flmul@prod+3,w
 13010  0765  00B9               	movwf	??___flmul+3
 13011  0766  3001               	movlw	1
 13012  0767  00BA               	movwf	??___flmul+4
 13013  0768                     u6935:
 13014  0768  0D39               	rlf	??___flmul+3,w
 13015  0769  0CB9               	rrf	??___flmul+3,f
 13016  076A  0CB8               	rrf	??___flmul+2,f
 13017  076B  0CB7               	rrf	??___flmul+1,f
 13018  076C  0CB6               	rrf	??___flmul,f
 13019  076D                     u6930:
 13020  076D  0BBA               	decfsz	??___flmul+4,f
 13021  076E  2F68               	goto	u6935
 13022  076F  0839               	movf	??___flmul+3,w
 13023  0770  00C5               	movwf	___flmul@prod+3
 13024  0771  0838               	movf	??___flmul+2,w
 13025  0772  00C4               	movwf	___flmul@prod+2
 13026  0773  0837               	movf	??___flmul+1,w
 13027  0774  00C3               	movwf	___flmul@prod+1
 13028  0775  0836               	movf	??___flmul,w
 13029  0776  00C2               	movwf	___flmul@prod
 13030  0777                     l5648:
 13031  0777  3001               	movlw	1
 13032  0778  07C6               	addwf	___flmul@temp,f
 13033  0779  1803               	skipnc
 13034  077A  0AC7               	incf	___flmul@temp+1,f
 13035  077B  3000               	movlw	0
 13036  077C  07C7               	addwf	___flmul@temp+1,f
 13037  077D                     l5650:
 13038  077D  0847               	movf	___flmul@temp+1,w
 13039  077E  3A80               	xorlw	128
 13040  077F  00FF               	movwf	btemp+1
 13041  0780  3080               	movlw	128
 13042  0781  027F               	subwf	btemp+1,w
 13043  0782  1D03               	skipz
 13044  0783  2F86               	goto	u6945
 13045  0784  30FF               	movlw	255
 13046  0785  0246               	subwf	___flmul@temp,w
 13047  0786                     u6945:
 13048  0786  1C03               	skipc
 13049  0787  2F89               	goto	u6941
 13050  0788  2F8A               	goto	u6940
 13051  0789                     u6941:
 13052  0789  2F95               	goto	l5654
 13053  078A                     u6940:
 13054  078A                     l5652:
 13055  078A  307F               	movlw	127
 13056  078B  1283               	bcf	3,5	;RP0=0, select bank0
 13057  078C  1303               	bcf	3,6	;RP1=0, select bank0
 13058  078D  00C5               	movwf	___flmul@prod+3
 13059  078E  3080               	movlw	128
 13060  078F  00C4               	movwf	___flmul@prod+2
 13061  0790  3000               	movlw	0
 13062  0791  00C3               	movwf	___flmul@prod+1
 13063  0792  3000               	movlw	0
 13064  0793  00C2               	movwf	___flmul@prod
 13065  0794  2FCA               	goto	l1110
 13066  0795                     l5654:
 13067  0795  1283               	bcf	3,5	;RP0=0, select bank0
 13068  0796  1303               	bcf	3,6	;RP1=0, select bank0
 13069  0797  0847               	movf	___flmul@temp+1,w
 13070  0798  3A80               	xorlw	128
 13071  0799  00FF               	movwf	btemp+1
 13072  079A  3080               	movlw	128
 13073  079B  027F               	subwf	btemp+1,w
 13074  079C  1D03               	skipz
 13075  079D  2FA0               	goto	u6955
 13076  079E  3001               	movlw	1
 13077  079F  0246               	subwf	___flmul@temp,w
 13078  07A0                     u6955:
 13079  07A0  1803               	skipnc
 13080  07A1  2FA3               	goto	u6951
 13081  07A2  2FA4               	goto	u6950
 13082  07A3                     u6951:
 13083  07A3  2FB0               	goto	l5660
 13084  07A4                     u6950:
 13085  07A4                     l5656:
 13086  07A4  3000               	movlw	0
 13087  07A5  1283               	bcf	3,5	;RP0=0, select bank0
 13088  07A6  1303               	bcf	3,6	;RP1=0, select bank0
 13089  07A7  00C5               	movwf	___flmul@prod+3
 13090  07A8  3000               	movlw	0
 13091  07A9  00C4               	movwf	___flmul@prod+2
 13092  07AA  3000               	movlw	0
 13093  07AB  00C3               	movwf	___flmul@prod+1
 13094  07AC  3000               	movlw	0
 13095  07AD  00C2               	movwf	___flmul@prod
 13096  07AE                     l5658:
 13097  07AE  01BB               	clrf	___flmul@sign
 13098  07AF  2FCA               	goto	l1110
 13099  07B0                     l5660:
 13100  07B0  1283               	bcf	3,5	;RP0=0, select bank0
 13101  07B1  1303               	bcf	3,6	;RP1=0, select bank0
 13102  07B2  0846               	movf	___flmul@temp,w
 13103  07B3  00B6               	movwf	??___flmul
 13104  07B4  0836               	movf	??___flmul,w
 13105  07B5  00C1               	movwf	___flmul@bexp
 13106  07B6  30FF               	movlw	255
 13107  07B7  05C2               	andwf	___flmul@prod,f
 13108  07B8  30FF               	movlw	255
 13109  07B9  05C3               	andwf	___flmul@prod+1,f
 13110  07BA  307F               	movlw	127
 13111  07BB  05C4               	andwf	___flmul@prod+2,f
 13112  07BC  3000               	movlw	0
 13113  07BD  05C5               	andwf	___flmul@prod+3,f
 13114  07BE                     l5662:
 13115  07BE  1C41               	btfss	___flmul@bexp,0
 13116  07BF  2FC1               	goto	u6961
 13117  07C0  2FC2               	goto	u6960
 13118  07C1                     u6961:
 13119  07C1  2FC3               	goto	l5666
 13120  07C2                     u6960:
 13121  07C2                     l5664:
 13122  07C2  17C4               	bsf	___flmul@prod+2,7
 13123  07C3                     l5666:
 13124  07C3  0841               	movf	___flmul@bexp,w
 13125  07C4  00B6               	movwf	??___flmul
 13126  07C5  1003               	clrc
 13127  07C6  0C36               	rrf	??___flmul,w
 13128  07C7  00B7               	movwf	??___flmul+1
 13129  07C8  0837               	movf	??___flmul+1,w
 13130  07C9  00C5               	movwf	___flmul@prod+3
 13131  07CA                     l1110:
 13132  07CA  083B               	movf	___flmul@sign,w
 13133  07CB  00B6               	movwf	??___flmul
 13134  07CC  0836               	movf	??___flmul,w
 13135  07CD  04C5               	iorwf	___flmul@prod+3,f
 13136  07CE                     l5668:
 13137  07CE  0845               	movf	___flmul@prod+3,w
 13138  07CF  00B1               	movwf	?___flmul+3
 13139  07D0  0844               	movf	___flmul@prod+2,w
 13140  07D1  00B0               	movwf	?___flmul+2
 13141  07D2  0843               	movf	___flmul@prod+1,w
 13142  07D3  00AF               	movwf	?___flmul+1
 13143  07D4  0842               	movf	___flmul@prod,w
 13144  07D5  00AE               	movwf	?___flmul
 13145  07D6                     l1098:
 13146  07D6  0008               	return
 13147  07D7                     __end_of___flmul:
 13148                           
 13149                           	psect	text56
 13150  1CB9                     __ptext56:	
 13151 ;; *************** function __Umul8_16 *****************
 13152 ;; Defined at:
 13153 ;;		line 4 in file "/opt/microchip/xc8/v2.32/pic/sources/c90/common/Umul8_16.c"
 13154 ;; Parameters:    Size  Location     Type
 13155 ;;  multiplier      1    wreg     unsigned char 
 13156 ;;  multiplicand    1    3[COMMON] unsigned char 
 13157 ;; Auto vars:     Size  Location     Type
 13158 ;;  multiplier      1    4[BANK0 ] unsigned char 
 13159 ;;  word_mpld       2    2[BANK0 ] unsigned int 
 13160 ;;  product         2    0[BANK0 ] unsigned int 
 13161 ;; Return value:  Size  Location     Type
 13162 ;;                  2    3[COMMON] unsigned int 
 13163 ;; Registers used:
 13164 ;;		wreg, status,2, status,0
 13165 ;; Tracked objects:
 13166 ;;		On entry : 0/0
 13167 ;;		On exit  : 0/0
 13168 ;;		Unchanged: 0/0
 13169 ;; Data sizes:     COMMON   BANK0   BANK1   BANK3   BANK2
 13170 ;;      Params:         2       0       0       0       0
 13171 ;;      Locals:         0       5       0       0       0
 13172 ;;      Temps:          2       0       0       0       0
 13173 ;;      Totals:         4       5       0       0       0
 13174 ;;Total ram usage:        9 bytes
 13175 ;; Hardware stack levels used: 1
 13176 ;; Hardware stack levels required when called: 1
 13177 ;; This function calls:
 13178 ;;		Nothing
 13179 ;; This function is called by:
 13180 ;;		___flmul
 13181 ;; This function uses a non-reentrant model
 13182 ;;
 13183                           
 13184                           
 13185                           ;psect for function __Umul8_16
 13186  1CB9                     __Umul8_16:
 13187                           
 13188                           ;incstack = 0
 13189                           ; Regs used in __Umul8_16: [wreg+status,2+status,0]
 13190                           ;__Umul8_16@multiplier stored from wreg
 13191  1CB9  1283               	bcf	3,5	;RP0=0, select bank0
 13192  1CBA  1303               	bcf	3,6	;RP1=0, select bank0
 13193  1CBB  00A4               	movwf	__Umul8_16@multiplier
 13194  1CBC                     l4956:
 13195  1CBC  01A0               	clrf	__Umul8_16@product
 13196  1CBD  01A1               	clrf	__Umul8_16@product+1
 13197  1CBE                     l4958:
 13198  1CBE  0873               	movf	__Umul8_16@multiplicand,w
 13199  1CBF  00F5               	movwf	??__Umul8_16
 13200  1CC0  01F6               	clrf	??__Umul8_16+1
 13201  1CC1  0875               	movf	??__Umul8_16,w
 13202  1CC2  00A2               	movwf	__Umul8_16@word_mpld
 13203  1CC3  0876               	movf	??__Umul8_16+1,w
 13204  1CC4  00A3               	movwf	__Umul8_16@word_mpld+1
 13205  1CC5                     l4960:
 13206  1CC5  1C24               	btfss	__Umul8_16@multiplier,0
 13207  1CC6  2CC8               	goto	u5621
 13208  1CC7  2CC9               	goto	u5620
 13209  1CC8                     u5621:
 13210  1CC8  2CCF               	goto	l1117
 13211  1CC9                     u5620:
 13212  1CC9                     l4962:
 13213  1CC9  0822               	movf	__Umul8_16@word_mpld,w
 13214  1CCA  07A0               	addwf	__Umul8_16@product,f
 13215  1CCB  1803               	skipnc
 13216  1CCC  0AA1               	incf	__Umul8_16@product+1,f
 13217  1CCD  0823               	movf	__Umul8_16@word_mpld+1,w
 13218  1CCE  07A1               	addwf	__Umul8_16@product+1,f
 13219  1CCF                     l1117:
 13220  1CCF  3001               	movlw	1
 13221  1CD0                     u5635:
 13222  1CD0  1003               	clrc
 13223  1CD1  0DA2               	rlf	__Umul8_16@word_mpld,f
 13224  1CD2  0DA3               	rlf	__Umul8_16@word_mpld+1,f
 13225  1CD3  3EFF               	addlw	-1
 13226  1CD4  1D03               	skipz
 13227  1CD5  2CD0               	goto	u5635
 13228  1CD6  1003               	clrc
 13229  1CD7  0CA4               	rrf	__Umul8_16@multiplier,f
 13230  1CD8                     l4964:
 13231  1CD8  0824               	movf	__Umul8_16@multiplier,w
 13232  1CD9  1D03               	btfss	3,2
 13233  1CDA  2CDC               	goto	u5641
 13234  1CDB  2CDD               	goto	u5640
 13235  1CDC                     u5641:
 13236  1CDC  2CC5               	goto	l4960
 13237  1CDD                     u5640:
 13238  1CDD                     l4966:
 13239  1CDD  0821               	movf	__Umul8_16@product+1,w
 13240  1CDE  00F4               	movwf	?__Umul8_16+1
 13241  1CDF  0820               	movf	__Umul8_16@product,w
 13242  1CE0  00F3               	movwf	?__Umul8_16
 13243  1CE1                     l1119:
 13244  1CE1  0008               	return
 13245  1CE2                     __end_of__Umul8_16:
 13246                           
 13247                           	psect	text57
 13248  1F4D                     __ptext57:	
 13249 ;; *************** function _isr *****************
 13250 ;; Defined at:
 13251 ;;		line 6 in file "isr.c"
 13252 ;; Parameters:    Size  Location     Type
 13253 ;;		None
 13254 ;; Auto vars:     Size  Location     Type
 13255 ;;		None
 13256 ;; Return value:  Size  Location     Type
 13257 ;;                  1    wreg      void 
 13258 ;; Registers used:
 13259 ;;		wreg, status,2, status,0, btemp+1
 13260 ;; Tracked objects:
 13261 ;;		On entry : 0/0
 13262 ;;		On exit  : 0/0
 13263 ;;		Unchanged: 0/0
 13264 ;; Data sizes:     COMMON   BANK0   BANK1   BANK3   BANK2
 13265 ;;      Params:         0       0       0       0       0
 13266 ;;      Locals:         0       0       0       0       0
 13267 ;;      Temps:          3       0       0       0       0
 13268 ;;      Totals:         3       0       0       0       0
 13269 ;;Total ram usage:        3 bytes
 13270 ;; Hardware stack levels used: 1
 13271 ;; This function calls:
 13272 ;;		Nothing
 13273 ;; This function is called by:
 13274 ;;		Interrupt level 1
 13275 ;; This function uses a non-reentrant model
 13276 ;;
 13277                           
 13278                           
 13279                           ;psect for function _isr
 13280  1F4D                     _isr:
 13281  1F4D                     i1l4082:
 13282                           
 13283                           ;isr.c: 8:   static unsigned short count;;isr.c: 9:     if (TMR2IF == 1)
 13284  1F4D  1C8C               	btfss	12,1	;volatile
 13285  1F4E  2F50               	goto	u456_21
 13286  1F4F  2F51               	goto	u456_20
 13287  1F50                     u456_21:
 13288  1F50  2F9D               	goto	i1l462
 13289  1F51                     u456_20:
 13290  1F51                     i1l4084:
 13291                           
 13292                           ;isr.c: 10:     {;isr.c: 12:         if (count++ == 1250)
 13293  1F51  3001               	movlw	1
 13294  1F52  1683               	bsf	3,5	;RP0=1, select bank1
 13295  1F53  1303               	bcf	3,6	;RP1=0, select bank1
 13296  1F54  07A2               	addwf	isr@count^(0+128),f
 13297  1F55  1803               	skipnc
 13298  1F56  0AA3               	incf	(isr@count+1)^(0+128),f
 13299  1F57  3000               	movlw	0
 13300  1F58  07A3               	addwf	(isr@count+1)^(0+128),f
 13301  1F59  30E3               	movlw	227
 13302  1F5A  0622               	xorwf	isr@count^(0+128),w
 13303  1F5B  3004               	movlw	4
 13304  1F5C  1903               	skipnz
 13305  1F5D  0623               	xorwf	(isr@count+1)^(0+128),w
 13306  1F5E  1D03               	btfss	3,2
 13307  1F5F  2F61               	goto	u457_21
 13308  1F60  2F62               	goto	u457_20
 13309  1F61                     u457_21:
 13310  1F61  2F9A               	goto	i1l4098
 13311  1F62                     u457_20:
 13312  1F62                     i1l4086:
 13313                           
 13314                           ;isr.c: 13:   {;isr.c: 14:    count = 0;
 13315  1F62  01A2               	clrf	isr@count^(0+128)
 13316  1F63  01A3               	clrf	(isr@count+1)^(0+128)
 13317  1F64                     i1l4088:
 13318                           
 13319                           ;isr.c: 15:             if (sec > 0)
 13320  1F64  1283               	bcf	3,5	;RP0=0, select bank0
 13321  1F65  1303               	bcf	3,6	;RP1=0, select bank0
 13322  1F66  085F               	movf	_sec+1,w
 13323  1F67  3A80               	xorlw	128
 13324  1F68  00FF               	movwf	btemp+1
 13325  1F69  3080               	movlw	128
 13326  1F6A  027F               	subwf	btemp+1,w
 13327  1F6B  1D03               	skipz
 13328  1F6C  2F6F               	goto	u458_25
 13329  1F6D  3001               	movlw	1
 13330  1F6E  025E               	subwf	_sec,w
 13331  1F6F                     u458_25:
 13332  1F6F  1C03               	skipc
 13333  1F70  2F72               	goto	u458_21
 13334  1F71  2F73               	goto	u458_20
 13335  1F72                     u458_21:
 13336  1F72  2F7B               	goto	i1l4092
 13337  1F73                     u458_20:
 13338  1F73                     i1l4090:
 13339                           
 13340                           ;isr.c: 16:             {;isr.c: 17:                 sec--;
 13341  1F73  30FF               	movlw	255
 13342  1F74  1283               	bcf	3,5	;RP0=0, select bank0
 13343  1F75  1303               	bcf	3,6	;RP1=0, select bank0
 13344  1F76  07DE               	addwf	_sec,f
 13345  1F77  1803               	skipnc
 13346  1F78  0ADF               	incf	_sec+1,f
 13347  1F79  30FF               	movlw	255
 13348  1F7A  07DF               	addwf	_sec+1,f
 13349  1F7B                     i1l4092:
 13350                           
 13351                           ;isr.c: 19:             if (return_time > 0 && !sec)
 13352  1F7B  1683               	bsf	3,5	;RP0=1, select bank1
 13353  1F7C  1303               	bcf	3,6	;RP1=0, select bank1
 13354  1F7D  082F               	movf	(_return_time+1)^(0+128),w
 13355  1F7E  3A80               	xorlw	128
 13356  1F7F  00FF               	movwf	btemp+1
 13357  1F80  3080               	movlw	128
 13358  1F81  027F               	subwf	btemp+1,w
 13359  1F82  1D03               	skipz
 13360  1F83  2F86               	goto	u459_25
 13361  1F84  3001               	movlw	1
 13362  1F85  022E               	subwf	_return_time^(0+128),w
 13363  1F86                     u459_25:
 13364  1F86  1C03               	skipc
 13365  1F87  2F89               	goto	u459_21
 13366  1F88  2F8A               	goto	u459_20
 13367  1F89                     u459_21:
 13368  1F89  2F9A               	goto	i1l4098
 13369  1F8A                     u459_20:
 13370  1F8A                     i1l4094:
 13371  1F8A  1283               	bcf	3,5	;RP0=0, select bank0
 13372  1F8B  1303               	bcf	3,6	;RP1=0, select bank0
 13373  1F8C  085E               	movf	_sec,w
 13374  1F8D  045F               	iorwf	_sec+1,w
 13375  1F8E  1D03               	btfss	3,2
 13376  1F8F  2F91               	goto	u460_21
 13377  1F90  2F92               	goto	u460_20
 13378  1F91                     u460_21:
 13379  1F91  2F9A               	goto	i1l4098
 13380  1F92                     u460_20:
 13381  1F92                     i1l4096:
 13382                           
 13383                           ;isr.c: 20:             {;isr.c: 21:                 return_time--;
 13384  1F92  30FF               	movlw	255
 13385  1F93  1683               	bsf	3,5	;RP0=1, select bank1
 13386  1F94  1303               	bcf	3,6	;RP1=0, select bank1
 13387  1F95  07AE               	addwf	_return_time^(0+128),f
 13388  1F96  1803               	skipnc
 13389  1F97  0AAF               	incf	(_return_time+1)^(0+128),f
 13390  1F98  30FF               	movlw	255
 13391  1F99  07AF               	addwf	(_return_time+1)^(0+128),f
 13392  1F9A                     i1l4098:
 13393                           
 13394                           ;isr.c: 24:         TMR2IF = 0;
 13395  1F9A  1283               	bcf	3,5	;RP0=0, select bank0
 13396  1F9B  1303               	bcf	3,6	;RP1=0, select bank0
 13397  1F9C  108C               	bcf	12,1	;volatile
 13398  1F9D                     i1l462:
 13399  1F9D  0872               	movf	??_isr+2,w
 13400  1F9E  00FF               	movwf	btemp+1
 13401  1F9F  0871               	movf	??_isr+1,w
 13402  1FA0  008A               	movwf	10
 13403  1FA1  0E70               	swapf	??_isr,w
 13404  1FA2  0083               	movwf	3
 13405  1FA3  0EFE               	swapf	btemp,f
 13406  1FA4  0E7E               	swapf	btemp,w
 13407  1FA5  0009               	retfie
 13408  1FA6                     __end_of_isr:
 13409  007E                     btemp	set	126	;btemp
 13410  007E                     wtemp0	set	126
 13411                           
 13412                           	psect	intentry
 13413  0004                     __pintentry:	
 13414                           ;incstack = 0
 13415                           ; Regs used in _isr: [wreg+status,2+status,0+btemp+1]
 13416                           
 13417  0004                     interrupt_function:
 13418  007E                     saved_w	set	btemp
 13419  0004  00FE               	movwf	btemp
 13420  0005  0E03               	swapf	3,w
 13421  0006  00F0               	movwf	??_isr
 13422  0007  080A               	movf	10,w
 13423  0008  00F1               	movwf	??_isr+1
 13424  0009  1283               	bcf	3,5	;RP0=0, select bank0
 13425  000A  1303               	bcf	3,6	;RP1=0, select bank0
 13426  000B  087F               	movf	btemp+1,w
 13427  000C  00F2               	movwf	??_isr+2
 13428  000D  160A  158A  2F4D   	ljmp	_isr
 13429                           
 13430                           	psect	config
 13431                           
 13432                           ;Config register CONFIG @ 0x2007
 13433                           ;	Oscillator Selection bits
 13434                           ;	FOSC = 0x3, unprogrammed default
 13435                           ;	Watchdog Timer Enable bit
 13436                           ;	WDTE = OFF, WDT disabled
 13437                           ;	Power-up Timer Enable bit
 13438                           ;	PWRTE = 0x1, unprogrammed default
 13439                           ;	Brown-out Reset Enable bit
 13440                           ;	BOREN = 0x1, unprogrammed default
 13441                           ;	Low-Voltage (Single-Supply) In-Circuit Serial Programming Enable bit
 13442                           ;	LVP = 0x1, unprogrammed default
 13443                           ;	Data EEPROM Memory Code Protection bit
 13444                           ;	CPD = 0x1, unprogrammed default
 13445                           ;	Flash Program Memory Write Enable bits
 13446                           ;	WRT = 0x3, unprogrammed default
 13447                           ;	In-Circuit Debugger Mode bit
 13448                           ;	DEBUG = 0x1, unprogrammed default
 13449                           ;	Flash Program Memory Code Protection bit
 13450                           ;	CP = 0x1, unprogrammed default
 13451  2007                     	org	8199
 13452  2007  3FFB               	dw	16379

Data Sizes:
    Strings     378
    Constant    0
    Data        32
    BSS         75
    Persistent  0
    Stack       0

Auto Spaces:
    Space          Size  Autos    Used
    COMMON           14      9      11
    BANK0            80     53      68
    BANK1            80      0      78
    BANK3            96     14      26
    BANK2            96      0       0

Pointer List with Targets:

    strncpy@from	PTR const unsigned char  size(2) Largest target is 7
		 -> STR_37(CODE[3]), main@event(BANK3[3]), time(BANK1[7]), 

    strncpy@to	PTR unsigned char  size(1) Largest target is 11
		 -> log(BANK1[11]), 

    strncpy@cp	PTR unsigned char  size(1) Largest target is 11
		 -> log(BANK1[11]), 

    strncmp@s2	PTR const unsigned char  size(1) Largest target is 5
		 -> confirm_change_password@confirmed_password(BANK1[5]), login@npassword(BANK1[4]), 

    strncmp@s1	PTR const unsigned char  size(1) Largest target is 5
		 -> change_password@r_password(BANK1[5]), spassword(BANK1[5]), 

    strcpy@from	PTR const unsigned char  size(2) Largest target is 3
		 -> STR_32(CODE[3]), STR_31(CODE[3]), STR_30(CODE[3]), STR_29(CODE[3]), 
		 -> STR_28(CODE[3]), STR_27(CODE[3]), STR_26(CODE[3]), 

    strcpy@to	PTR unsigned char  size(1) Largest target is 3
		 -> main@event(BANK3[3]), 

    strcpy@cp	PTR unsigned char  size(1) Largest target is 3
		 -> main@event(BANK3[3]), 

    puts@s	PTR const unsigned char  size(2) Largest target is 21
		 -> STR_17(CODE[3]), STR_15(CODE[21]), 

    sp__strcpy	PTR unsigned char  size(1) Largest target is 3
		 -> main@event(BANK3[3]), 

    gear	PTR unsigned char [6] size(2) Largest target is 3
		 -> STR_31(CODE[3]), STR_30(CODE[3]), STR_29(CODE[3]), STR_28(CODE[3]), 
		 -> STR_27(CODE[3]), STR_26(CODE[3]), 

    confirm_change_password@changed_password	PTR unsigned char  size(1) Largest target is 5
		 -> change_password@r_password(BANK1[5]), 

    log_car_event@event	PTR unsigned char  size(2) Largest target is 3
		 -> STR_37(CODE[3]), main@event(BANK3[3]), 

    sp__strncpy	PTR unsigned char  size(1) Largest target is 11
		 -> log(BANK1[11]), 

    display_dash_board@event	PTR unsigned char  size(1) Largest target is 3
		 -> main@event(BANK3[3]), 

    menu	PTR unsigned char [5] size(2) Largest target is 13
		 -> STR_5(CODE[13]), STR_4(CODE[9]), STR_3(CODE[13]), STR_2(CODE[10]), 
		 -> STR_1(CODE[9]), 

    clcd_print@data	PTR const unsigned char  size(2) Largest target is 18
		 -> STR_36(CODE[18]), STR_35(CODE[9]), STR_34(CODE[17]), STR_33(CODE[17]), 
		 -> main@event(BANK3[3]), STR_25(CODE[16]), STR_24(CODE[14]), STR_23(CODE[13]), 
		 -> STR_22(CODE[15]), STR_21(CODE[15]), STR_20(CODE[13]), STR_19(CODE[17]), 
		 -> STR_18(CODE[16]), STR_16(CODE[16]), STR_14(CODE[11]), STR_13(CODE[10]), 
		 -> STR_12(CODE[18]), STR_11(CODE[15]), STR_10(CODE[13]), STR_9(CODE[15]), 
		 -> STR_8(CODE[15]), STR_7(CODE[15]), STR_6(CODE[17]), STR_5(CODE[13]), 
		 -> STR_4(CODE[9]), STR_3(CODE[13]), STR_2(CODE[10]), STR_1(CODE[9]), 

    eeprom_at24c04_str_write@data	PTR unsigned char  size(1) Largest target is 11
		 -> confirm_change_password@confirmed_password(BANK1[5]), log(BANK1[11]), 


Critical Paths under _main in COMMON

    _main->___fltol
    _main->_clear_log
    _login->_strncmp
    _log_car_event->___lwmod
    _log_car_event->_strncpy
    _init_uart->___lldiv
    _write_ds1307->_i2c_write
    _init_display_controller->_clcd_write
    _download_log->___wmul
    _puts->_putchar
    _display_dash_board->___lwmod
    _read_ds1307->_i2c_write
    _eeprom_at24c04_random_read->_i2c_write
    _i2c_rep_start->_i2c_wait_for_idle
    _i2c_read->_i2c_wait_for_idle
    _confirm_change_password->_strncmp
    _eeprom_at24c04_byte_write->_i2c_write
    _i2c_write->_i2c_wait_for_idle
    _i2c_stop->_i2c_wait_for_idle
    _i2c_start->_i2c_wait_for_idle
    _clcd_putch->___lwmod
    _clcd_print->_clcd_write
    ___xxtofl->_read_adc
    ___fltol->_read_adc
    ___flmul->__Umul8_16
    ___flmul->_read_adc

Critical Paths under _isr in COMMON

    None.

Critical Paths under _main in BANK0

    _main->___fltol
    _view_log->_eeprom_at24c04_random_read
    _set_time->_get_time
    _login_menu->_clcd_putch
    _login->_get_password
    _log_car_event->_get_time
    _log_event->_eeprom_at24c04_str_write
    _init_config->_init_uart
    _init_uart->___lldiv
    _init_ds1307->_read_ds1307
    _init_clcd->_init_display_controller
    _download_log->_eeprom_at24c04_random_read
    _display_dash_board->_get_time
    _get_time->_read_ds1307
    _read_ds1307->_i2c_read
    _display_time->_clcd_putch
    _clear_log->_clcd_print
    _change_password->_get_password
    _get_password->_eeprom_at24c04_random_read
    _eeprom_at24c04_random_read->_i2c_read
    _confirm_change_password->_clcd_putch
    _eeprom_at24c04_str_write->_eeprom_at24c04_byte_write
    _clcd_putch->___awdiv
    ___fltol->___flmul
    ___flmul->___xxtofl

Critical Paths under _isr in BANK0

    None.

Critical Paths under _main in BANK1

    None.

Critical Paths under _isr in BANK1

    None.

Critical Paths under _main in BANK3

    None.

Critical Paths under _isr in BANK3

    None.

Critical Paths under _main in BANK2

    None.

Critical Paths under _isr in BANK2

    None.

Call Graph Tables:

 ---------------------------------------------------------------------------------
 (Depth) Function   	        Calls       Base Space   Used Autos Params    Refs
 ---------------------------------------------------------------------------------
 (0) _main                                                20    20      0  206623
                                             49 BANK0      4     4      0
                                              0 BANK3     14    14      0
                            ___flmul
                            ___fltol
                           ___xxtofl
                    _change_password
                         _clcd_print
                         _clcd_putch
                         _clcd_write
                          _clear_log
                 _display_dash_board
                       _download_log
                        _init_config
                      _log_car_event
                              _login
                         _login_menu
                           _read_adc
                _read_digital_keypad
                           _set_time
                             _strcpy
                           _view_log
 ---------------------------------------------------------------------------------
 (1) _view_log                                            20    19      1   19680
                                              9 BANK0     20    19      1
                            ___awmod
                             ___bmul
                         _clcd_print
                         _clcd_putch
         _eeprom_at24c04_random_read
 ---------------------------------------------------------------------------------
 (2) _strcpy                                               5     3      2     487
                                              3 COMMON     5     3      2
 ---------------------------------------------------------------------------------
 (1) _set_time                                             4     3      1   17428
                                             11 BANK0      4     3      1
                         _clcd_putch
                       _display_time
                           _get_time
                       _write_ds1307
 ---------------------------------------------------------------------------------
 (1) _read_digital_keypad                                  2     2      0      31
                                              3 COMMON     2     2      0
 ---------------------------------------------------------------------------------
 (1) _read_adc                                             4     2      2      34
                                              3 COMMON     4     2      2
 ---------------------------------------------------------------------------------
 (1) _login_menu                                           6     4      2   22037
                                              6 BANK0      6     4      2
                         _clcd_print
                         _clcd_putch
                         _clcd_write
 ---------------------------------------------------------------------------------
 (1) _login                                                3     2      1   23917
                                             12 BANK0      3     2      1
                            ___awdiv
                            ___awmod
                         _clcd_print
                         _clcd_putch
                         _clcd_write
                       _get_password
                            _strncmp
 ---------------------------------------------------------------------------------
 (1) _log_car_event                                        5     1      4    3892
                                             11 BANK0      5     1      4
                            ___lwdiv
                            ___lwmod
                           _get_time
                          _log_event
                            _strncpy
 ---------------------------------------------------------------------------------
 (3) _strncpy                                              9     5      4     634
                                              3 COMMON     6     2      4
                                              0 BANK0      3     3      0
 ---------------------------------------------------------------------------------
 (2) _log_event                                            3     3      0     911
                                              5 BANK0      3     3      0
                             ___bmul
           _eeprom_at24c04_str_write
 ---------------------------------------------------------------------------------
 (2) ___bmul                                               4     3      1     316
                                              3 COMMON     4     3      1
 ---------------------------------------------------------------------------------
 (1) _init_config                                          0     0      0    5482
                           _init_adc
                          _init_clcd
                _init_digital_keypad
                        _init_ds1307
                           _init_i2c
                        _init_timer2
                          _init_uart
 ---------------------------------------------------------------------------------
 (2) _init_uart                                            8     4      4     542
                                              8 BANK0      8     4      4
                            ___lldiv
 ---------------------------------------------------------------------------------
 (3) ___lldiv                                             14     6      8     421
                                              3 COMMON     6     6      0
                                              0 BANK0      8     0      8
 ---------------------------------------------------------------------------------
 (2) _init_timer2                                          0     0      0       0
 ---------------------------------------------------------------------------------
 (2) _init_i2c                                             0     0      0       0
 ---------------------------------------------------------------------------------
 (2) _init_ds1307                                          2     2      0     648
                                              9 BANK0      2     2      0
                        _read_ds1307
                       _write_ds1307
 ---------------------------------------------------------------------------------
 (2) _write_ds1307                                         2     1      1     453
                                              0 BANK0      2     1      1
                          _i2c_start
                           _i2c_stop
                          _i2c_write
 ---------------------------------------------------------------------------------
 (2) _init_digital_keypad                                  0     0      0       0
 ---------------------------------------------------------------------------------
 (2) _init_clcd                                            0     0      0    4292
            _init_display_controller
 ---------------------------------------------------------------------------------
 (3) _init_display_controller                              3     3      0    4292
                                              0 BANK0      3     3      0
                         _clcd_write
 ---------------------------------------------------------------------------------
 (2) _init_adc                                             0     0      0       0
 ---------------------------------------------------------------------------------
 (1) _download_log                                        17    17      0   15439
                                              9 BANK0     17    17      0
                             ___wmul
                         _clcd_print
                         _clcd_write
         _eeprom_at24c04_random_read
                            _putchar
                               _puts
 ---------------------------------------------------------------------------------
 (2) _puts                                                 2     0      2     276
                                              4 COMMON     2     0      2
                            _putchar
 ---------------------------------------------------------------------------------
 (3) _putchar                                              1     1      0      31
                                              3 COMMON     1     1      0
 ---------------------------------------------------------------------------------
 (2) ___wmul                                               6     2      4     976
                                              3 COMMON     6     2      4
 ---------------------------------------------------------------------------------
 (1) _display_dash_board                                   4     2      2   27449
                                             11 BANK0      4     2      2
                            ___lwdiv
                            ___lwmod
                         _clcd_print
                         _clcd_putch
                       _display_time
                           _get_time
 ---------------------------------------------------------------------------------
 (2) _get_time                                             2     2      0     161
                                              9 BANK0      2     2      0
                        _read_ds1307
 ---------------------------------------------------------------------------------
 (3) _read_ds1307                                          3     3      0     161
                                              6 BANK0      3     3      0
                           _i2c_read
                      _i2c_rep_start
                          _i2c_start
                           _i2c_stop
                          _i2c_write
 ---------------------------------------------------------------------------------
 (2) _display_time                                         1     1      0    8314
                                              6 BANK0      1     1      0
                         _clcd_putch
 ---------------------------------------------------------------------------------
 (2) ___lwmod                                              6     2      4     592
                                              3 COMMON     6     2      4
 ---------------------------------------------------------------------------------
 (2) ___lwdiv                                              8     4      4     601
                                              3 COMMON     5     1      4
                                              0 BANK0      3     3      0
 ---------------------------------------------------------------------------------
 (1) _clear_log                                            2     2      0    9279
                                              7 COMMON     2     2      0
                         _clcd_print
 ---------------------------------------------------------------------------------
 (1) _change_password                                      3     2      1   33072
                                             12 BANK0      3     2      1
                         _clcd_putch
            _confirm_change_password
                       _get_password
 ---------------------------------------------------------------------------------
 (2) _get_password                                         3     3      0     294
                                              9 BANK0      3     3      0
         _eeprom_at24c04_random_read
 ---------------------------------------------------------------------------------
 (2) _eeprom_at24c04_random_read                           3     3      0     164
                                              6 BANK0      3     3      0
                           _i2c_read
                      _i2c_rep_start
                          _i2c_start
                           _i2c_stop
                          _i2c_write
 ---------------------------------------------------------------------------------
 (3) _i2c_rep_start                                        0     0      0       0
                  _i2c_wait_for_idle
 ---------------------------------------------------------------------------------
 (3) _i2c_read                                             6     4      2      65
                                              0 BANK0      6     4      2
                  _i2c_wait_for_idle
 ---------------------------------------------------------------------------------
 (2) _confirm_change_password                              3     2      1   24184
                                              6 BANK0      3     2      1
                            ___awdiv
                            ___awmod
                         _clcd_print
                         _clcd_putch
                         _clcd_write
           _eeprom_at24c04_str_write
                            _strncmp
 ---------------------------------------------------------------------------------
 (2) _strncmp                                              6     3      3     624
                                              3 COMMON     6     3      3
 ---------------------------------------------------------------------------------
 (3) _eeprom_at24c04_str_write                             3     2      1     561
                                              2 BANK0      3     2      1
          _eeprom_at24c04_byte_write
 ---------------------------------------------------------------------------------
 (4) _eeprom_at24c04_byte_write                            2     1      1     282
                                              0 BANK0      2     1      1
                           _delay_ms
                          _i2c_start
                           _i2c_stop
                          _i2c_write
 ---------------------------------------------------------------------------------
 (3) _i2c_write                                            1     1      0      31
                                              8 COMMON     1     1      0
                  _i2c_wait_for_idle
 ---------------------------------------------------------------------------------
 (3) _i2c_stop                                             0     0      0       0
                  _i2c_wait_for_idle
 ---------------------------------------------------------------------------------
 (3) _i2c_start                                            0     0      0       0
                  _i2c_wait_for_idle
 ---------------------------------------------------------------------------------
 (4) _i2c_wait_for_idle                                    5     5      0       0
                                              3 COMMON     5     5      0
 ---------------------------------------------------------------------------------
 (5) _delay_ms                                             4     4      0      99
                                              3 COMMON     4     4      0
 ---------------------------------------------------------------------------------
 (2) _clcd_putch                                           2     1      1    8314
                                              4 BANK0      2     1      1
                            ___awdiv (ARG)
                            ___awmod (ARG)
                            ___lwdiv (ARG)
                            ___lwmod (ARG)
                         _clcd_write
 ---------------------------------------------------------------------------------
 (2) _clcd_print                                           3     0      3    9248
                                              0 BANK0      3     0      3
                         _clcd_write
 ---------------------------------------------------------------------------------
 (3) _clcd_write                                           4     3      1    4292
                                              3 COMMON     4     3      1
 ---------------------------------------------------------------------------------
 (2) ___awmod                                              7     3      4     809
                                              3 COMMON     5     1      4
                                              0 BANK0      2     2      0
 ---------------------------------------------------------------------------------
 (2) ___awdiv                                              9     5      4      98
                                              3 COMMON     5     1      4
                                              0 BANK0      4     4      0
 ---------------------------------------------------------------------------------
 (1) ___xxtofl                                            14    10      4     566
                                              0 BANK0     14    10      4
                           _read_adc (ARG)
 ---------------------------------------------------------------------------------
 (1) ___fltol                                             11     7      4     427
                                              7 COMMON     2     2      0
                                             40 BANK0      9     5      4
                            ___flmul (ARG)
                           ___xxtofl (ARG)
                           _read_adc (ARG)
 ---------------------------------------------------------------------------------
 (1) ___flmul                                             26    18      8    3353
                                             14 BANK0     26    18      8
                          __Umul8_16
                           ___xxtofl (ARG)
                           _read_adc (ARG)
 ---------------------------------------------------------------------------------
 (2) __Umul8_16                                            9     7      2     980
                                              3 COMMON     4     2      2
                                              0 BANK0      5     5      0
 ---------------------------------------------------------------------------------
 Estimated maximum stack depth 5
 ---------------------------------------------------------------------------------
 (Depth) Function   	        Calls       Base Space   Used Autos Params    Refs
 ---------------------------------------------------------------------------------
 (7) _isr                                                  3     3      0       0
                                              0 COMMON     3     3      0
 ---------------------------------------------------------------------------------
 Estimated maximum stack depth 7
 ---------------------------------------------------------------------------------

 Call Graph Graphs:

 _main (ROOT)
   ___flmul
     __Umul8_16
     ___xxtofl (ARG)
       _read_adc (ARG)
     _read_adc (ARG)
   ___fltol
     ___flmul (ARG)
     ___xxtofl (ARG)
     _read_adc (ARG)
   ___xxtofl
   _change_password
     _clcd_putch
       ___awdiv (ARG)
       ___awmod (ARG)
       ___lwdiv (ARG)
       ___lwmod (ARG)
       _clcd_write (ARG)
     _confirm_change_password
       ___awdiv
       ___awmod
       _clcd_print
         _clcd_write
       _clcd_putch
       _clcd_write
       _eeprom_at24c04_str_write
         _eeprom_at24c04_byte_write
           _delay_ms
           _i2c_start
             _i2c_wait_for_idle
           _i2c_stop
             _i2c_wait_for_idle
           _i2c_write
             _i2c_wait_for_idle
       _strncmp
     _get_password
       _eeprom_at24c04_random_read
         _i2c_read
           _i2c_wait_for_idle
         _i2c_rep_start
           _i2c_wait_for_idle
         _i2c_start
         _i2c_stop
         _i2c_write
   _clcd_print
   _clcd_putch
   _clcd_write
   _clear_log
     _clcd_print
   _display_dash_board
     ___lwdiv
     ___lwmod
     _clcd_print
     _clcd_putch
     _display_time
       _clcd_putch
     _get_time
       _read_ds1307
         _i2c_read
         _i2c_rep_start
         _i2c_start
         _i2c_stop
         _i2c_write
   _download_log
     ___wmul
     _clcd_print
     _clcd_write
     _eeprom_at24c04_random_read
     _putchar
     _puts
       _putchar
   _init_config
     _init_adc
     _init_clcd
       _init_display_controller
         _clcd_write
     _init_digital_keypad
     _init_ds1307
       _read_ds1307
       _write_ds1307
         _i2c_start
         _i2c_stop
         _i2c_write
     _init_i2c
     _init_timer2
     _init_uart
       ___lldiv
   _log_car_event
     ___lwdiv
     ___lwmod
     _get_time
     _log_event
       ___bmul
       _eeprom_at24c04_str_write
     _strncpy
   _login
     ___awdiv
     ___awmod
     _clcd_print
     _clcd_putch
     _clcd_write
     _get_password
     _strncmp
   _login_menu
     _clcd_print
     _clcd_putch
     _clcd_write
   _read_adc
   _read_digital_keypad
   _set_time
     _clcd_putch
     _display_time
     _get_time
     _write_ds1307
   _strcpy
   _view_log
     ___awmod
     ___bmul
     _clcd_print
     _clcd_putch
     _eeprom_at24c04_random_read

 _isr (ROOT)

 Address spaces:
Name               Size   Autos  Total    Cost      Usage
BANK3               60      E      1A       9       27.1%
BITBANK3            60      0       0       8        0.0%
SFR3                 0      0       0       4        0.0%
BITSFR3              0      0       0       4        0.0%
BANK2               60      0       0      11        0.0%
BITBANK2            60      0       0      10        0.0%
SFR2                 0      0       0       5        0.0%
BITSFR2              0      0       0       5        0.0%
BANK1               50      0      4E       7       97.5%
BITBANK1            50      0       0       6        0.0%
SFR1                 0      0       0       2        0.0%
BITSFR1              0      0       0       2        0.0%
BANK0               50     35      44       5       85.0%
BITBANK0            50      0       0       4        0.0%
SFR0                 0      0       0       1        0.0%
BITSFR0              0      0       0       1        0.0%
COMMON               E      9       B       1       78.6%
BITCOMMON            E      0       0       0        0.0%
CODE                 0      0       0       0        0.0%
DATA                 0      0      B7      12        0.0%
ABS                  0      0      B7       3        0.0%
NULL                 0      0       0       0        0.0%
STACK                0      0       0       2        0.0%
EEDATA             100      0       0       0        0.0%


Microchip Technology PIC Macro Assembler V2.32 build 20210201212658 
Symbol Table                                                                                   Sat Jan  8 21:35:37 2022

                            ?_get_password 0070                                          pc 0002  
                           ___bmul@product 0075                             clcd_print@addr 0022  
         __size_of_init_display_controller 006B                             clcd_print@data 0020  
                                       l22 1B0C                                         l40 1E0A  
                                       l25 1B1A                                         l43 1D0B  
                                       l19 1B7E                                         l72 1AEF  
                                       l81 1B69                                         l49 1C22  
                                       l66 1BFF                                         l91 1BDF  
                                       l84 1BC5                                         l85 1BC9  
                                       l69 13BC                                         l78 1DA0  
                                       _GO 00FA                                         l98 1AAB  
                             ___awdiv@sign 0021                                         fsr 0004  
                      ___wmul@multiplicand 0075                         login_menu@menu_pos 005C  
                      __Umul8_16@word_mpld 0022                                        l200 1576  
                                      l201 15AF                                        l113 127F  
                                      l140 1E40                                        l108 1280  
                                      l206 07FF                                        l134 1BAA  
                                      l137 1C46                                        l217 0E00  
                                      l330 0BAD                                        l252 1F4C  
                                      l340 0C68                                        l325 0BBC  
                                      l422 1B54                                        l431 1ABC  
                                      l255 1FFF                                        l247 094C  
                                      l440 1DC7                                        l272 0AD5  
                                      l441 1DCA                                        l193 149F  
                                      l521 1D3B                                        l442 1DD4  
                                      l434 1ACE                                        l610 1AE3  
                                      l611 1AE4                                        l428 1BC3  
                                      l196 1429                                        l437 1AC5  
                                      l445 1AD9                                        l365 0FFF  
                                      l349 1654                                        l606 1D6D  
                                      l279 1EBD                                        l711 1C6B  
                                      l617 1C91                                        l289 17FF  
                                      l539 02F6                                        l572 03F7  
                                      l709 1C53                                        l902 1506  
                                      l735 1B93                                        l559 030A  
                                      l905 151B                                        l745 12E8  
                                      l589 1B08                                        l862 1351  
                                      _CKE 04A6                                        l875 121F  
                                      l981 1F03                                        l895 151B  
                                      l991 083B                                        _GIE 005F  
                                      _RE1 0049                                        _RE2 004A  
                                      _PR2 0092                                        _PEN 048A  
                                      _SEN 0488                                        _SMP 04A7  
                            ?_display_time 0070                              log_event@addr 0027  
                                      _log 00B6                                        _sec 005E  
                                      _isr 1F4D                             clcd_putch@addr 0024  
                                      _pos 00EC                                        fsr0 0004  
                           clcd_putch@data 0025                                        indf 0000  
                             ___awmod@sign 0021           __end_of_eeprom_at24c04_str_write 1C23  
             read_digital_keypad@longpress 0063                               ___flmul@aexp 003C  
                             ___flmul@bexp 0041                         log_car_event@event 002B  
                             ___flmul@sign 003B                               ___flmul@temp 0046  
                             ___flmul@prod 0042                         log_car_event@speed 002D  
                             ___fltol@exp1 0078                                       l1110 07CA  
                                     l1104 0742                                       l1117 1CCF  
                                     l1142 1679                                       l1119 1CE1  
                                     l1144 1710                                       l1155 16DA  
                                     l1171 1E7E                                       l1163 1CB8  
                                     l1156 16E6                                       l1148 16BE  
                                     l1166 1E6E                                       l1182 11C4  
                    ??_read_digital_keypad 0073                                       l1098 07D6  
                                     l5000 125A                                       l5002 1260  
                                     l5010 1267                                       l5012 1270  
                                     l5004 1264                                       l5030 143F  
                                     l5014 1275                                       l5022 127F  
                                     l5032 1444                                       l5016 1277  
                                     l5200 096B                                       l4410 1AB4  
                                     l5034 1450                                       l5026 142D  
                                     l5018 127D                                       l5210 099A  
                                     l5202 0973                                       l6100 1335  
                                     l4412 1AB9                                       l5028 143A  
                                     l5300 17BE                                       l4500 137A  
                                     l5140 084D                                       l5220 09D8  
                                     l5212 09A0                                       l5204 0977  
                                     l6110 134D                                       l6102 1336  
                                     l4430 1BD3                                       l4406 1BAB  
                                     l4422 1ABD                                       l4414 1AD0  
                                     l5310 17F6                                       l5302 17CF  
                                     l4510 13AE                                       l4502 1381  
                                     l5150 0880                                       l5142 0854  
                                     l5134 083F                                       l5230 0A01  
                                     l5222 09E0                                       l5214 09B8  
                                     l5206 097E                                       l6104 133D  
                                     l4512 1D6E                                       l4520 1B58  
                                     l4432 1BD9                                       l4408 1BAB  
                                     l4424 1AC2                                       l4416 1AD5  
                                     l6200 0F57                                       l6120 0E17  
                                     l4440 1DA9                                       l5240 1E80  
                                     l5312 17FE                                       l5304 17D8  
                                     l4504 138F                                       l5160 08B3  
                                     l5144 0861                                       l5152 0887  
                                     l5136 0845                                       l5400 0BF2  
                                     l5320 0AE7                                       l5232 0A14  
                                     l5224 09FF                                       l5216 09C1  
                                     l5208 0983                                       l6106 1343  
                                     l4514 1D78                                       l4426 1BC5  
                                     l4418 1AD9                                       l4530 1E42  
                                     l6210 0FA6                                       l6202 0F89  
                                     l6130 0E41                                       l6122 0E24  
                                     l6114 0E04                                       l4450 1DCB  
                                     l4442 1DB1                                       l4434 1AC6  
                                     l5242 1E86                                       l4522 1E0E  
                                     l5306 17E0                                       l4506 1396  
                                     l5170 08ED                                       l5162 08BB  
                                     l5154 088F                                       l5146 0869  
                                     l5138 0847                                       l5410 0C22  
                                     l5402 0BF7                                       l5322 0AEC  
                                     l5330 0AF9                                       l5234 0A23  
                                     l5218 09C9                                       l6108 1348  
                                     l4460 1BED                                       l4516 1D88  
                                     l4428 1BCD                                       l4540 1E66  
                                     l4532 1E43                                       l6220 0FE5  
                                     l6212 0FB5                                       l6204 0F91  
                                     l6132 0E49                                       l6124 0E30  
                                     l6116 0E0C                                       l4444 1DB7  
                                     l4436 1ACB                                       l4700 07D7  
                                     l5244 1EA4                                       l5252 1EBC  
                                     l4524 1E3D                                       l5308 17ED  
                                     l5260 171E                                       l4508 13A4  
                                     l6300 0D8B                                       l5180 0946  
                                     l5172 0905                                       l5156 089C  
                                     l5164 08C2                                       l5148 0878  
                                     l5412 0C25                                       l5404 0BFE  
                                     l5340 0B2B                                       l5332 0B08  
                                     l5324 0AF1                                       l5316 0AD9  
                                     l5236 0A29                                       l5510 14D6  
                                     l5502 14B6                                       l6070 12E9  
                                     l4462 1BF3                                       l4518 1D90  
                                     l4454 1CE5                                       l4542 1E7C  
                                     l4534 1E4B                                       l6222 0FF4  
                                     l6214 0FD2                                       l6206 0F97  
                                     l6150 0E7B                                       l6142 0E5A  
                                     l6134 0E4D                                       l6126 0E37  
                                     l6118 0E13                                       l4446 1DBC  
                                     l4438 1DA4                                       l4470 1DE3  
                                     l4710 07F2                                       l5246 1EAA  
                                     l5270 174E                                       l5262 1727  
                                     l4550 1B80                                       l5190 1FF9  
                                     l6310 0DB7                                       l6302 0D93  
                                     l6230 0C6C                                       l5174 090C  
                                     l5166 08CA                                       l5158 08A4  
                                     l5414 0C45                                       l5406 0C02  
                                     l5350 0B58                                       l5334 0B0A  
                                     l5342 0B3C                                       l5326 0AF4  
                                     l5318 0ADF                                       l5238 0A36  
                                     l5600 0600                                       l5512 14DA  
                                     l5520 14F4                                       l5504 14CB  
                                     l6080 12FB                                       l6072 12EC  
                                     l4640 11D3                                       l4632 11C5  
                                     l4456 1BE1                                       l4536 1E57  
                                     l6224 0FFA                                       l6216 0FD8  
                                     l6208 0F9F                                       l6160 0EA4  
                                     l6152 0E86                                       l6144 0E65  
                                     l6128 0E3B                                       l6136 0E50  
                                     l4448 1DC3                                       l4480 1E07  
                                     l4472 1DEB                                       l4464 1DD8  
                                     l5248 1EB0                                       l5272 1756  
                                     l5264 1733                                       l5256 1714  
                                     l4528 1C26                                       l4560 1B92  
                                     l4552 1B81                                       l4720 1F2B  
                                     l4712 1F04                                       l5192 1FFA  
                                     l5184 1FA6                                       l6320 0DF6  
                                     l6312 0DD4                                       l6304 0D99  
                                     l6240 0C8D                                       l6232 0C71  
                                     l5176 0918                                       l5168 08D6  
                                     l5416 0C48                                       l5408 0C18  
                                     l5352 0B61                                       l5344 0B44  
                                     l5336 0B18                                       l5328 0AF6  
                                     l6400 0076                                       l5610 06A0  
                                     l5602 0619                                       l5530 1510  
                                     l5506 14CC                                       l6090 130F  
                                     l6082 1300                                       l6074 12F0  
                                     l4650 11EC                                       l4642 11D7  
                                     l4634 11C8                                       l4458 1BEB  
                                     l4490 1C16                                       l6218 0FDE  
                                     l6170 0ED5                                       l6162 0EAE  
                                     l6226 0FFE                                       l6146 0E6B  
                                     l6154 0E8F                                       l6138 0E58  
                                     l4474 1DF0                                       l4466 1DD8  
                                     l4706 07DB                                       l6330 15B8  
                                     l4546 1ADB                                       l5290 179B  
                                     l5282 175C                                       l5266 173A  
                                     l5258 171A                                       l4570 12A3  
                                     l4554 1B85                                       l4722 1F35  
                                     l4714 1F13                                       l4730 1189  
                                     l5186 1FAB                                       l6322 0DFC  
                                     l6314 0DDA                                       l6306 0DA1  
                                     l6250 0CA2                                       l6234 0C7A  
                                     l6242 0C90                                       l5178 092F  
                                     l5418 0C5E                                       l5370 0B99  
                                     l5362 0B7F                                       l5354 0B69  
                                     l5346 0B4C                                       l5338 0B1D  
                                     l5194 0950                                       l6410 00E8  
                                     l6402 0083                                       l5620 070E  
                                     l5612 06C6                                       l5604 0636  
                                     l5540 0488                                       l5532 0476  
                                     l5508 14D4                                       l5700 16D4  
                                     l6092 1316                                       l6084 1304  
                                     l6076 12F5                                       l4660 120B  
                                     l4652 11F0                                       l4644 11DC  
                                     l4636 11CC                                       l4492 1C1A  
                                     l4484 1C03                                       l6180 0F0E  
                                     l6172 0EDC                                       l6156 0E98  
                                     l6148 0E71                                       l4476 1DF6  
                                     l4468 1DDD                                       l4708 07EC  
                                     l6340 15D3                                       l6332 15C3  
                                     l4900 1C5A                                       l4548 1ADF  
                                     l5292 17A2                                       l5284 177D  
                                     l5268 1741                                       l5276 1758  
                                     l4580 12D1                                       l4572 12A7  
                                     l4564 1281                                       l4556 1B89  
                                     l4724 1F44                                       l4716 1F15  
                                     l4740 11B6                                       l5188 1FB9  
                                     l6308 0DA8                                       l6316 0DE0  
                                     l6324 0DFF                                       l6252 0CA8  
                                     l6260 0CCA                                       l6244 0C98  
                                     l6236 0C80                                       l5380 0BC1  
                                     l5372 0B9F                                       l5364 0B84  
                                     l5356 0B6F                                       l5348 0B52  
                                     l5196 0951                                       l6420 0139  
                                     l6412 010A                                       l6404 0087  
                                     l5630 0726                                       l5622 0712  
                                     l5614 06EE                                       l5606 0663  
                                     l5550 04A4                                       l5542 048D  
                                     l5534 047D                                       l5526 14FB  
                                     l5518 14E2                                       l5710 1707  
                                     l5702 16DE                                       l6094 131A  
                                     l6086 1306                                       l6078 12F7  
                                     l4654 11F4                                       l4646 11E2  
                                     l4662 1211                                       l4638 11D1  
                                     l4486 1C04                                       l6190 0F24  
                                     l6182 0F18                                       l6174 0EE2  
                                     l6158 0E9E                                       l6166 0EBA  
                                     l4478 1E02                                       l6350 15EC  
                                     l6334 15C9                                       l6342 15D7  
                                     l4910 1EC2                                       l4902 1C61  
                                     l4742 1C6C                                       l5294 17A8  
                                     l5286 1783                                       l4670 1B6A  
                                     l4494 1352                                       l4582 12DA  
                                     l4574 12B0                                       l4566 1293  
                                     l4558 1B8B                                       l4718 1F17  
                                     l4734 11A7                                       l4726 117C  
                                     l6318 0DE7                                       l6262 0CD0  
                                     l6254 0CAE                                       l6238 0C88  
                                     l5390 0BDA                                       l5374 0BA5  
                                     l5366 0B89                                       l5358 0B75  
                                     l5382 0BC6                                       l5198 095B  
                                     l6510 02AC                                       l6414 0110  
                                     l6422 0151                                       l6406 0095  
                                     l5640 0747                                       l5632 0727  
                                     l5624 0713                                       l5616 06F7  
                                     l5608 0673                                       l5560 04B9  
                                     l5552 04A9                                       l5544 0492  
                                     l5536 0483                                       l5528 150B  
                                     l5712 1708                                       l5704 16E8  
                                     l6096 131E                                       l6088 130C  
                                     l4664 1216                                       l4656 11FE  
                                     l4648 11E5                                       l4488 1C10  
                                     l6192 0F2B                                       l6176 0EEA  
                                     l6168 0EC1                                       l6352 15F2  
                                     l6360 1616                                       l6344 15DF  
                                     l6336 15CD                                       l6328 15B3  
                                     l4920 1EDA                                       l4912 1EC8  
                                     l4904 1C67                                       l4744 1C6D  
                                     l5296 17B1                                       l5288 1792  
                                     l4672 1B77                                       l4496 1361  
                                     l4680 1AE9                                       l4576 12C2  
                                     l4568 1296                                       l4584 12E0  
                                     l5480 1D25                                       l4736 11AE  
                                     l4728 1183                                       l6280 0D1A  
                                     l6264 0CD6                                       l6272 0CF2  
                                     l6256 0CB8                                       l6248 0C9A  
                                     l5392 0BE0                                       l5384 0BCC  
                                     l5376 0BB3                                       l5368 0B91  
                                     l6520 02D1                                       l6512 02BA  
                                     l6504 028A                                       l6440 01A6  
                                     l6424 0159                                       l6432 0183  
                                     l6416 011D                                       l6408 00E2  
                                     l5642 074C                                       l5650 077D  
                                     l5634 072B                                       l5626 071C  
                                     l5618 0705                                       l5570 04D5  
                                     l5562 04BE                                       l5554 04AF  
                                     l5546 049A                                       l5538 0487  
                                     l5706 16FE                                       l6098 132F  
                                     l4666 121B                                       l4658 1204  
                                     l6194 0F3A                                       l6178 0F06  
                                     l6362 161F                                       l6354 15F8  
                                     l6338 15CE                                       l4922 1EEB  
                                     l4914 1ECB                                       l4930 1EFF  
                                     l4690 153D                                       l4746 1C7B  
                                     l5298 17B8                                       l4674 1B7B  
                                     l4498 1368                                       l4682 1AEA  
                                     l4578 12D0                                       l5482 1D2A  
                                     l4738 11B2                                       l6290 0D2D  
                                     l6274 0CF8                                       l6266 0CDC  
                                     l6258 0CC3                                       l5394 0BE6  
                                     l5386 0BD0                                       l5378 0BBC  
                                     l5490 1C98                                       l6530 0311  
                                     l6522 02D7                                       l6514 02BF  
                                     l6506 02A0                                       l6442 01B2  
                                     l6434 018B                                       l6450 01C9  
                                     l6426 0166                                       l6418 0125  
                                     l5660 07B0                                       l5652 078A  
                                     l5644 075A                                       l5636 073F  
                                     l5628 0722                                       l5580 0500  
                                     l5572 04DA                                       l5564 04C6  
                                     l5556 04B3                                       l5548 049C  
                                     l5708 1703                                       l6196 0F49  
                                     l6188 0F1A                                       l6364 1625  
                                     l6372 1641                                       l6356 1602  
                                     l6348 15E1                                       l4924 1EF1  
                                     l4916 1ED2                                       l4908 1EBE  
                                     l4940 0812                                       l4692 1541  
                                     l4748 1C81                                       l4676 1AE5  
                                     l4684 1AA6                                       l5484 1D39  
                                     l5476 1D0C                                       l6292 0D3C  
                                     l6276 0CFD                                       l6268 0CE6  
                                     l5396 0BE8                                       l5388 0BD6  
                                     l5492 1C9C                                       l6532 0319  
                                     l6524 02E5                                       l6516 02C5  
                                     l6508 02A6                                       l6460 01EC  
                                     l6452 01CF                                       l6444 01B9  
                                     l6436 0190                                       l6428 016E  
                                     l5662 07BE                                       l5654 0795  
                                     l5646 075E                                       l5590 059D  
                                     l5582 051D                                       l5566 04C8  
                                     l5558 04B4                                       l6198 0F4F  
                                     l6374 1648                                       l6366 162B  
                                     l6358 160D                                       l4926 1EF2  
                                     l4918 1ED6                                       l4950 0831  
                                     l4942 0816                                       l4934 0802  
                                     l4694 155C                                       l4678 1AE8  
                                     l4686 1B94                                       l4870 1B49  
                                     l5486 1D3A                                       l5478 1D20  
                                     l6294 0D4B                                       l6278 0D13  
                                     l6286 0D1C                                       l5398 0BEE  
                                     l5494 1CA2                                       l6550 038E  
                                     l6542 0332                                       l6534 0327  
                                     l6526 02ED                                       l6518 02CB  
                                     l6462 01F4                                       l6446 01BD  
                                     l6438 0197                                       l6390 0063  
                                     l6382 004A                                       l4960 1CC5  
                                     l5664 07C2                                       l5656 07A4  
                                     l5648 0777                                       l5592 05A6  
                                     l5584 0539                                       l5576 04E3  
                                     l5568 04D0                                       l5496 14A0  
                                     l5680 1681                                       l5672 1658  
                                     l6368 1635                                       l4928 1EF9  
                                     l4944 081A                                       l4936 0808  
                                     l4952 0837                                       l4696 15AE  
                                     l4688 151C                                       l4880 1B53  
                                     l4872 1B4C                                       l6296 0D51  
                                     l6288 0D26                                       l5488 1C93  
                                     l6560 03BE                                       l6552 03A5  
                                     l6544 0353                                       l6536 032A  
                                     l6528 02F7                                       l6480 022D  
                                     l6472 0215                                       l6464 01FD  
                                     l6456 01D6                                       l6448 01C5  
                                     l6392 0065                                       l6384 004F  
                                     _ADFM 04FF                                       l4962 1CC9  
                                     l5666 07C3                                       l5658 07AE  
                                     l5594 05B6                                       l5586 0565  
                                     l5578 04F3                                       l5498 14AD  
                                     l5690 16A3                                       l5674 165D  
                                     l6378 1653                                       l4946 0824  
                                     l4938 080B                                       l4698 13BD  
                                     l4874 1B4E                                       l4866 1B41  
                                     l4882 1AFC                                       l4890 1D3C  
                                     l6298 0D59                                       l4970 1B09  
                                     l6570 03FE                                       l6562 03CB  
                                     l6554 03A8                                       l6546 0370  
                                     l6490 025B                                       l6482 0234  
                                     l6474 021C                                       l6466 0204  
                                     l6458 01DD                                       l6394 0066  
                                     l6386 0061                                       l4964 1CD8  
                                     l4956 1CBC                                       l5668 07CE  
                                     l5596 05D3                                       l5588 0581  
                                     l5692 16A7                                       l5684 168A  
                                     l5676 1661                                       l4948 082A  
                                     l4876 1B4F                                       l4868 1B45  
                                     l4884 1B00                                       l4892 1D40  
                                     l4972 1B10                                       l6740 0441  
                                     l6572 0406                                       l6564 03DB  
                                     l6556 03AE                                       l6548 0381  
                                     l6492 026A                                       l6484 0243  
                                     l6476 0224                                       l6468 020C  
                                     l6396 0068                                       l6388 0063  
                                     ?_isr 0070                                       l4966 1CDD  
                                     l4958 1CBE                                       l5598 05E3  
                                     l5694 16B5                                       l5686 168F  
                                     l5678 1671                                       l4894 1C47  
                                     l4878 1B50                                       l4886 1B04  
                                     l4990 123D                                       l6742 0455  
                                     l6574 040D                                       l6566 03E2  
                                     l6558 03B6                                       l6590 046F  
                                     l6494 0276                                       l6486 024B  
                                     l6398 0068                                       l5696 16C5  
                                     l5688 169C                                       l4896 1C49  
                                     l4888 1B05                                       l4992 1243  
                                     l4984 122B                                       l4976 1221  
                                     l6584 0428                                       l6576 0415  
                                     l6568 03E6                                       l6736 028F  
                                     l6496 027D                                       l6488 0254  
                                     l5698 16D0                                       l4898 1C4D  
                                     l4994 1248                                       l4986 1236  
                                     l4978 1226                                       l6578 041D  
                                     l6738 034B                                       l6498 0281  
                                     l4996 124F                                       l4988 123B  
                                     l6588 0449                                       l4998 1255  
                                     _ADON 00F8                                       STR_1 1159  
                                     STR_2 113D                                       STR_3 1101  
                                     STR_4 1150                                       STR_5 10E7  
                                     STR_6 105B                                       STR_7 10BB  
                                     STR_8 10AC                                       STR_9 109D  
                                     _CREN 00C4                                       u5000 12E0  
                                     u5001 12DF                                       u5110 11CC  
                                     u5111 11CB                                       u5120 11D7  
                                     u5200 1541                                       u6000 09B8  
                                     u5121 11D6                                       u5201 1540  
                                     u6001 09B7                                       u5130 11E2  
                                     u6010 09C9                                       u5131 11E1  
                                     u6011 09C8                                       u6100 179B  
                                     u5300 11C4                                       u6020 09D8  
                                     u6101 179A                                       u5301 11C3  
                                     u6021 09D7                                       u6005 09B4  
                                     u5150 11F4                                       u5310 1C91  
                                     u6110 17A2                                       u6030 0A36  
                                     u5151 11F3                                       u5215 1544  
                                     u5311 1C90                                       u6111 17A1  
                                     u6031 0A35                                       u5160 11FE  
                                     u6040 1E86                                       u6120 17B1  
                                     u6200 0B44                                       u5161 11FD  
                                     u5145 11E6                                       u6041 1E85  
                                     u5225 155F                                       u6121 17B0  
                                     u6201 0B43                                       u6025 09D4  
                                     u7010 16A2                                       u5250 07FF  
                                     u6050 1EB0                                       u6130 17B8  
                                     u6210 0B52                                       u7011 16A1  
                                     u5251 07FE                                       u6051 1EAF  
                                     u5235 157B                                       u6131 17B7  
                                     u6211 0B51                                       u6035 0A32  
                                     _PEIE 005E                                       u7100 1707  
                                     u5180 1211                                       u6140 17ED  
                                     u6060 171A                                       u5260 1F13  
                                     u6300 0B9F                                       u6220 0B58  
                                     u7101 1706                                       u7005 1694  
                                     u5181 1210                                       u5165 11FA  
                                     u5245 1597                                       u6141 17EC  
                                     u6061 1719                                       u5261 1F12  
                                     u6301 0B9E                                       u6221 0B57  
                                     u7030 16C4                                       u5190 1216  
                                     u5510 1EDA                                       u6070 1733  
                                     u5270 1F44                                       u6310 0BA5  
                                     u6230 0B61                                       u6150 0ADF  
                                     u7031 16C3                                       u5191 1215  
                                     u5175 1205                                       u5255 07FB  
                                     u5511 1ED9                                       u6071 1732  
                                     u5271 1F43                                       u6311 0BA4  
                                     u6231 0B60                                       u6151 0ADE  
                                     u4800 1BD3                                       u6080 1756  
                                     u5440 1D4E                                       u5280 11A6  
                                     u6320 0BB3                                       u6240 0B6F  
                                     u6160 0B08                                       u7025 16B6  
                                     u4801 1BD2                                       u5505 1ECC  
                                     u6145 17E9                                       u6081 1755  
                                     u5281 11A5                                       u6321 0BB2  
                                     u6241 0B6E                                       u6161 0B07  
                                     u7050 16D4                                       u4810 1BD9  
                                     u5530 1EEB                                       u5610 0837  
                                     u5450 1C4D                                       u6090 1783  
                                     u5290 11AD                                       u6330 0BCC  
                                     u6250 0B75                                       u6170 0B10  
                                     u7051 16D3                                       u4811 1BD8  
                                     u5531 1EEA                                       u5611 0836  
                                     u5451 1C4C                                       u6091 1782  
                                     u6075 172F                                       u5275 1F40  
                                     u5291 11AC                                       u6331 0BCB  
                                     u6251 0B74                                       u6171 0B0E  
                                     u5620 1CC9                                       u6500 14AD  
                                     u7060 16DA                                       u7300 12FB  
                                     u4820 1BDF                                       u4900 1E7C  
                                     u5700 124F                                       u6340 0BD6  
                                     u6260 0B7E                                       u6180 0B11  
                                     _RCEN 048B                                       _RCIF 0065  
                                     u5621 1CC8                                       u6501 14AC  
                                     u7061 16D9                                       u7045 16C9  
                                     u7301 12FA                                       u4821 1BDE  
                                     u4901 1E7B                                       u5525 1EDB  
                                     u5605 082B                                       u5445 1D49  
                                     u5701 124E                                       u6405 0C2C  
                                     u6341 0BD5                                       u6261 0B7D  
                                     u6510 14C4                                       u7070 16DE  
                                     u7310 130C                                       u4830 1DC3  
                                     u5550 1EFF                                       u4910 1AE3  
                                     u5710 1255                                       u6350 0BE0  
                                     u6270 0B84                                       u6190 0B1D  
                                     u7071 16DD                                       u7311 130B  
                                     u4831 1DC2                                       u5551 1EFE  
                                     u5535 1EE7                                       u4911 1AE2  
                                     u5711 1254                                       u6415 0C4F  
                                     u6351 0BDF                                       u6271 0B83  
                                     u6191 0B1C                                       u5640 1CDD  
                                     u6600 0487                                       u6520 14DA  
                                     u7080 16F3                                       u4840 1BE8  
                                     u7400 0E58                                       u5560 0808  
                                     u5480 1C67                                       u4920 1B85  
                                     u5720 1260                                       u6360 0BE6  
                                     u6280 0B89                                       u5641 1CDC  
                                     u6601 0486                                       u6521 14D9  
                                     u4841 1BE4                                       u7401 0E57  
                                     u5545 1EF3                                       u5561 0807  
                                     u5481 1C66                                       u5465 1C54  
                                     u4921 1B84                                       u5721 125F  
                                     u6361 0BE5                                       u6281 0B88  
                                     u6610 048D                                       u6530 14E1  
                                     u7090 1703                                       u7330 131E  
                                     u7410 0E65                                       u5490 1EC8  
                                     u4930 1B92                                       u5650 1B10  
                                     u5730 1270                                       u6370 0BEE  
                                     u6290 0B91                                       u5635 1CD0  
                                     u6611 048C                                       u6531 14E0  
                                     u6515 14BF                                       u7091 1702  
                                     u7331 131D                                       u7411 0E64  
                                     u5491 1EC7                                       u5475 1C5B  
                                     u4931 1B91                                       u5651 1B0F  
                                     u5731 126F                                       u6371 0BED  
                                     u6291 0B90                                       u6620 0492  
                                     u4860 1C22                                       u7500 0FDE  
                                     u7420 0E6B                                       u5580 081A  
                                     u4940 1293                                       u5900 0878  
                                     u5740 1275                                       u5660 1226  
                                     u6380 0BFE                                       u6701 0573  
                                     u6621 0491                                       u7085 16EE  
                                     u7325 1310                                       u4861 1C21  
                                     u7501 0FDD                                       u7421 0E6A  
                                     u5581 0819                                       u4941 1292  
                                     u5901 0877                                       u5741 1274  
                                     u5661 1225                                       u6381 0BFD  
                                     u6702 057A                                       u6630 04B3  
                                     u6550 14F3                                       u7350 132F  
                                     u4854 1BEB                                       u4870 1DA0  
                                     u4790 1BC3                                       u7430 0E98  
                                     u5590 0824                                       u7510 0C71  
                                     u5910 088F                                       u5750 127D  
                                     u5670 1236                                       u6711 058F  
                                     u6703 0581                                       u6631 04B2  
                                     u6551 14F2                                       u7351 132E  
                                     u4871 1D9F                                       u4791 1BC2  
                                     u7431 0E97                                       u5591 0823  
                                     u5575 080C                                       u7511 0C70  
                                     u5911 088E                                       u5751 127C  
                                     u5671 1235                                       u6712 0596  
                                     u6640 04B9                                       u6560 14FA  
                                     u4880 1E4B                                       u7440 0E9E  
                                     u4960 12A7                                       u7600 0D93  
                                     u7520 0C98                                       u5920 089C  
                                     u5680 123B                                       u6801 06B8  
                                     u6713 059D                                       u6641 04B8  
                                     u6561 14F9                                       u6545 14E3  
                                     u7345 131F                                       u4881 1E4A  
                                     u7441 0E9D                                       u4961 12A6  
                                     u7601 0D92                                       u7521 0C97  
                                     u5921 089B                                       u5905 0874  
                                     u5681 123A                                       u6810 06D4  
                                     u6802 06BF                                       u6650 04BE  
                                     u7370 1343                                       u7290 12F0  
                                     u4890 1E57                                       u7450 0EC1  
                                     u7610 0DE0                                       u7530 0CA2  
                                     u5930 08B3                                       u5690 1248  
                                     u6490 1CB8                                       u6803 06C6  
                                     u6731 05C5                                       u6651 04BD  
                                     u7371 1342                                       u7355 132B  
                                     u7291 12EF                                       u4891 1E56  
                                     u7451 0EC0                                       u5595 0820  
                                     u4955 1298                                       u7611 0DDF  
                                     u7531 0CA1                                       u5931 08B2  
                                     u5691 1247                                       u6395 0C09  
                                     u6491 1CB7                                       u6900 0746  
                                     u6732 05CC                                       u6660 04D5  
                                     u6580 150B                                       u7380 1348  
                                     u7460 0ED5                                       u7620 15B8  
                                     u4980 12C2                                       u7540 0CA8  
                                     u5940 08CA                                       u7700 00E8  
                                     u6901 0745                                       u6821 06E0  
                                     u6741 05F2                                       u6733 05D3  
                                     u6725 059F                                       u6661 04D4  
                                     u6581 150A                                       u7381 1347  
                                     u7365 1337                                       u7461 0ED4  
                                     u7621 15B7                                       u4981 12C1  
                                     u7541 0CA7                                       u5941 08C9  
                                     u5925 0898                                       u7701 00E7  
                                     u6910 074C                                       u6822 06E7  
                                     u6742 05F9                                       u6670 04DA  
                                     u6590 1510                                       u7470 0F0E  
                                     u7390 0E0C                                       u7630 15DF  
                                     u7550 0CD0                                       u5950 090C  
                                     u5870 0845                                       u7710 0110  
                                     u6911 074B                                       u6823 06EE  
                                     u6815 06CF                                       u6743 0600  
                                     u6671 04D9                                       u6591 150F  
                                     u6575 14FD                                       u7471 0F0D  
                                     u7391 0E0B                                       u7631 15DE  
                                     u4975 12A9                                       u7551 0CCF  
                                     u5951 090B                                       u5935 08AF  
                                     u5871 0844                                       u7711 010F  
                                     u6920 075E                                       u7480 0F24  
                                     u7640 15EC                                       u7560 0CD6  
                                     u5880 0854                                       u5960 095B  
                                     u7800 02AC                                       u7720 011D  
                                     u6921 075D                                       u6761 0628  
                                     u6681 052B                                       u7481 0F23  
                                     u7641 15EB                                       u4985 12BE  
                                     u7561 0CD5                                       u5881 0853  
                                     u5961 095A                                       u7801 02AB  
                                     u7721 011C                                       u6930 076D  
                                     u6850 0712                                       u6762 062F  
                                     u6682 0532                                       u7490 0F91  
                                     u7650 15F2                                       u7570 0CF8  
                                     u5890 0861                                       u5970 0973  
                                     u7810 02C5                                       u7730 0159  
                                     u6851 0711                                       u6835 06F0  
                                     u6771 0655                                       u6763 0636  
                                     u6755 0602                                       u6691 0547  
                                     u6683 0539                                       u7491 0F90  
                                     u7651 15F1                                       u4995 12D2  
                                     u7571 0CF7                                       u5891 0860  
                                     u5971 0972                                       u7811 02C4  
                                     u7731 0158                                       u6940 078A  
                                     u6772 065C                                       u6692 054E  
                                     u7660 161F                                       u7580 0D13  
                                     u5980 097E                                       u7820 02CB  
                                     u7740 0166                                       u6941 0789  
                                     u6845 0707                                       u6781 0682  
                                     u6773 0663                                       u6693 0555  
                                     u7661 161E                                       u7581 0D12  
                                     u5981 097D                                       u7821 02CA  
                                     u7741 0165                                       u7725 0119  
                                     u6950 07A4                                       u6870 0726  
                                     u6790 06AC                                       u6782 0689  
                                     u7670 1625                                       u7590 0D26  
                                     u5990 09A0                                       u7830 02D1  
                                     u7750 018B                                       u6951 07A3  
                                     u6935 0768                                       u6871 0725  
                                     u6783 0690                                       u7671 1624  
                                     u7591 0D25                                       u5895 085D  
                                     u5991 099F                                       u7831 02D0  
                                     u7751 018A                                       u6960 07C2  
                                     u6880 072B                                       u7680 1648  
                                     u7840 02D7                                       u7760 0190  
                                     u6961 07C1                                       u6945 0786  
                                     u6881 072A                                       u6865 0715  
                                     u7681 1647                                       u7841 02D6  
                                     u7761 018F                                       u7745 0162  
                                     u6890 073F                                       u6970 165D  
                                     u7850 038E                                       u7770 01CF  
                                     u7690 0095                                       u6955 07A0  
                                     u6891 073E                                       u6795 06A7  
                                     u6971 165C                                       u7907 138C  
                                     u7851 038D                                       u7771 01CE  
                                     u7691 0094                                       u6980 1661  
                                     u7860 03CB                                       u7780 01D5  
                                     u6981 1660                                       u7917 139A  
                                     u7861 03CA                                       u7781 01D4  
                                     u6990 1681                                       u7790 02A6  
                                     u6991 1680                                       u7927 13AA  
                                     u7791 02A5                                       u7937 13B9  
                                     u7947 1BF0                                       u7957 1BFA  
                                     u7877 135A                                       u7887 136E  
                                     u7897 137E                                       _SPEN 00C7  
                                     _RSEN 0489                                       _TXIF 0064  
                                     _R_nW 04A2                                       _gear 019E  
                                     _flag 00AC                 __end_of_display_dash_board 14A0  
                                     _main 004A                                       _menu 00DB  
                                     _time 00C1                                       btemp 007E  
                                     _puts 1C6C                                       start 0010  
                    clear_log@reset_memory 0078                          ___bmul@multiplier 0076  
                           ??_get_password 0029                             clcd_write@byte 0076  
                           clcd_write@mode 0073                        view_log@reset_shift 0029  
                            _i2c_rep_start 1AC6                                      ??_isr 0070  
                             ?_init_ds1307 0070                              ___fltol@sign1 0077  
                                    _ADCS0 00FE                                      _ADCS1 00FF  
                                    _ADCS2 04FE                                      ?_main 0070  
                             ?_read_ds1307 0070                                      _ACKEN 048C  
                                    _ACKDT 048D                             ??_display_time 0026  
                                    _BCLIF 006B                            __end_of___awdiv 1352  
                                    STR_10 110E                                      STR_11 10CA  
                                    STR_20 111B                                      STR_12 1027  
                                    STR_21 10BB                                      STR_13 1133  
                                    STR_22 10AC                                      STR_14 1128  
                                    STR_30 1168                                      STR_23 10F4  
                                    STR_15 1000                                      STR_31 116B  
                                    STR_32 116E                                      STR_24 10D9  
                                    STR_16 108D                                      STR_17 1012  
                                    STR_25 107D                                      STR_33 1039  
                                    STR_18 107D                                      STR_34 104A  
                                    STR_26 1174                                      STR_35 1147  
                                    STR_19 106C                                      STR_27 1177  
                                    STR_36 1015                                      STR_28 1162  
                          __end_of___awmod 1220                                      STR_37 1171  
                                    STR_29 1165                            __end_of___flmul 07D7  
                          __end_of___fltol 151C                                      ?_puts 0074  
                          __end_of___lldiv 12E9                                i2c_read@ack 0024  
                          ___awdiv@divisor 0073                            __end_of___lwdiv 1F04  
                          __end_of___lwmod 083C                                      i1l462 1F9D  
                             ?_init_config 0070                            ___awdiv@counter 0020  
                                    _RCREG 001A                                      _SPBRG 0099  
                                    _PORTB 0006                                      _PORTD 0008  
                                    _TRISB 0086                                      _TRISD 0088  
                                    _SSPIF 0063                                      _TXREG 0019  
                             ?_init_timer2 0070                               main@menu_pos 0192  
                     login_menu@select_pos 00E8                                      _login 0C69  
                             view_log@rlog 002C                            _change_password 15B0  
                             view_log@rpos 0039                    i2c_write@i2c_write_data 0078  
                                    pclath 000A         eeprom_at24c04_str_write@memory_loc 0024  
                     login_menu@reset_menu 0026                   confirm_change_password@i 0058  
                                    puts@s 0074                            __end_of_putchar 1AE5  
                                    status 0003                                      wtemp0 007E  
                ??_confirm_change_password 0027                            __end_of_strncmp 1E7F  
                          __end_of_strncpy 11C5    eeprom_at24c04_random_read@received_data 0028  
  confirm_change_password@changed_password 0026                           init_ds1307@dummy 002A  
                    __size_of_write_ds1307 0024                            __initialization 0013  
                           ?_i2c_rep_start 0070                               __end_of_main 0476  
                             __end_of_puts 1C92                             login@npassword 00D7  
                         __end_of_i2c_read 1DD5                           __end_of_i2c_stop 1AC6  
                            ?_download_log 0070                                     ??_main 0051  
 confirm_change_password@attempt_remaining 00B1                                     ??_puts 0076  
confirm_change_password@confirmed_password 00C8                              get_password@i 002A  
                                   _ADRESH 001E                                     ?_login 002C  
                                   _ADRESL 009E                           ___awdiv@dividend 0075  
                                   i1l4090 1F73                                     i1l4082 1F4D  
                                   i1l4092 1F7B                                     i1l4084 1F51  
                                   i1l4094 1F8A                                     i1l4086 1F62  
                                   i1l4096 1F92                                     i1l4088 1F64  
                                   i1l4098 1F9A                  change_password@r_password 00CD  
                             _write_ds1307 1C23                                     u460_20 1F92  
                                   u460_21 1F91                                     u456_20 1F51  
                                   u456_21 1F50                                     u457_20 1F62  
                                   u457_21 1F61                                     u458_20 1F73  
                                   u458_21 1F72                                     u458_25 1F6F  
                                   u459_20 1F8A                                     u459_21 1F89  
                                   u459_25 1F86                                     _TMR2IE 0461  
                                   _TMR2IF 0061                                     _TMR2ON 0092  
              ?_eeprom_at24c04_random_read 0070                                     _SSPADD 0093  
                                   _TRISC3 043B                                     _TRISC4 043C  
                                   _TRISE1 0449                                     _TRISE2 044A  
                                   _SSPCON 0014                                     _SSPBUF 0013  
                       __size_of_i2c_start 0009                              login_menu@key 002B  
                         __end_of___xxtofl 1711                         __size_of_i2c_write 000B  
                         __end_of_delay_ms 1BE0                __end_of_init_digital_keypad 1AAC  
        __size_of_eeprom_at24c04_str_write 0023                  ?_eeprom_at24c04_str_write 0022  
                         __end_of_get_time 15B0                                     ___bmul 1B7F  
                  _init_display_controller 1352                                     _access 00EA  
                                   ___wmul 1C47                                  ??___awdiv 0077  
                                ??___awmod 0077                                  ??___flmul 0036  
                                ??___fltol 004C                                  ??___lldiv 0073  
                                ??___lwdiv 0077                                  ??___lwmod 0077  
                         __end_of_init_i2c 1B55                           __end_of_init_adc 1B7F  
                         __end_of_read_adc 1B1B                             ??_download_log 0029  
                         ___awdiv@quotient 0022                            ___awmod@divisor 0073  
                          ___awmod@counter 0020            __end_of_confirm_change_password 1000  
                            view_log@shift 00AA                                     main@gr 0197  
                                   _strcpy 1C92                               __pdataCOMMON 007A  
                                   login@i 0062                    __end_of_change_password 1655  
                         __end_of_set_time 0C69                         __size_of__Umul8_16 0029  
                                   saved_w 007E                 confirm_change_password@key 0028  
                         __end_of_view_log 0AD6                     __size_of_log_car_event 005A  
                                ??_putchar 0073                       __end_of_get_password 0800  
                                ??_strncmp 0076                                  ??_strncpy 0020  
                             ___xxtofl@arg 002A                               ___xxtofl@exp 0029  
                             ___xxtofl@val 0020                    __end_of__initialization 0046  
                     __end_of_display_time 142A                                 ___fltol@f1 0048  
                          ??_i2c_rep_start 0078                        ___bmul@multiplicand 0073  
                           __pcstackCOMMON 0070                               __pidataBANK1 1B2E  
                             __pidataBANK3 1AF0                 ?_eeprom_at24c04_byte_write 0020  
                            __end_of_login 0E01                         __size_of_clear_log 003F  
                     __size_of_init_ds1307 0017                          __end_of_i2c_start 1ABD  
                        __end_of_i2c_write 1ADA                       __size_of_read_ds1307 0036  
                     __size_of_init_config 0030                          _i2c_wait_for_idle 1BAB  
                     __size_of_init_timer2 000D                                    ??_login 002D  
                       ?_i2c_wait_for_idle 0070                                 __pbssBANK0 0055  
                               __pbssBANK1 00A0                                  ?_i2c_read 0020  
                                ?_i2c_stop 0070                         __size_of_init_clcd 000B  
                       __size_of_init_uart 0032                  ??_init_display_controller 0020  
                               _clcd_print 1D6E                        ??_i2c_wait_for_idle 0073  
                               _clcd_putch 1B55                                 _clcd_write 1BE0  
                        __end_of__Umul8_16 1CE2                         __size_of_log_event 0049  
                               __pmaintext 004A                              _log_car_event 1FA6  
                          read_ds1307@data 0028                                    ?___bmul 0073  
                                  ?___wmul 0073                                 __pintentry 0004  
                       _display_dash_board 142A                                    _ACKSTAT 048E  
            eeprom_at24c04_byte_write@data 0020                                    ?_strcpy 0073  
                                  _T2CKPS0 0090                                    _T2CKPS1 0091  
                      ?_display_dash_board 002B                __end_of_read_digital_keypad 1281  
                                ?___xxtofl 0020                           ?_change_password 002C  
                __end_of_i2c_wait_for_idle 1BC4                                  ?_delay_ms 0070  
                                  _SSPCON2 0091                                  ?_get_time 0070  
                               __stringtab 1800                                 ??_i2c_read 0022  
                               ??_i2c_stop 0078                                  ?_init_i2c 0070  
                     __end_of_download_log 1800                                  ?_init_adc 0070  
                                ?_read_adc 0073                          __end_of_clear_log 1EBE  
                     ??_display_dash_board 002D                             ?_log_car_event 002B  
                                ?_set_time 002B                         change_password@key 002E  
                          __size_of___bmul 0015                                    ___awdiv 12E9  
                                  ___awmod 11C5                                    ___flmul 0476  
                                ?_view_log 0029                                    ___fltol 14A0  
                                  ___lldiv 1281                            __size_of___wmul 0025  
                    i2c_read@i2c_read_data 0025                                    ___lwdiv 1EBE  
                                  ___lwmod 0802                           main@control_flag 019C  
                                  __ptext1 094D                                    __ptext2 1C92  
                                  __ptext3 0AD6                                    __ptext4 1220  
                                  __ptext5 1B09                                    __ptext6 083C  
                                  __ptext7 0C69                                    __ptext8 1FA6  
                                  __ptext9 117B                                    _l_count 00A0  
                         set_time@set_flag 00B3                            __size_of_strcpy 0027  
                    __size_of_get_password 0029            __end_of_init_display_controller 13BD  
                        __end_of_init_clcd 1AF0                               __size_of_isr 0059  
                               ??___xxtofl 0024                          __end_of_init_uart 1D6E  
                         ___awmod@dividend 0075                             main@reset_flag 019B  
                        __end_of_log_event 1F4D                                 ??_delay_ms 0073  
                               _login_menu 083C                                    _putchar 1ADA  
                                  main@key 019D                                    clrloop0 1AAD  
                               ??_get_time 0029                                    _strncmp 1E41  
                                  _strncpy 117B                      __size_of_display_time 006D  
                     end_of_initialization 0046                                set_time@key 002E  
                              set_time@num 00A4                                set_time@pos 0061  
                               ??_init_i2c 0073                                 ??_init_adc 0073  
                               ??_read_adc 0075                                ?_clcd_print 0020  
                              ?_clcd_putch 0024                            ___lldiv@divisor 0020  
                              ?_clcd_write 0073                            ___lldiv@counter 0078  
                               ??_set_time 002C                                 ??_view_log 002A  
                             _get_password 07D7                               __pstringtext 1000  
                             _display_time 13BD                 __size_of_i2c_wait_for_idle 0019  
                            ___xxtofl@sign 0028                            read_adc@reg_val 0075  
                 ?_confirm_change_password 0026                                ___flmul@grs 003D  
                          ??_log_car_event 002F                ??_eeprom_at24c04_byte_write 0079  
                           __end_of___bmul 1B94                              delay_ms@_dcnt 0076  
                           __end_of___wmul 1C6C               __size_of_init_digital_keypad 0006  
                            delay_ms@count 0074                              __pidataCOMMON 0003  
                              view_log@add 0037                                view_log@key 0038  
                           __end_of_strcpy 1CB9                        start_initialization 0013  
                      __size_of_clcd_print 0033                                ?_login_menu 0026  
                      __size_of_clcd_putch 0015                        __size_of_clcd_write 0020  
                                _i2c_start 1AB4                                __end_of_isr 1FA6  
                                _i2c_write 1ACF                      __size_of_download_log 00EF  
                 _eeprom_at24c04_str_write 1C00                          __size_of_i2c_read 0034  
                        __size_of_i2c_stop 0009                                putchar@data 0073  
                         change_password@i 005A                      __end_of_i2c_rep_start 1ACF  
                                 ??___bmul 0074                                   ??___wmul 0077  
                               init_fetch0 1B1B                              ??_init_ds1307 0029  
                                __Umul8_16 1CB9                                __pdataBANK1 00DB  
                              __pdataBANK3 019E                        login@reset_password 002C  
               read_digital_keypad@pre_key 0079                              ??_read_ds1307 0026  
                             _download_log 1711                                   ??_strcpy 0075  
                            ??_init_config 0079                              ??_init_timer2 0073  
                                ___flmul@a 0032                                  ___flmul@b 002E  
                              __pbssCOMMON 0079                                  ___latbits 0002  
                            __pcstackBANK0 0020                              __pcstackBANK3 0190  
                               ?_i2c_start 0070                                 ?_i2c_write 0070  
                        __size_of___xxtofl 00BC                  _eeprom_at24c04_byte_write 1CE2  
                        __size_of_delay_ms 001C                    display_dash_board@event 002E  
                  display_dash_board@speed 002B                         set_time@cursor_pos 0060  
                        __size_of_get_time 0094                          __size_of_init_i2c 0014  
                        __size_of_init_adc 0015                          __size_of_read_adc 0012  
                         ___lwdiv@dividend 0075                                  _clear_log 1E7F  
                      __size_of_login_menu 0111                                   ?___awdiv 0073  
                                 ?___awmod 0073                                   ?___flmul 002E  
                                 ?___fltol 0048                                   ?___lldiv 0020  
                       read_ds1307@address 0027                                 ?__Umul8_16 0073  
                                 ?___lwdiv 0073                                  _clock_reg 0055  
                                 ?___lwmod 0073                          __size_of_set_time 0193  
                        __size_of_view_log 0189                                  __pstrings 1800  
                      __end_of_init_ds1307 1BAB                         set_time@reset_time 002B  
                      __end_of_read_ds1307 1E41                           ___lwdiv@quotient 0021  
                                 ?_putchar 0070                                  _init_clcd 1AE5  
                      __end_of_init_config 1D3C                                  _init_uart 1D3C  
                           __size_of_login 0198                                   ?_strncmp 0073  
                                 ?_strncpy 0073                                  _log_event 1F04  
             __size_of_read_digital_keypad 0061                              ?_write_ds1307 0020  
                      __end_of_init_timer2 1B09                   ?_init_display_controller 0070  
                 __size_of_change_password 00A5                          interrupt_function 0004  
                           ___wmul@product 0077                                  delay_ms@i 0075  
             ??_eeprom_at24c04_random_read 0026                                  clear_ram0 1AAC  
                              strncpy@from 0073                                strncpy@size 0075  
                             ??_clcd_print 0077                               ??_clcd_putch 0079  
                             ??_clcd_write 0074                __size_of_display_dash_board 0076  
                               ?_clear_log 0070                                  main@F1021 00E5  
      eeprom_at24c04_byte_write@memory_loc 0021                 download_log@reset_download 0035  
                            download_log@i 0038                                  _spassword 00D2  
                              __stringbase 1812                          ___wmul@multiplier 0073  
                                main@event 0194                                  main@speed 0199  
                              ??_i2c_start 0078                         __end_of_clcd_print 1DA1  
                              ??_i2c_write 0078                         __end_of_clcd_putch 1B6A  
      __size_of_eeprom_at24c04_random_read 0036                         __end_of_clcd_write 1C00  
                               ?_init_clcd 0070                                 ?_init_uart 0028  
                           ??_write_ds1307 0079                                 ?_log_event 0070  
                      _init_digital_keypad 1AA6                                   _i2c_read 1DA1  
                                 _i2c_stop 1ABD           __size_of_confirm_change_password 01FF  
                              ??__Umul8_16 0075                   change_password@reset_pwd 002C  
                         __size_of___awdiv 0069                           __size_of___awmod 005B  
                     ?_init_digital_keypad 0070                           __size_of___flmul 0361  
                              _init_ds1307 1B94                           __size_of___fltol 007C  
                         __size_of___lldiv 0068                           __size_of___lwdiv 0046  
                         __size_of___lwmod 003A                         __end_of__stringtab 1812  
                              _read_ds1307 1E0B                                _init_config 1D0C  
                                 ___xxtofl 1655                               ??_login_menu 0028  
                      write_ds1307@address 0021                                _init_timer2 1AFC  
               ??_eeprom_at24c04_str_write 0023                                   _delay_ms 1BC4  
                          ___lwdiv@divisor 0073                            ___lwdiv@counter 0020  
                                 __ptext10 1F04                                   __ptext11 1B7F  
                                 __ptext20 1AE5                                   __ptext12 1D0C  
                                 __ptext21 1352                                   __ptext13 1D3C  
                                 __ptext30 13BD                                   __ptext22 1B6A  
                                 __ptext14 1281                                   __ptext31 0802  
                                 __ptext23 1711                                   __ptext15 1AFC  
                                 __ptext40 1E41                                   __ptext32 1EBE  
                                 __ptext24 1C6C                                   __ptext16 1B41  
                                 __ptext41 1C00                                   __ptext33 1E7F  
                                 __ptext25 1ADA                                   __ptext17 1B94  
                                 __ptext50 1BE0                                   __ptext42 1CE2  
                                 __ptext34 15B0                                   __ptext26 1C47  
                                 __ptext18 1C23                                   __ptext51 11C5  
                                 __ptext43 1ACF                                   __ptext35 07D7  
                                 __ptext27 142A                                   __ptext19 1AA6  
                                 __ptext52 12E9                                   __ptext44 1ABD  
                                 __ptext36 1DD5                                   __ptext28 151C  
                                 __ptext53 1655                                   __ptext45 1AB4  
                                 __ptext37 1AC6                                   __ptext29 1E0B  
                                 __ptext54 14A0                                   __ptext46 1BAB  
                                 __ptext38 1DA1               eeprom_at24c04_str_write@data 0022  
                                 __ptext55 0476                                   __ptext47 1BC4  
                                 __ptext39 0E01                                   __ptext56 1CB9  
                                 __ptext48 1B55                                   __ptext57 1F4D  
                                 __ptext49 1D6E                                   _get_time 151C  
                         __size_of_putchar 000B                           __size_of_strncmp 003E  
                         __size_of_strncpy 004A                                 strcpy@from 0073  
                                 _init_i2c 1B41                                   _init_adc 1B6A  
                                 _read_adc 1B09                              __size_of_main 042C  
                  read_digital_keypad@mode 0074                    read_digital_keypad@once 007A  
                                 _log_flag 00B0                              __size_of_puts 0026  
                               strncmp@len 0074         __size_of_eeprom_at24c04_byte_write 002A  
                    __end_of_log_car_event 2000                                ??_clear_log 0077  
                        ??_change_password 002D                                   _set_time 0AD6  
                                 _overflow 00B5                         __end_of_login_menu 094D  
                                 _view_log 094D                      ??_init_digital_keypad 0073  
                    download_log@read_data 002B                                   main@wait 0190  
                                view_log@i 003B                                   isr@count 00A2  
                             set_time@flag 00B2                               set_time@wait 00A6  
                                 init_ram0 1B1F                                ??_init_clcd 0077  
                              ??_init_uart 002C                                   login@key 002E  
                              ??_log_event 0025                                   intlevel1 0000  
                            init_uart@baud 0028         __end_of_eeprom_at24c04_random_read 1E0B  
               _eeprom_at24c04_random_read 1DD5                           ___lwmod@dividend 0075  
                         ___lldiv@dividend 0024                                  strncmp@s1 0078  
                                strncmp@s2 0073                                  stringcode 180A  
                                strncpy@cp 0078                                  strncpy@to 0077  
        __end_of_eeprom_at24c04_byte_write 1D0C                       download_log@read_pos 00A8  
                     __end_of_write_ds1307 1C47                        _read_digital_keypad 1220  
                   __Umul8_16@multiplicand 0073                           ___lldiv@quotient 0074  
                          ___lwmod@divisor 0073                                   strcpy@cp 0076  
                                 strcpy@to 0077                            ___lwmod@counter 0078  
                                 stringtab 1800                     login@attempt_remaining 00B4  
                              _return_time 00AE                     __size_of_i2c_rep_start 0009  
                     ?_read_digital_keypad 0070                           write_ds1307@data 0020  
     eeprom_at24c04_random_read@memory_loc 0027                       __Umul8_16@multiplier 0024  
                         download_log@addr 0036                    _confirm_change_password 0E01  
                        __Umul8_16@product 0020  
